
/mnt/c/Users/user/Desktop/캐스퍼/PBA_EX/hello/x64/Debug/hello.exe:     file format pei-x86-64


Disassembly of section .text:

0000000140011000 <.text>:
   140011000:	cc                   	int3   
   140011001:	cc                   	int3   
   140011002:	cc                   	int3   
   140011003:	cc                   	int3   
   140011004:	cc                   	int3   
   140011005:	e9 b0 43 00 00       	jmp    0x1400153ba
   14001100a:	e9 b1 2c 00 00       	jmp    0x140013cc0
   14001100f:	e9 9c 0c 00 00       	jmp    0x140011cb0
   140011014:	e9 19 44 00 00       	jmp    0x140015432
   140011019:	e9 1e 43 00 00       	jmp    0x14001533c
   14001101e:	e9 31 43 00 00       	jmp    0x140015354
   140011023:	e9 a8 12 00 00       	jmp    0x1400122d0
   140011028:	e9 f3 2f 00 00       	jmp    0x140014020
   14001102d:	e9 ce 1a 00 00       	jmp    0x140012b00
   140011032:	e9 4d 43 00 00       	jmp    0x140015384
   140011037:	e9 fc 43 00 00       	jmp    0x140015438
   14001103c:	e9 6f 30 00 00       	jmp    0x1400140b0
   140011041:	e9 c8 43 00 00       	jmp    0x14001540e
   140011046:	e9 c9 43 00 00       	jmp    0x140015414
   14001104b:	e9 20 24 00 00       	jmp    0x140013470
   140011050:	e9 f3 42 00 00       	jmp    0x140015348
   140011055:	e9 c6 39 00 00       	jmp    0x140014a20
   14001105a:	e9 eb 43 00 00       	jmp    0x14001544a
   14001105f:	e9 74 43 00 00       	jmp    0x1400153d8
   140011064:	e9 21 43 00 00       	jmp    0x14001538a
   140011069:	e9 d2 24 00 00       	jmp    0x140013540
   14001106e:	e9 23 43 00 00       	jmp    0x140015396
   140011073:	e9 78 2c 00 00       	jmp    0x140013cf0
   140011078:	e9 53 44 00 00       	jmp    0x1400154d0
   14001107d:	e9 7e 1c 00 00       	jmp    0x140012d00
   140011082:	e9 d9 0b 00 00       	jmp    0x140011c60
   140011087:	e9 24 2d 00 00       	jmp    0x140013db0
   14001108c:	e9 df 1c 00 00       	jmp    0x140012d70
   140011091:	e9 4a 44 00 00       	jmp    0x1400154e0
   140011096:	e9 f5 25 00 00       	jmp    0x140013690
   14001109b:	e9 30 44 00 00       	jmp    0x1400154d0
   1400110a0:	e9 2b 0b 00 00       	jmp    0x140011bd0
   1400110a5:	e9 26 1c 00 00       	jmp    0x140012cd0
   1400110aa:	e9 71 1c 00 00       	jmp    0x140012d20
   1400110af:	e9 0c 33 00 00       	jmp    0x1400143c0
   1400110b4:	e9 85 43 00 00       	jmp    0x14001543e
   1400110b9:	e9 42 24 00 00       	jmp    0x140013500
   1400110be:	e9 e1 43 00 00       	jmp    0x1400154a4
   1400110c3:	e9 fe 42 00 00       	jmp    0x1400153c6
   1400110c8:	e9 03 25 00 00       	jmp    0x1400135d0
   1400110cd:	e9 36 43 00 00       	jmp    0x140015408
   1400110d2:	e9 79 0d 00 00       	jmp    0x140011e50
   1400110d7:	e9 c0 42 00 00       	jmp    0x14001539c
   1400110dc:	e9 7b 43 00 00       	jmp    0x14001545c
   1400110e1:	e9 5a 2c 00 00       	jmp    0x140013d40
   1400110e6:	e9 3b 43 00 00       	jmp    0x140015426
   1400110eb:	e9 9c 43 00 00       	jmp    0x14001548c
   1400110f0:	e9 9b 2b 00 00       	jmp    0x140013c90
   1400110f5:	e9 f6 43 00 00       	jmp    0x1400154f0
   1400110fa:	e9 5b 42 00 00       	jmp    0x14001535a
   1400110ff:	e9 ac 31 00 00       	jmp    0x1400142b0
   140011104:	e9 b7 1c 00 00       	jmp    0x140012dc0
   140011109:	e9 f2 0b 00 00       	jmp    0x140011d00
   14001110e:	e9 0d 2c 00 00       	jmp    0x140013d20
   140011113:	e9 68 43 00 00       	jmp    0x140015480
   140011118:	e9 25 42 00 00       	jmp    0x140015342
   14001111d:	e9 8e 24 00 00       	jmp    0x1400135b0
   140011122:	e9 49 2b 00 00       	jmp    0x140013c70
   140011127:	e9 72 43 00 00       	jmp    0x14001549e
   14001112c:	e9 cf 2c 00 00       	jmp    0x140013e00
   140011131:	e9 8a 0a 00 00       	jmp    0x140011bc0
   140011136:	e9 85 14 00 00       	jmp    0x1400125c0
   14001113b:	e9 3e 42 00 00       	jmp    0x14001537e
   140011140:	e9 db 43 00 00       	jmp    0x140015520
   140011145:	e9 96 0a 00 00       	jmp    0x140011be0
   14001114a:	e9 c1 43 00 00       	jmp    0x140015510
   14001114f:	e9 1e 42 00 00       	jmp    0x140015372
   140011154:	e9 27 11 00 00       	jmp    0x140012280
   140011159:	e9 08 42 00 00       	jmp    0x140015366
   14001115e:	e9 11 43 00 00       	jmp    0x140015474
   140011163:	e9 98 1a 00 00       	jmp    0x140012c00
   140011168:	e9 e3 24 00 00       	jmp    0x140013650
   14001116d:	e9 dc 41 00 00       	jmp    0x14001534e
   140011172:	e9 79 1b 00 00       	jmp    0x140012cf0
   140011177:	e9 ec 42 00 00       	jmp    0x140015468
   14001117c:	e9 27 42 00 00       	jmp    0x1400153a8
   140011181:	e9 8a 25 00 00       	jmp    0x140013710
   140011186:	e9 2b 43 00 00       	jmp    0x1400154b6
   14001118b:	e9 e0 05 00 00       	jmp    0x140011770
   140011190:	e9 7b 06 00 00       	jmp    0x140011810
   140011195:	e9 b6 13 00 00       	jmp    0x140012550
   14001119a:	e9 21 1e 00 00       	jmp    0x140012fc0
   14001119f:	e9 fc 28 00 00       	jmp    0x140013aa0
   1400111a4:	e9 0b 42 00 00       	jmp    0x1400153b4
   1400111a9:	e9 e2 2e 00 00       	jmp    0x140014090
   1400111ae:	e9 3d 43 00 00       	jmp    0x1400154f0
   1400111b3:	e9 14 42 00 00       	jmp    0x1400153cc
   1400111b8:	e9 83 28 00 00       	jmp    0x140013a40
   1400111bd:	e9 2e 42 00 00       	jmp    0x1400153f0
   1400111c2:	e9 c9 41 00 00       	jmp    0x140015390
   1400111c7:	e9 44 31 00 00       	jmp    0x140014310
   1400111cc:	e9 bf 2f 00 00       	jmp    0x140014190
   1400111d1:	e9 aa 06 00 00       	jmp    0x140011880
   1400111d6:	e9 03 42 00 00       	jmp    0x1400153de
   1400111db:	e9 d0 2a 00 00       	jmp    0x140013cb0
   1400111e0:	e9 fb 2b 00 00       	jmp    0x140013de0
   1400111e5:	e9 86 23 00 00       	jmp    0x140013570
   1400111ea:	e9 f1 42 00 00       	jmp    0x1400154e0
   1400111ef:	e9 fc 42 00 00       	jmp    0x1400154f0
   1400111f4:	e9 d7 1c 00 00       	jmp    0x140012ed0
   1400111f9:	e9 52 2b 00 00       	jmp    0x140013d50
   1400111fe:	e9 e7 41 00 00       	jmp    0x1400153ea
   140011203:	e9 08 05 00 00       	jmp    0x140011710
   140011208:	e9 63 07 00 00       	jmp    0x140011970
   14001120d:	e9 5e 08 00 00       	jmp    0x140011a70
   140011212:	e9 1f 41 00 00       	jmp    0x140015336
   140011217:	e9 94 2f 00 00       	jmp    0x1400141b0
   14001121c:	e9 65 42 00 00       	jmp    0x140015486
   140011221:	e9 be 41 00 00       	jmp    0x1400153e4
   140011226:	e9 c5 2b 00 00       	jmp    0x140013df0
   14001122b:	e9 14 42 00 00       	jmp    0x140015444
   140011230:	e9 4b 22 00 00       	jmp    0x140013480
   140011235:	e9 e6 30 00 00       	jmp    0x140014320
   14001123a:	e9 93 41 00 00       	jmp    0x1400153d2
   14001123f:	e9 28 41 00 00       	jmp    0x14001536c
   140011244:	e9 27 31 00 00       	jmp    0x140014370
   140011249:	e9 60 41 00 00       	jmp    0x1400153ae
   14001124e:	e9 fd 30 00 00       	jmp    0x140014350
   140011253:	e9 88 42 00 00       	jmp    0x1400154e0
   140011258:	e9 53 2f 00 00       	jmp    0x1400141b0
   14001125d:	e9 0c 42 00 00       	jmp    0x14001546e
   140011262:	e9 59 2f 00 00       	jmp    0x1400141c0
   140011267:	e9 96 41 00 00       	jmp    0x140015402
   14001126c:	e9 df 41 00 00       	jmp    0x140015450
   140011271:	e9 46 42 00 00       	jmp    0x1400154bc
   140011276:	e9 25 11 00 00       	jmp    0x1400123a0
   14001127b:	e9 a0 2b 00 00       	jmp    0x140013e20
   140011280:	e9 db 25 00 00       	jmp    0x140013860
   140011285:	e9 66 0f 00 00       	jmp    0x1400121f0
   14001128a:	e9 8b 41 00 00       	jmp    0x14001541a
   14001128f:	e9 ec 29 00 00       	jmp    0x140013c80
   140011294:	e9 bd 41 00 00       	jmp    0x140015456
   140011299:	e9 62 40 00 00       	jmp    0x140015300
   14001129e:	e9 8d 40 00 00       	jmp    0x140015330
   1400112a3:	e9 68 42 00 00       	jmp    0x140015510
   1400112a8:	e9 b5 41 00 00       	jmp    0x140015462
   1400112ad:	e9 7a 41 00 00       	jmp    0x14001542c
   1400112b2:	e9 f9 41 00 00       	jmp    0x1400154b0
   1400112b7:	e9 dc 41 00 00       	jmp    0x140015498
   1400112bc:	e9 e1 40 00 00       	jmp    0x1400153a2
   1400112c1:	e9 3a 42 00 00       	jmp    0x140015500
   1400112c6:	e9 e5 0f 00 00       	jmp    0x1400122b0
   1400112cb:	e9 30 42 00 00       	jmp    0x140015500
   1400112d0:	e9 4b 42 00 00       	jmp    0x140015520
   1400112d5:	e9 56 2a 00 00       	jmp    0x140013d30
   1400112da:	e9 e1 40 00 00       	jmp    0x1400153c0
   1400112df:	e9 ec 29 00 00       	jmp    0x140013cd0
   1400112e4:	e9 d7 2d 00 00       	jmp    0x1400140c0
   1400112e9:	e9 bc 41 00 00       	jmp    0x1400154aa
   1400112ee:	e9 5d 26 00 00       	jmp    0x140013950
   1400112f3:	e9 a8 26 00 00       	jmp    0x1400139a0
   1400112f8:	e9 43 1a 00 00       	jmp    0x140012d40
   1400112fd:	e9 90 41 00 00       	jmp    0x140015492
   140011302:	e9 d9 3b 00 00       	jmp    0x140014ee0
   140011307:	e9 84 55 00 00       	jmp    0x140016890
   14001130c:	e9 9f 23 00 00       	jmp    0x1400136b0
   140011311:	e9 0a 04 00 00       	jmp    0x140011720
   140011316:	e9 f5 29 00 00       	jmp    0x140013d10
   14001131b:	e9 a0 19 00 00       	jmp    0x140012cc0
   140011320:	e9 cb 1b 00 00       	jmp    0x140012ef0
   140011325:	e9 e6 41 00 00       	jmp    0x140015510
   14001132a:	e9 93 41 00 00       	jmp    0x1400154c2
   14001132f:	e9 9c 28 00 00       	jmp    0x140013bd0
   140011334:	e9 87 06 00 00       	jmp    0x1400119c0
   140011339:	e9 f2 08 00 00       	jmp    0x140011c30
   14001133e:	e9 bd 41 00 00       	jmp    0x140015500
   140011343:	e9 88 0e 00 00       	jmp    0x1400121d0
   140011348:	e9 13 40 00 00       	jmp    0x140015360
   14001134d:	e9 aa 40 00 00       	jmp    0x1400153fc
   140011352:	e9 c9 40 00 00       	jmp    0x140015420
   140011357:	e9 54 19 00 00       	jmp    0x140012cb0
   14001135c:	e9 19 41 00 00       	jmp    0x14001547a
   140011361:	e9 12 40 00 00       	jmp    0x140015378
   140011366:	e9 f5 0e 00 00       	jmp    0x140012260
   14001136b:	e9 10 19 00 00       	jmp    0x140012c80
   140011370:	e9 2b 29 00 00       	jmp    0x140013ca0
   140011375:	e9 7c 40 00 00       	jmp    0x1400153f6
   14001137a:	e9 d1 2e 00 00       	jmp    0x140014250
   14001137f:	e9 8c 25 00 00       	jmp    0x140013910
   140011384:	e9 47 41 00 00       	jmp    0x1400154d0
   140011389:	cc                   	int3   
   14001138a:	cc                   	int3   
   14001138b:	cc                   	int3   
   14001138c:	cc                   	int3   
   14001138d:	cc                   	int3   
   14001138e:	cc                   	int3   
   14001138f:	cc                   	int3   
   140011390:	cc                   	int3   
   140011391:	cc                   	int3   
   140011392:	cc                   	int3   
   140011393:	cc                   	int3   
   140011394:	cc                   	int3   
   140011395:	cc                   	int3   
   140011396:	cc                   	int3   
   140011397:	cc                   	int3   
   140011398:	cc                   	int3   
   140011399:	cc                   	int3   
   14001139a:	cc                   	int3   
   14001139b:	cc                   	int3   
   14001139c:	cc                   	int3   
   14001139d:	cc                   	int3   
   14001139e:	cc                   	int3   
   14001139f:	cc                   	int3   
   1400113a0:	cc                   	int3   
   1400113a1:	cc                   	int3   
   1400113a2:	cc                   	int3   
   1400113a3:	cc                   	int3   
   1400113a4:	cc                   	int3   
   1400113a5:	cc                   	int3   
   1400113a6:	cc                   	int3   
   1400113a7:	cc                   	int3   
   1400113a8:	cc                   	int3   
   1400113a9:	cc                   	int3   
   1400113aa:	cc                   	int3   
   1400113ab:	cc                   	int3   
   1400113ac:	cc                   	int3   
   1400113ad:	cc                   	int3   
   1400113ae:	cc                   	int3   
   1400113af:	cc                   	int3   
   1400113b0:	cc                   	int3   
   1400113b1:	cc                   	int3   
   1400113b2:	cc                   	int3   
   1400113b3:	cc                   	int3   
   1400113b4:	cc                   	int3   
   1400113b5:	cc                   	int3   
   1400113b6:	cc                   	int3   
   1400113b7:	cc                   	int3   
   1400113b8:	cc                   	int3   
   1400113b9:	cc                   	int3   
   1400113ba:	cc                   	int3   
   1400113bb:	cc                   	int3   
   1400113bc:	cc                   	int3   
   1400113bd:	cc                   	int3   
   1400113be:	cc                   	int3   
   1400113bf:	cc                   	int3   
   1400113c0:	cc                   	int3   
   1400113c1:	cc                   	int3   
   1400113c2:	cc                   	int3   
   1400113c3:	cc                   	int3   
   1400113c4:	cc                   	int3   
   1400113c5:	cc                   	int3   
   1400113c6:	cc                   	int3   
   1400113c7:	cc                   	int3   
   1400113c8:	cc                   	int3   
   1400113c9:	cc                   	int3   
   1400113ca:	cc                   	int3   
   1400113cb:	cc                   	int3   
   1400113cc:	cc                   	int3   
   1400113cd:	cc                   	int3   
   1400113ce:	cc                   	int3   
   1400113cf:	cc                   	int3   
   1400113d0:	cc                   	int3   
   1400113d1:	cc                   	int3   
   1400113d2:	cc                   	int3   
   1400113d3:	cc                   	int3   
   1400113d4:	cc                   	int3   
   1400113d5:	cc                   	int3   
   1400113d6:	cc                   	int3   
   1400113d7:	cc                   	int3   
   1400113d8:	cc                   	int3   
   1400113d9:	cc                   	int3   
   1400113da:	cc                   	int3   
   1400113db:	cc                   	int3   
   1400113dc:	cc                   	int3   
   1400113dd:	cc                   	int3   
   1400113de:	cc                   	int3   
   1400113df:	cc                   	int3   
   1400113e0:	cc                   	int3   
   1400113e1:	cc                   	int3   
   1400113e2:	cc                   	int3   
   1400113e3:	cc                   	int3   
   1400113e4:	cc                   	int3   
   1400113e5:	cc                   	int3   
   1400113e6:	cc                   	int3   
   1400113e7:	cc                   	int3   
   1400113e8:	cc                   	int3   
   1400113e9:	cc                   	int3   
   1400113ea:	cc                   	int3   
   1400113eb:	cc                   	int3   
   1400113ec:	cc                   	int3   
   1400113ed:	cc                   	int3   
   1400113ee:	cc                   	int3   
   1400113ef:	cc                   	int3   
   1400113f0:	cc                   	int3   
   1400113f1:	cc                   	int3   
   1400113f2:	cc                   	int3   
   1400113f3:	cc                   	int3   
   1400113f4:	cc                   	int3   
   1400113f5:	cc                   	int3   
   1400113f6:	cc                   	int3   
   1400113f7:	cc                   	int3   
   1400113f8:	cc                   	int3   
   1400113f9:	cc                   	int3   
   1400113fa:	cc                   	int3   
   1400113fb:	cc                   	int3   
   1400113fc:	cc                   	int3   
   1400113fd:	cc                   	int3   
   1400113fe:	cc                   	int3   
   1400113ff:	cc                   	int3   
   140011400:	cc                   	int3   
   140011401:	cc                   	int3   
   140011402:	cc                   	int3   
   140011403:	cc                   	int3   
   140011404:	cc                   	int3   
   140011405:	cc                   	int3   
   140011406:	cc                   	int3   
   140011407:	cc                   	int3   
   140011408:	cc                   	int3   
   140011409:	cc                   	int3   
   14001140a:	cc                   	int3   
   14001140b:	cc                   	int3   
   14001140c:	cc                   	int3   
   14001140d:	cc                   	int3   
   14001140e:	cc                   	int3   
   14001140f:	cc                   	int3   
   140011410:	cc                   	int3   
   140011411:	cc                   	int3   
   140011412:	cc                   	int3   
   140011413:	cc                   	int3   
   140011414:	cc                   	int3   
   140011415:	cc                   	int3   
   140011416:	cc                   	int3   
   140011417:	cc                   	int3   
   140011418:	cc                   	int3   
   140011419:	cc                   	int3   
   14001141a:	cc                   	int3   
   14001141b:	cc                   	int3   
   14001141c:	cc                   	int3   
   14001141d:	cc                   	int3   
   14001141e:	cc                   	int3   
   14001141f:	cc                   	int3   
   140011420:	cc                   	int3   
   140011421:	cc                   	int3   
   140011422:	cc                   	int3   
   140011423:	cc                   	int3   
   140011424:	cc                   	int3   
   140011425:	cc                   	int3   
   140011426:	cc                   	int3   
   140011427:	cc                   	int3   
   140011428:	cc                   	int3   
   140011429:	cc                   	int3   
   14001142a:	cc                   	int3   
   14001142b:	cc                   	int3   
   14001142c:	cc                   	int3   
   14001142d:	cc                   	int3   
   14001142e:	cc                   	int3   
   14001142f:	cc                   	int3   
   140011430:	cc                   	int3   
   140011431:	cc                   	int3   
   140011432:	cc                   	int3   
   140011433:	cc                   	int3   
   140011434:	cc                   	int3   
   140011435:	cc                   	int3   
   140011436:	cc                   	int3   
   140011437:	cc                   	int3   
   140011438:	cc                   	int3   
   140011439:	cc                   	int3   
   14001143a:	cc                   	int3   
   14001143b:	cc                   	int3   
   14001143c:	cc                   	int3   
   14001143d:	cc                   	int3   
   14001143e:	cc                   	int3   
   14001143f:	cc                   	int3   
   140011440:	cc                   	int3   
   140011441:	cc                   	int3   
   140011442:	cc                   	int3   
   140011443:	cc                   	int3   
   140011444:	cc                   	int3   
   140011445:	cc                   	int3   
   140011446:	cc                   	int3   
   140011447:	cc                   	int3   
   140011448:	cc                   	int3   
   140011449:	cc                   	int3   
   14001144a:	cc                   	int3   
   14001144b:	cc                   	int3   
   14001144c:	cc                   	int3   
   14001144d:	cc                   	int3   
   14001144e:	cc                   	int3   
   14001144f:	cc                   	int3   
   140011450:	cc                   	int3   
   140011451:	cc                   	int3   
   140011452:	cc                   	int3   
   140011453:	cc                   	int3   
   140011454:	cc                   	int3   
   140011455:	cc                   	int3   
   140011456:	cc                   	int3   
   140011457:	cc                   	int3   
   140011458:	cc                   	int3   
   140011459:	cc                   	int3   
   14001145a:	cc                   	int3   
   14001145b:	cc                   	int3   
   14001145c:	cc                   	int3   
   14001145d:	cc                   	int3   
   14001145e:	cc                   	int3   
   14001145f:	cc                   	int3   
   140011460:	cc                   	int3   
   140011461:	cc                   	int3   
   140011462:	cc                   	int3   
   140011463:	cc                   	int3   
   140011464:	cc                   	int3   
   140011465:	cc                   	int3   
   140011466:	cc                   	int3   
   140011467:	cc                   	int3   
   140011468:	cc                   	int3   
   140011469:	cc                   	int3   
   14001146a:	cc                   	int3   
   14001146b:	cc                   	int3   
   14001146c:	cc                   	int3   
   14001146d:	cc                   	int3   
   14001146e:	cc                   	int3   
   14001146f:	cc                   	int3   
   140011470:	cc                   	int3   
   140011471:	cc                   	int3   
   140011472:	cc                   	int3   
   140011473:	cc                   	int3   
   140011474:	cc                   	int3   
   140011475:	cc                   	int3   
   140011476:	cc                   	int3   
   140011477:	cc                   	int3   
   140011478:	cc                   	int3   
   140011479:	cc                   	int3   
   14001147a:	cc                   	int3   
   14001147b:	cc                   	int3   
   14001147c:	cc                   	int3   
   14001147d:	cc                   	int3   
   14001147e:	cc                   	int3   
   14001147f:	cc                   	int3   
   140011480:	cc                   	int3   
   140011481:	cc                   	int3   
   140011482:	cc                   	int3   
   140011483:	cc                   	int3   
   140011484:	cc                   	int3   
   140011485:	cc                   	int3   
   140011486:	cc                   	int3   
   140011487:	cc                   	int3   
   140011488:	cc                   	int3   
   140011489:	cc                   	int3   
   14001148a:	cc                   	int3   
   14001148b:	cc                   	int3   
   14001148c:	cc                   	int3   
   14001148d:	cc                   	int3   
   14001148e:	cc                   	int3   
   14001148f:	cc                   	int3   
   140011490:	cc                   	int3   
   140011491:	cc                   	int3   
   140011492:	cc                   	int3   
   140011493:	cc                   	int3   
   140011494:	cc                   	int3   
   140011495:	cc                   	int3   
   140011496:	cc                   	int3   
   140011497:	cc                   	int3   
   140011498:	cc                   	int3   
   140011499:	cc                   	int3   
   14001149a:	cc                   	int3   
   14001149b:	cc                   	int3   
   14001149c:	cc                   	int3   
   14001149d:	cc                   	int3   
   14001149e:	cc                   	int3   
   14001149f:	cc                   	int3   
   1400114a0:	cc                   	int3   
   1400114a1:	cc                   	int3   
   1400114a2:	cc                   	int3   
   1400114a3:	cc                   	int3   
   1400114a4:	cc                   	int3   
   1400114a5:	cc                   	int3   
   1400114a6:	cc                   	int3   
   1400114a7:	cc                   	int3   
   1400114a8:	cc                   	int3   
   1400114a9:	cc                   	int3   
   1400114aa:	cc                   	int3   
   1400114ab:	cc                   	int3   
   1400114ac:	cc                   	int3   
   1400114ad:	cc                   	int3   
   1400114ae:	cc                   	int3   
   1400114af:	cc                   	int3   
   1400114b0:	cc                   	int3   
   1400114b1:	cc                   	int3   
   1400114b2:	cc                   	int3   
   1400114b3:	cc                   	int3   
   1400114b4:	cc                   	int3   
   1400114b5:	cc                   	int3   
   1400114b6:	cc                   	int3   
   1400114b7:	cc                   	int3   
   1400114b8:	cc                   	int3   
   1400114b9:	cc                   	int3   
   1400114ba:	cc                   	int3   
   1400114bb:	cc                   	int3   
   1400114bc:	cc                   	int3   
   1400114bd:	cc                   	int3   
   1400114be:	cc                   	int3   
   1400114bf:	cc                   	int3   
   1400114c0:	cc                   	int3   
   1400114c1:	cc                   	int3   
   1400114c2:	cc                   	int3   
   1400114c3:	cc                   	int3   
   1400114c4:	cc                   	int3   
   1400114c5:	cc                   	int3   
   1400114c6:	cc                   	int3   
   1400114c7:	cc                   	int3   
   1400114c8:	cc                   	int3   
   1400114c9:	cc                   	int3   
   1400114ca:	cc                   	int3   
   1400114cb:	cc                   	int3   
   1400114cc:	cc                   	int3   
   1400114cd:	cc                   	int3   
   1400114ce:	cc                   	int3   
   1400114cf:	cc                   	int3   
   1400114d0:	cc                   	int3   
   1400114d1:	cc                   	int3   
   1400114d2:	cc                   	int3   
   1400114d3:	cc                   	int3   
   1400114d4:	cc                   	int3   
   1400114d5:	cc                   	int3   
   1400114d6:	cc                   	int3   
   1400114d7:	cc                   	int3   
   1400114d8:	cc                   	int3   
   1400114d9:	cc                   	int3   
   1400114da:	cc                   	int3   
   1400114db:	cc                   	int3   
   1400114dc:	cc                   	int3   
   1400114dd:	cc                   	int3   
   1400114de:	cc                   	int3   
   1400114df:	cc                   	int3   
   1400114e0:	cc                   	int3   
   1400114e1:	cc                   	int3   
   1400114e2:	cc                   	int3   
   1400114e3:	cc                   	int3   
   1400114e4:	cc                   	int3   
   1400114e5:	cc                   	int3   
   1400114e6:	cc                   	int3   
   1400114e7:	cc                   	int3   
   1400114e8:	cc                   	int3   
   1400114e9:	cc                   	int3   
   1400114ea:	cc                   	int3   
   1400114eb:	cc                   	int3   
   1400114ec:	cc                   	int3   
   1400114ed:	cc                   	int3   
   1400114ee:	cc                   	int3   
   1400114ef:	cc                   	int3   
   1400114f0:	cc                   	int3   
   1400114f1:	cc                   	int3   
   1400114f2:	cc                   	int3   
   1400114f3:	cc                   	int3   
   1400114f4:	cc                   	int3   
   1400114f5:	cc                   	int3   
   1400114f6:	cc                   	int3   
   1400114f7:	cc                   	int3   
   1400114f8:	cc                   	int3   
   1400114f9:	cc                   	int3   
   1400114fa:	cc                   	int3   
   1400114fb:	cc                   	int3   
   1400114fc:	cc                   	int3   
   1400114fd:	cc                   	int3   
   1400114fe:	cc                   	int3   
   1400114ff:	cc                   	int3   
   140011500:	cc                   	int3   
   140011501:	cc                   	int3   
   140011502:	cc                   	int3   
   140011503:	cc                   	int3   
   140011504:	cc                   	int3   
   140011505:	cc                   	int3   
   140011506:	cc                   	int3   
   140011507:	cc                   	int3   
   140011508:	cc                   	int3   
   140011509:	cc                   	int3   
   14001150a:	cc                   	int3   
   14001150b:	cc                   	int3   
   14001150c:	cc                   	int3   
   14001150d:	cc                   	int3   
   14001150e:	cc                   	int3   
   14001150f:	cc                   	int3   
   140011510:	cc                   	int3   
   140011511:	cc                   	int3   
   140011512:	cc                   	int3   
   140011513:	cc                   	int3   
   140011514:	cc                   	int3   
   140011515:	cc                   	int3   
   140011516:	cc                   	int3   
   140011517:	cc                   	int3   
   140011518:	cc                   	int3   
   140011519:	cc                   	int3   
   14001151a:	cc                   	int3   
   14001151b:	cc                   	int3   
   14001151c:	cc                   	int3   
   14001151d:	cc                   	int3   
   14001151e:	cc                   	int3   
   14001151f:	cc                   	int3   
   140011520:	cc                   	int3   
   140011521:	cc                   	int3   
   140011522:	cc                   	int3   
   140011523:	cc                   	int3   
   140011524:	cc                   	int3   
   140011525:	cc                   	int3   
   140011526:	cc                   	int3   
   140011527:	cc                   	int3   
   140011528:	cc                   	int3   
   140011529:	cc                   	int3   
   14001152a:	cc                   	int3   
   14001152b:	cc                   	int3   
   14001152c:	cc                   	int3   
   14001152d:	cc                   	int3   
   14001152e:	cc                   	int3   
   14001152f:	cc                   	int3   
   140011530:	cc                   	int3   
   140011531:	cc                   	int3   
   140011532:	cc                   	int3   
   140011533:	cc                   	int3   
   140011534:	cc                   	int3   
   140011535:	cc                   	int3   
   140011536:	cc                   	int3   
   140011537:	cc                   	int3   
   140011538:	cc                   	int3   
   140011539:	cc                   	int3   
   14001153a:	cc                   	int3   
   14001153b:	cc                   	int3   
   14001153c:	cc                   	int3   
   14001153d:	cc                   	int3   
   14001153e:	cc                   	int3   
   14001153f:	cc                   	int3   
   140011540:	cc                   	int3   
   140011541:	cc                   	int3   
   140011542:	cc                   	int3   
   140011543:	cc                   	int3   
   140011544:	cc                   	int3   
   140011545:	cc                   	int3   
   140011546:	cc                   	int3   
   140011547:	cc                   	int3   
   140011548:	cc                   	int3   
   140011549:	cc                   	int3   
   14001154a:	cc                   	int3   
   14001154b:	cc                   	int3   
   14001154c:	cc                   	int3   
   14001154d:	cc                   	int3   
   14001154e:	cc                   	int3   
   14001154f:	cc                   	int3   
   140011550:	cc                   	int3   
   140011551:	cc                   	int3   
   140011552:	cc                   	int3   
   140011553:	cc                   	int3   
   140011554:	cc                   	int3   
   140011555:	cc                   	int3   
   140011556:	cc                   	int3   
   140011557:	cc                   	int3   
   140011558:	cc                   	int3   
   140011559:	cc                   	int3   
   14001155a:	cc                   	int3   
   14001155b:	cc                   	int3   
   14001155c:	cc                   	int3   
   14001155d:	cc                   	int3   
   14001155e:	cc                   	int3   
   14001155f:	cc                   	int3   
   140011560:	cc                   	int3   
   140011561:	cc                   	int3   
   140011562:	cc                   	int3   
   140011563:	cc                   	int3   
   140011564:	cc                   	int3   
   140011565:	cc                   	int3   
   140011566:	cc                   	int3   
   140011567:	cc                   	int3   
   140011568:	cc                   	int3   
   140011569:	cc                   	int3   
   14001156a:	cc                   	int3   
   14001156b:	cc                   	int3   
   14001156c:	cc                   	int3   
   14001156d:	cc                   	int3   
   14001156e:	cc                   	int3   
   14001156f:	cc                   	int3   
   140011570:	cc                   	int3   
   140011571:	cc                   	int3   
   140011572:	cc                   	int3   
   140011573:	cc                   	int3   
   140011574:	cc                   	int3   
   140011575:	cc                   	int3   
   140011576:	cc                   	int3   
   140011577:	cc                   	int3   
   140011578:	cc                   	int3   
   140011579:	cc                   	int3   
   14001157a:	cc                   	int3   
   14001157b:	cc                   	int3   
   14001157c:	cc                   	int3   
   14001157d:	cc                   	int3   
   14001157e:	cc                   	int3   
   14001157f:	cc                   	int3   
   140011580:	cc                   	int3   
   140011581:	cc                   	int3   
   140011582:	cc                   	int3   
   140011583:	cc                   	int3   
   140011584:	cc                   	int3   
   140011585:	cc                   	int3   
   140011586:	cc                   	int3   
   140011587:	cc                   	int3   
   140011588:	cc                   	int3   
   140011589:	cc                   	int3   
   14001158a:	cc                   	int3   
   14001158b:	cc                   	int3   
   14001158c:	cc                   	int3   
   14001158d:	cc                   	int3   
   14001158e:	cc                   	int3   
   14001158f:	cc                   	int3   
   140011590:	cc                   	int3   
   140011591:	cc                   	int3   
   140011592:	cc                   	int3   
   140011593:	cc                   	int3   
   140011594:	cc                   	int3   
   140011595:	cc                   	int3   
   140011596:	cc                   	int3   
   140011597:	cc                   	int3   
   140011598:	cc                   	int3   
   140011599:	cc                   	int3   
   14001159a:	cc                   	int3   
   14001159b:	cc                   	int3   
   14001159c:	cc                   	int3   
   14001159d:	cc                   	int3   
   14001159e:	cc                   	int3   
   14001159f:	cc                   	int3   
   1400115a0:	cc                   	int3   
   1400115a1:	cc                   	int3   
   1400115a2:	cc                   	int3   
   1400115a3:	cc                   	int3   
   1400115a4:	cc                   	int3   
   1400115a5:	cc                   	int3   
   1400115a6:	cc                   	int3   
   1400115a7:	cc                   	int3   
   1400115a8:	cc                   	int3   
   1400115a9:	cc                   	int3   
   1400115aa:	cc                   	int3   
   1400115ab:	cc                   	int3   
   1400115ac:	cc                   	int3   
   1400115ad:	cc                   	int3   
   1400115ae:	cc                   	int3   
   1400115af:	cc                   	int3   
   1400115b0:	cc                   	int3   
   1400115b1:	cc                   	int3   
   1400115b2:	cc                   	int3   
   1400115b3:	cc                   	int3   
   1400115b4:	cc                   	int3   
   1400115b5:	cc                   	int3   
   1400115b6:	cc                   	int3   
   1400115b7:	cc                   	int3   
   1400115b8:	cc                   	int3   
   1400115b9:	cc                   	int3   
   1400115ba:	cc                   	int3   
   1400115bb:	cc                   	int3   
   1400115bc:	cc                   	int3   
   1400115bd:	cc                   	int3   
   1400115be:	cc                   	int3   
   1400115bf:	cc                   	int3   
   1400115c0:	cc                   	int3   
   1400115c1:	cc                   	int3   
   1400115c2:	cc                   	int3   
   1400115c3:	cc                   	int3   
   1400115c4:	cc                   	int3   
   1400115c5:	cc                   	int3   
   1400115c6:	cc                   	int3   
   1400115c7:	cc                   	int3   
   1400115c8:	cc                   	int3   
   1400115c9:	cc                   	int3   
   1400115ca:	cc                   	int3   
   1400115cb:	cc                   	int3   
   1400115cc:	cc                   	int3   
   1400115cd:	cc                   	int3   
   1400115ce:	cc                   	int3   
   1400115cf:	cc                   	int3   
   1400115d0:	cc                   	int3   
   1400115d1:	cc                   	int3   
   1400115d2:	cc                   	int3   
   1400115d3:	cc                   	int3   
   1400115d4:	cc                   	int3   
   1400115d5:	cc                   	int3   
   1400115d6:	cc                   	int3   
   1400115d7:	cc                   	int3   
   1400115d8:	cc                   	int3   
   1400115d9:	cc                   	int3   
   1400115da:	cc                   	int3   
   1400115db:	cc                   	int3   
   1400115dc:	cc                   	int3   
   1400115dd:	cc                   	int3   
   1400115de:	cc                   	int3   
   1400115df:	cc                   	int3   
   1400115e0:	cc                   	int3   
   1400115e1:	cc                   	int3   
   1400115e2:	cc                   	int3   
   1400115e3:	cc                   	int3   
   1400115e4:	cc                   	int3   
   1400115e5:	cc                   	int3   
   1400115e6:	cc                   	int3   
   1400115e7:	cc                   	int3   
   1400115e8:	cc                   	int3   
   1400115e9:	cc                   	int3   
   1400115ea:	cc                   	int3   
   1400115eb:	cc                   	int3   
   1400115ec:	cc                   	int3   
   1400115ed:	cc                   	int3   
   1400115ee:	cc                   	int3   
   1400115ef:	cc                   	int3   
   1400115f0:	cc                   	int3   
   1400115f1:	cc                   	int3   
   1400115f2:	cc                   	int3   
   1400115f3:	cc                   	int3   
   1400115f4:	cc                   	int3   
   1400115f5:	cc                   	int3   
   1400115f6:	cc                   	int3   
   1400115f7:	cc                   	int3   
   1400115f8:	cc                   	int3   
   1400115f9:	cc                   	int3   
   1400115fa:	cc                   	int3   
   1400115fb:	cc                   	int3   
   1400115fc:	cc                   	int3   
   1400115fd:	cc                   	int3   
   1400115fe:	cc                   	int3   
   1400115ff:	cc                   	int3   
   140011600:	cc                   	int3   
   140011601:	cc                   	int3   
   140011602:	cc                   	int3   
   140011603:	cc                   	int3   
   140011604:	cc                   	int3   
   140011605:	cc                   	int3   
   140011606:	cc                   	int3   
   140011607:	cc                   	int3   
   140011608:	cc                   	int3   
   140011609:	cc                   	int3   
   14001160a:	cc                   	int3   
   14001160b:	cc                   	int3   
   14001160c:	cc                   	int3   
   14001160d:	cc                   	int3   
   14001160e:	cc                   	int3   
   14001160f:	cc                   	int3   
   140011610:	cc                   	int3   
   140011611:	cc                   	int3   
   140011612:	cc                   	int3   
   140011613:	cc                   	int3   
   140011614:	cc                   	int3   
   140011615:	cc                   	int3   
   140011616:	cc                   	int3   
   140011617:	cc                   	int3   
   140011618:	cc                   	int3   
   140011619:	cc                   	int3   
   14001161a:	cc                   	int3   
   14001161b:	cc                   	int3   
   14001161c:	cc                   	int3   
   14001161d:	cc                   	int3   
   14001161e:	cc                   	int3   
   14001161f:	cc                   	int3   
   140011620:	cc                   	int3   
   140011621:	cc                   	int3   
   140011622:	cc                   	int3   
   140011623:	cc                   	int3   
   140011624:	cc                   	int3   
   140011625:	cc                   	int3   
   140011626:	cc                   	int3   
   140011627:	cc                   	int3   
   140011628:	cc                   	int3   
   140011629:	cc                   	int3   
   14001162a:	cc                   	int3   
   14001162b:	cc                   	int3   
   14001162c:	cc                   	int3   
   14001162d:	cc                   	int3   
   14001162e:	cc                   	int3   
   14001162f:	cc                   	int3   
   140011630:	cc                   	int3   
   140011631:	cc                   	int3   
   140011632:	cc                   	int3   
   140011633:	cc                   	int3   
   140011634:	cc                   	int3   
   140011635:	cc                   	int3   
   140011636:	cc                   	int3   
   140011637:	cc                   	int3   
   140011638:	cc                   	int3   
   140011639:	cc                   	int3   
   14001163a:	cc                   	int3   
   14001163b:	cc                   	int3   
   14001163c:	cc                   	int3   
   14001163d:	cc                   	int3   
   14001163e:	cc                   	int3   
   14001163f:	cc                   	int3   
   140011640:	cc                   	int3   
   140011641:	cc                   	int3   
   140011642:	cc                   	int3   
   140011643:	cc                   	int3   
   140011644:	cc                   	int3   
   140011645:	cc                   	int3   
   140011646:	cc                   	int3   
   140011647:	cc                   	int3   
   140011648:	cc                   	int3   
   140011649:	cc                   	int3   
   14001164a:	cc                   	int3   
   14001164b:	cc                   	int3   
   14001164c:	cc                   	int3   
   14001164d:	cc                   	int3   
   14001164e:	cc                   	int3   
   14001164f:	cc                   	int3   
   140011650:	cc                   	int3   
   140011651:	cc                   	int3   
   140011652:	cc                   	int3   
   140011653:	cc                   	int3   
   140011654:	cc                   	int3   
   140011655:	cc                   	int3   
   140011656:	cc                   	int3   
   140011657:	cc                   	int3   
   140011658:	cc                   	int3   
   140011659:	cc                   	int3   
   14001165a:	cc                   	int3   
   14001165b:	cc                   	int3   
   14001165c:	cc                   	int3   
   14001165d:	cc                   	int3   
   14001165e:	cc                   	int3   
   14001165f:	cc                   	int3   
   140011660:	cc                   	int3   
   140011661:	cc                   	int3   
   140011662:	cc                   	int3   
   140011663:	cc                   	int3   
   140011664:	cc                   	int3   
   140011665:	cc                   	int3   
   140011666:	cc                   	int3   
   140011667:	cc                   	int3   
   140011668:	cc                   	int3   
   140011669:	cc                   	int3   
   14001166a:	cc                   	int3   
   14001166b:	cc                   	int3   
   14001166c:	cc                   	int3   
   14001166d:	cc                   	int3   
   14001166e:	cc                   	int3   
   14001166f:	cc                   	int3   
   140011670:	cc                   	int3   
   140011671:	cc                   	int3   
   140011672:	cc                   	int3   
   140011673:	cc                   	int3   
   140011674:	cc                   	int3   
   140011675:	cc                   	int3   
   140011676:	cc                   	int3   
   140011677:	cc                   	int3   
   140011678:	cc                   	int3   
   140011679:	cc                   	int3   
   14001167a:	cc                   	int3   
   14001167b:	cc                   	int3   
   14001167c:	cc                   	int3   
   14001167d:	cc                   	int3   
   14001167e:	cc                   	int3   
   14001167f:	cc                   	int3   
   140011680:	cc                   	int3   
   140011681:	cc                   	int3   
   140011682:	cc                   	int3   
   140011683:	cc                   	int3   
   140011684:	cc                   	int3   
   140011685:	cc                   	int3   
   140011686:	cc                   	int3   
   140011687:	cc                   	int3   
   140011688:	cc                   	int3   
   140011689:	cc                   	int3   
   14001168a:	cc                   	int3   
   14001168b:	cc                   	int3   
   14001168c:	cc                   	int3   
   14001168d:	cc                   	int3   
   14001168e:	cc                   	int3   
   14001168f:	cc                   	int3   
   140011690:	cc                   	int3   
   140011691:	cc                   	int3   
   140011692:	cc                   	int3   
   140011693:	cc                   	int3   
   140011694:	cc                   	int3   
   140011695:	cc                   	int3   
   140011696:	cc                   	int3   
   140011697:	cc                   	int3   
   140011698:	cc                   	int3   
   140011699:	cc                   	int3   
   14001169a:	cc                   	int3   
   14001169b:	cc                   	int3   
   14001169c:	cc                   	int3   
   14001169d:	cc                   	int3   
   14001169e:	cc                   	int3   
   14001169f:	cc                   	int3   
   1400116a0:	cc                   	int3   
   1400116a1:	cc                   	int3   
   1400116a2:	cc                   	int3   
   1400116a3:	cc                   	int3   
   1400116a4:	cc                   	int3   
   1400116a5:	cc                   	int3   
   1400116a6:	cc                   	int3   
   1400116a7:	cc                   	int3   
   1400116a8:	cc                   	int3   
   1400116a9:	cc                   	int3   
   1400116aa:	cc                   	int3   
   1400116ab:	cc                   	int3   
   1400116ac:	cc                   	int3   
   1400116ad:	cc                   	int3   
   1400116ae:	cc                   	int3   
   1400116af:	cc                   	int3   
   1400116b0:	cc                   	int3   
   1400116b1:	cc                   	int3   
   1400116b2:	cc                   	int3   
   1400116b3:	cc                   	int3   
   1400116b4:	cc                   	int3   
   1400116b5:	cc                   	int3   
   1400116b6:	cc                   	int3   
   1400116b7:	cc                   	int3   
   1400116b8:	cc                   	int3   
   1400116b9:	cc                   	int3   
   1400116ba:	cc                   	int3   
   1400116bb:	cc                   	int3   
   1400116bc:	cc                   	int3   
   1400116bd:	cc                   	int3   
   1400116be:	cc                   	int3   
   1400116bf:	cc                   	int3   
   1400116c0:	cc                   	int3   
   1400116c1:	cc                   	int3   
   1400116c2:	cc                   	int3   
   1400116c3:	cc                   	int3   
   1400116c4:	cc                   	int3   
   1400116c5:	cc                   	int3   
   1400116c6:	cc                   	int3   
   1400116c7:	cc                   	int3   
   1400116c8:	cc                   	int3   
   1400116c9:	cc                   	int3   
   1400116ca:	cc                   	int3   
   1400116cb:	cc                   	int3   
   1400116cc:	cc                   	int3   
   1400116cd:	cc                   	int3   
   1400116ce:	cc                   	int3   
   1400116cf:	cc                   	int3   
   1400116d0:	cc                   	int3   
   1400116d1:	cc                   	int3   
   1400116d2:	cc                   	int3   
   1400116d3:	cc                   	int3   
   1400116d4:	cc                   	int3   
   1400116d5:	cc                   	int3   
   1400116d6:	cc                   	int3   
   1400116d7:	cc                   	int3   
   1400116d8:	cc                   	int3   
   1400116d9:	cc                   	int3   
   1400116da:	cc                   	int3   
   1400116db:	cc                   	int3   
   1400116dc:	cc                   	int3   
   1400116dd:	cc                   	int3   
   1400116de:	cc                   	int3   
   1400116df:	cc                   	int3   
   1400116e0:	cc                   	int3   
   1400116e1:	cc                   	int3   
   1400116e2:	cc                   	int3   
   1400116e3:	cc                   	int3   
   1400116e4:	cc                   	int3   
   1400116e5:	cc                   	int3   
   1400116e6:	cc                   	int3   
   1400116e7:	cc                   	int3   
   1400116e8:	cc                   	int3   
   1400116e9:	cc                   	int3   
   1400116ea:	cc                   	int3   
   1400116eb:	cc                   	int3   
   1400116ec:	cc                   	int3   
   1400116ed:	cc                   	int3   
   1400116ee:	cc                   	int3   
   1400116ef:	cc                   	int3   
   1400116f0:	cc                   	int3   
   1400116f1:	cc                   	int3   
   1400116f2:	cc                   	int3   
   1400116f3:	cc                   	int3   
   1400116f4:	cc                   	int3   
   1400116f5:	cc                   	int3   
   1400116f6:	cc                   	int3   
   1400116f7:	cc                   	int3   
   1400116f8:	cc                   	int3   
   1400116f9:	cc                   	int3   
   1400116fa:	cc                   	int3   
   1400116fb:	cc                   	int3   
   1400116fc:	cc                   	int3   
   1400116fd:	cc                   	int3   
   1400116fe:	cc                   	int3   
   1400116ff:	cc                   	int3   
   140011700:	cc                   	int3   
   140011701:	cc                   	int3   
   140011702:	cc                   	int3   
   140011703:	cc                   	int3   
   140011704:	cc                   	int3   
   140011705:	cc                   	int3   
   140011706:	cc                   	int3   
   140011707:	cc                   	int3   
   140011708:	cc                   	int3   
   140011709:	cc                   	int3   
   14001170a:	cc                   	int3   
   14001170b:	cc                   	int3   
   14001170c:	cc                   	int3   
   14001170d:	cc                   	int3   
   14001170e:	cc                   	int3   
   14001170f:	cc                   	int3   
   140011710:	c2 00 00             	ret    0x0
   140011713:	cc                   	int3   
   140011714:	cc                   	int3   
   140011715:	cc                   	int3   
   140011716:	cc                   	int3   
   140011717:	cc                   	int3   
   140011718:	cc                   	int3   
   140011719:	cc                   	int3   
   14001171a:	cc                   	int3   
   14001171b:	cc                   	int3   
   14001171c:	cc                   	int3   
   14001171d:	cc                   	int3   
   14001171e:	cc                   	int3   
   14001171f:	cc                   	int3   
   140011720:	40 55                	rex push rbp
   140011722:	57                   	push   rdi
   140011723:	48 81 ec e8 00 00 00 	sub    rsp,0xe8
   14001172a:	48 8d 6c 24 20       	lea    rbp,[rsp+0x20]
   14001172f:	48 8b fc             	mov    rdi,rsp
   140011732:	b9 3a 00 00 00       	mov    ecx,0x3a
   140011737:	b8 cc cc cc cc       	mov    eax,0xcccccccc
   14001173c:	f3 ab                	rep stos DWORD PTR es:[rdi],eax
   14001173e:	48 8d 0d bb f8 00 00 	lea    rcx,[rip+0xf8bb]        # 0x140021000
   140011745:	e8 38 f9 ff ff       	call   0x140011082
   14001174a:	48 8d 05 67 b1 00 00 	lea    rax,[rip+0xb167]        # 0x14001c8b8
   140011751:	48 8d a5 c8 00 00 00 	lea    rsp,[rbp+0xc8]
   140011758:	5f                   	pop    rdi
   140011759:	5d                   	pop    rbp
   14001175a:	c3                   	ret    
   14001175b:	cc                   	int3   
   14001175c:	cc                   	int3   
   14001175d:	cc                   	int3   
   14001175e:	cc                   	int3   
   14001175f:	cc                   	int3   
   140011760:	cc                   	int3   
   140011761:	cc                   	int3   
   140011762:	cc                   	int3   
   140011763:	cc                   	int3   
   140011764:	cc                   	int3   
   140011765:	cc                   	int3   
   140011766:	cc                   	int3   
   140011767:	cc                   	int3   
   140011768:	cc                   	int3   
   140011769:	cc                   	int3   
   14001176a:	cc                   	int3   
   14001176b:	cc                   	int3   
   14001176c:	cc                   	int3   
   14001176d:	cc                   	int3   
   14001176e:	cc                   	int3   
   14001176f:	cc                   	int3   
   140011770:	4c 89 4c 24 20       	mov    QWORD PTR [rsp+0x20],r9
   140011775:	4c 89 44 24 18       	mov    QWORD PTR [rsp+0x18],r8
   14001177a:	48 89 54 24 10       	mov    QWORD PTR [rsp+0x10],rdx
   14001177f:	48 89 4c 24 08       	mov    QWORD PTR [rsp+0x8],rcx
   140011784:	55                   	push   rbp
   140011785:	57                   	push   rdi
   140011786:	48 81 ec f8 00 00 00 	sub    rsp,0xf8
   14001178d:	48 8d 6c 24 30       	lea    rbp,[rsp+0x30]
   140011792:	48 8b fc             	mov    rdi,rsp
   140011795:	b9 3e 00 00 00       	mov    ecx,0x3e
   14001179a:	b8 cc cc cc cc       	mov    eax,0xcccccccc
   14001179f:	f3 ab                	rep stos DWORD PTR es:[rdi],eax
   1400117a1:	48 8b 8c 24 18 01 00 	mov    rcx,QWORD PTR [rsp+0x118]
   1400117a8:	00 
   1400117a9:	48 8d 0d 52 f8 00 00 	lea    rcx,[rip+0xf852]        # 0x140021002
   1400117b0:	e8 cd f8 ff ff       	call   0x140011082
   1400117b5:	e8 57 fb ff ff       	call   0x140011311
   1400117ba:	48 8b 8d f8 00 00 00 	mov    rcx,QWORD PTR [rbp+0xf8]
   1400117c1:	48 89 4c 24 20       	mov    QWORD PTR [rsp+0x20],rcx
   1400117c6:	4c 8b 8d f0 00 00 00 	mov    r9,QWORD PTR [rbp+0xf0]
   1400117cd:	4c 8b 85 e8 00 00 00 	mov    r8,QWORD PTR [rbp+0xe8]
   1400117d4:	48 8b 95 e0 00 00 00 	mov    rdx,QWORD PTR [rbp+0xe0]
   1400117db:	48 8b 08             	mov    rcx,QWORD PTR [rax]
   1400117de:	ff 15 04 eb 00 00    	call   QWORD PTR [rip+0xeb04]        # 0x1400202e8
   1400117e4:	48 8d a5 c8 00 00 00 	lea    rsp,[rbp+0xc8]
   1400117eb:	5f                   	pop    rdi
   1400117ec:	5d                   	pop    rbp
   1400117ed:	c3                   	ret    
   1400117ee:	cc                   	int3   
   1400117ef:	cc                   	int3   
   1400117f0:	cc                   	int3   
   1400117f1:	cc                   	int3   
   1400117f2:	cc                   	int3   
   1400117f3:	cc                   	int3   
   1400117f4:	cc                   	int3   
   1400117f5:	cc                   	int3   
   1400117f6:	cc                   	int3   
   1400117f7:	cc                   	int3   
   1400117f8:	cc                   	int3   
   1400117f9:	cc                   	int3   
   1400117fa:	cc                   	int3   
   1400117fb:	cc                   	int3   
   1400117fc:	cc                   	int3   
   1400117fd:	cc                   	int3   
   1400117fe:	cc                   	int3   
   1400117ff:	cc                   	int3   
   140011800:	cc                   	int3   
   140011801:	cc                   	int3   
   140011802:	cc                   	int3   
   140011803:	cc                   	int3   
   140011804:	cc                   	int3   
   140011805:	cc                   	int3   
   140011806:	cc                   	int3   
   140011807:	cc                   	int3   
   140011808:	cc                   	int3   
   140011809:	cc                   	int3   
   14001180a:	cc                   	int3   
   14001180b:	cc                   	int3   
   14001180c:	cc                   	int3   
   14001180d:	cc                   	int3   
   14001180e:	cc                   	int3   
   14001180f:	cc                   	int3   
   140011810:	48 89 54 24 10       	mov    QWORD PTR [rsp+0x10],rdx
   140011815:	89 4c 24 08          	mov    DWORD PTR [rsp+0x8],ecx
   140011819:	55                   	push   rbp
   14001181a:	57                   	push   rdi
   14001181b:	48 81 ec e8 00 00 00 	sub    rsp,0xe8
   140011822:	48 8d 6c 24 20       	lea    rbp,[rsp+0x20]
   140011827:	48 8b fc             	mov    rdi,rsp
   14001182a:	b9 3a 00 00 00       	mov    ecx,0x3a
   14001182f:	b8 cc cc cc cc       	mov    eax,0xcccccccc
   140011834:	f3 ab                	rep stos DWORD PTR es:[rdi],eax
   140011836:	8b 8c 24 08 01 00 00 	mov    ecx,DWORD PTR [rsp+0x108]
   14001183d:	48 8d 0d bf f7 00 00 	lea    rcx,[rip+0xf7bf]        # 0x140021003
   140011844:	e8 39 f8 ff ff       	call   0x140011082
   140011849:	48 8d 15 d8 83 00 00 	lea    rdx,[rip+0x83d8]        # 0x140019c28
   140011850:	48 8d 0d e5 83 00 00 	lea    rcx,[rip+0x83e5]        # 0x140019c3c
   140011857:	e8 75 f9 ff ff       	call   0x1400111d1
   14001185c:	33 c0                	xor    eax,eax
   14001185e:	48 8d a5 c8 00 00 00 	lea    rsp,[rbp+0xc8]
   140011865:	5f                   	pop    rdi
   140011866:	5d                   	pop    rbp
   140011867:	c3                   	ret    
   140011868:	cc                   	int3   
   140011869:	cc                   	int3   
   14001186a:	cc                   	int3   
   14001186b:	cc                   	int3   
   14001186c:	cc                   	int3   
   14001186d:	cc                   	int3   
   14001186e:	cc                   	int3   
   14001186f:	cc                   	int3   
   140011870:	cc                   	int3   
   140011871:	cc                   	int3   
   140011872:	cc                   	int3   
   140011873:	cc                   	int3   
   140011874:	cc                   	int3   
   140011875:	cc                   	int3   
   140011876:	cc                   	int3   
   140011877:	cc                   	int3   
   140011878:	cc                   	int3   
   140011879:	cc                   	int3   
   14001187a:	cc                   	int3   
   14001187b:	cc                   	int3   
   14001187c:	cc                   	int3   
   14001187d:	cc                   	int3   
   14001187e:	cc                   	int3   
   14001187f:	cc                   	int3   
   140011880:	48 89 4c 24 08       	mov    QWORD PTR [rsp+0x8],rcx
   140011885:	48 89 54 24 10       	mov    QWORD PTR [rsp+0x10],rdx
   14001188a:	4c 89 44 24 18       	mov    QWORD PTR [rsp+0x18],r8
   14001188f:	4c 89 4c 24 20       	mov    QWORD PTR [rsp+0x20],r9
   140011894:	55                   	push   rbp
   140011895:	57                   	push   rdi
   140011896:	48 81 ec 28 01 00 00 	sub    rsp,0x128
   14001189d:	48 8d 6c 24 20       	lea    rbp,[rsp+0x20]
   1400118a2:	48 8b fc             	mov    rdi,rsp
   1400118a5:	b9 4a 00 00 00       	mov    ecx,0x4a
   1400118aa:	b8 cc cc cc cc       	mov    eax,0xcccccccc
   1400118af:	f3 ab                	rep stos DWORD PTR es:[rdi],eax
   1400118b1:	48 8b 8c 24 48 01 00 	mov    rcx,QWORD PTR [rsp+0x148]
   1400118b8:	00 
   1400118b9:	48 8b 05 48 a7 00 00 	mov    rax,QWORD PTR [rip+0xa748]        # 0x14001c008
   1400118c0:	48 33 c5             	xor    rax,rbp
   1400118c3:	48 89 85 f8 00 00 00 	mov    QWORD PTR [rbp+0xf8],rax
   1400118ca:	48 8d 0d 31 f7 00 00 	lea    rcx,[rip+0xf731]        # 0x140021002
   1400118d1:	e8 ac f7 ff ff       	call   0x140011082
   1400118d6:	48 8d 85 28 01 00 00 	lea    rax,[rbp+0x128]
   1400118dd:	48 89 45 28          	mov    QWORD PTR [rbp+0x28],rax
   1400118e1:	b9 01 00 00 00       	mov    ecx,0x1
   1400118e6:	ff 15 04 ea 00 00    	call   QWORD PTR [rip+0xea04]        # 0x1400202f0
   1400118ec:	4c 8b 4d 28          	mov    r9,QWORD PTR [rbp+0x28]
   1400118f0:	45 33 c0             	xor    r8d,r8d
   1400118f3:	48 8b 95 20 01 00 00 	mov    rdx,QWORD PTR [rbp+0x120]
   1400118fa:	48 8b c8             	mov    rcx,rax
   1400118fd:	e8 89 f8 ff ff       	call   0x14001118b
   140011902:	89 45 04             	mov    DWORD PTR [rbp+0x4],eax
   140011905:	48 c7 45 28 00 00 00 	mov    QWORD PTR [rbp+0x28],0x0
   14001190c:	00 
   14001190d:	8b 45 04             	mov    eax,DWORD PTR [rbp+0x4]
   140011910:	8b f8                	mov    edi,eax
   140011912:	48 8d 4d e0          	lea    rcx,[rbp-0x20]
   140011916:	48 8d 15 e3 82 00 00 	lea    rdx,[rip+0x82e3]        # 0x140019c00
   14001191d:	e8 12 fa ff ff       	call   0x140011334
   140011922:	8b c7                	mov    eax,edi
   140011924:	48 8b 8d f8 00 00 00 	mov    rcx,QWORD PTR [rbp+0xf8]
   14001192b:	48 33 cd             	xor    rcx,rbp
   14001192e:	e8 9f f7 ff ff       	call   0x1400110d2
   140011933:	48 8d a5 08 01 00 00 	lea    rsp,[rbp+0x108]
   14001193a:	5f                   	pop    rdi
   14001193b:	5d                   	pop    rbp
   14001193c:	c3                   	ret    
   14001193d:	cc                   	int3   
   14001193e:	cc                   	int3   
   14001193f:	cc                   	int3   
   140011940:	cc                   	int3   
   140011941:	cc                   	int3   
   140011942:	cc                   	int3   
   140011943:	cc                   	int3   
   140011944:	cc                   	int3   
   140011945:	cc                   	int3   
   140011946:	cc                   	int3   
   140011947:	cc                   	int3   
   140011948:	cc                   	int3   
   140011949:	cc                   	int3   
   14001194a:	cc                   	int3   
   14001194b:	cc                   	int3   
   14001194c:	cc                   	int3   
   14001194d:	cc                   	int3   
   14001194e:	cc                   	int3   
   14001194f:	cc                   	int3   
   140011950:	cc                   	int3   
   140011951:	cc                   	int3   
   140011952:	cc                   	int3   
   140011953:	cc                   	int3   
   140011954:	cc                   	int3   
   140011955:	cc                   	int3   
   140011956:	cc                   	int3   
   140011957:	cc                   	int3   
   140011958:	cc                   	int3   
   140011959:	cc                   	int3   
   14001195a:	cc                   	int3   
   14001195b:	cc                   	int3   
   14001195c:	cc                   	int3   
   14001195d:	cc                   	int3   
   14001195e:	cc                   	int3   
   14001195f:	cc                   	int3   
   140011960:	cc                   	int3   
   140011961:	cc                   	int3   
   140011962:	cc                   	int3   
   140011963:	cc                   	int3   
   140011964:	cc                   	int3   
   140011965:	cc                   	int3   
   140011966:	cc                   	int3   
   140011967:	cc                   	int3   
   140011968:	cc                   	int3   
   140011969:	cc                   	int3   
   14001196a:	cc                   	int3   
   14001196b:	cc                   	int3   
   14001196c:	cc                   	int3   
   14001196d:	cc                   	int3   
   14001196e:	cc                   	int3   
   14001196f:	cc                   	int3   
   140011970:	48 83 ec 08          	sub    rsp,0x8
   140011974:	4c 8b c9             	mov    r9,rcx
   140011977:	48 85 c9             	test   rcx,rcx
   14001197a:	74 2a                	je     0x1400119a6
   14001197c:	48 85 d2             	test   rdx,rdx
   14001197f:	74 25                	je     0x1400119a6
   140011981:	4d 85 c0             	test   r8,r8
   140011984:	74 20                	je     0x1400119a6
   140011986:	48 89 3c 24          	mov    QWORD PTR [rsp],rdi
   14001198a:	b0 cc                	mov    al,0xcc
   14001198c:	48 8b f9             	mov    rdi,rcx
   14001198f:	48 8b ca             	mov    rcx,rdx
   140011992:	f3 aa                	rep stos BYTE PTR es:[rdi],al
   140011994:	49 8b 00             	mov    rax,QWORD PTR [r8]
   140011997:	48 8b 3c 24          	mov    rdi,QWORD PTR [rsp]
   14001199b:	49 89 41 04          	mov    QWORD PTR [r9+0x4],rax
   14001199f:	49 89 51 0c          	mov    QWORD PTR [r9+0xc],rdx
   1400119a3:	4d 89 08             	mov    QWORD PTR [r8],r9
   1400119a6:	48 83 c4 08          	add    rsp,0x8
   1400119aa:	c3                   	ret    
   1400119ab:	cc                   	int3   
   1400119ac:	cc                   	int3   
   1400119ad:	cc                   	int3   
   1400119ae:	cc                   	int3   
   1400119af:	cc                   	int3   
   1400119b0:	cc                   	int3   
   1400119b1:	cc                   	int3   
   1400119b2:	cc                   	int3   
   1400119b3:	cc                   	int3   
   1400119b4:	cc                   	int3   
   1400119b5:	cc                   	int3   
   1400119b6:	cc                   	int3   
   1400119b7:	cc                   	int3   
   1400119b8:	cc                   	int3   
   1400119b9:	cc                   	int3   
   1400119ba:	cc                   	int3   
   1400119bb:	cc                   	int3   
   1400119bc:	cc                   	int3   
   1400119bd:	cc                   	int3   
   1400119be:	cc                   	int3   
   1400119bf:	cc                   	int3   
   1400119c0:	48 89 5c 24 10       	mov    QWORD PTR [rsp+0x10],rbx
   1400119c5:	48 89 6c 24 18       	mov    QWORD PTR [rsp+0x18],rbp
   1400119ca:	56                   	push   rsi
   1400119cb:	48 83 ec 20          	sub    rsp,0x20
   1400119cf:	33 db                	xor    ebx,ebx
   1400119d1:	48 8b f2             	mov    rsi,rdx
   1400119d4:	48 8b e9             	mov    rbp,rcx
   1400119d7:	39 1a                	cmp    DWORD PTR [rdx],ebx
   1400119d9:	7e 56                	jle    0x140011a31
   1400119db:	48 89 7c 24 30       	mov    QWORD PTR [rsp+0x30],rdi
   1400119e0:	8b fb                	mov    edi,ebx
   1400119e2:	0f 1f 40 00          	nop    DWORD PTR [rax+0x0]
   1400119e6:	66 66 0f 1f 84 00 00 	data16 nop WORD PTR [rax+rax*1+0x0]
   1400119ed:	00 00 00 
   1400119f0:	48 8b 56 08          	mov    rdx,QWORD PTR [rsi+0x8]
   1400119f4:	48 63 0c 3a          	movsxd rcx,DWORD PTR [rdx+rdi*1]
   1400119f8:	81 7c 29 fc cc cc cc 	cmp    DWORD PTR [rcx+rbp*1-0x4],0xcccccccc
   1400119ff:	cc 
   140011a00:	75 11                	jne    0x140011a13
   140011a02:	48 63 44 3a 04       	movsxd rax,DWORD PTR [rdx+rdi*1+0x4]
   140011a07:	48 03 c1             	add    rax,rcx
   140011a0a:	81 3c 28 cc cc cc cc 	cmp    DWORD PTR [rax+rbp*1],0xcccccccc
   140011a11:	74 0f                	je     0x140011a22
   140011a13:	48 8b 4c 24 28       	mov    rcx,QWORD PTR [rsp+0x28]
   140011a18:	48 8b 54 3a 08       	mov    rdx,QWORD PTR [rdx+rdi*1+0x8]
   140011a1d:	e8 14 f7 ff ff       	call   0x140011136
   140011a22:	ff c3                	inc    ebx
   140011a24:	48 83 c7 10          	add    rdi,0x10
   140011a28:	3b 1e                	cmp    ebx,DWORD PTR [rsi]
   140011a2a:	7c c4                	jl     0x1400119f0
   140011a2c:	48 8b 7c 24 30       	mov    rdi,QWORD PTR [rsp+0x30]
   140011a31:	48 8b 5c 24 38       	mov    rbx,QWORD PTR [rsp+0x38]
   140011a36:	48 8b 6c 24 40       	mov    rbp,QWORD PTR [rsp+0x40]
   140011a3b:	48 83 c4 20          	add    rsp,0x20
   140011a3f:	5e                   	pop    rsi
   140011a40:	c3                   	ret    
   140011a41:	cc                   	int3   
   140011a42:	cc                   	int3   
   140011a43:	cc                   	int3   
   140011a44:	cc                   	int3   
   140011a45:	cc                   	int3   
   140011a46:	cc                   	int3   
   140011a47:	cc                   	int3   
   140011a48:	cc                   	int3   
   140011a49:	cc                   	int3   
   140011a4a:	cc                   	int3   
   140011a4b:	cc                   	int3   
   140011a4c:	cc                   	int3   
   140011a4d:	cc                   	int3   
   140011a4e:	cc                   	int3   
   140011a4f:	cc                   	int3   
   140011a50:	cc                   	int3   
   140011a51:	cc                   	int3   
   140011a52:	cc                   	int3   
   140011a53:	cc                   	int3   
   140011a54:	cc                   	int3   
   140011a55:	cc                   	int3   
   140011a56:	cc                   	int3   
   140011a57:	cc                   	int3   
   140011a58:	cc                   	int3   
   140011a59:	cc                   	int3   
   140011a5a:	cc                   	int3   
   140011a5b:	cc                   	int3   
   140011a5c:	cc                   	int3   
   140011a5d:	cc                   	int3   
   140011a5e:	cc                   	int3   
   140011a5f:	cc                   	int3   
   140011a60:	cc                   	int3   
   140011a61:	cc                   	int3   
   140011a62:	cc                   	int3   
   140011a63:	cc                   	int3   
   140011a64:	cc                   	int3   
   140011a65:	cc                   	int3   
   140011a66:	cc                   	int3   
   140011a67:	cc                   	int3   
   140011a68:	cc                   	int3   
   140011a69:	cc                   	int3   
   140011a6a:	cc                   	int3   
   140011a6b:	cc                   	int3   
   140011a6c:	cc                   	int3   
   140011a6d:	cc                   	int3   
   140011a6e:	cc                   	int3   
   140011a6f:	cc                   	int3   
   140011a70:	40 53                	rex push rbx
   140011a72:	57                   	push   rdi
   140011a73:	48 83 ec 28          	sub    rsp,0x28
   140011a77:	48 89 6c 24 40       	mov    QWORD PTR [rsp+0x40],rbp
   140011a7c:	33 ff                	xor    edi,edi
   140011a7e:	4c 89 7c 24 20       	mov    QWORD PTR [rsp+0x20],r15
   140011a83:	49 8b d8             	mov    rbx,r8
   140011a86:	48 8b ea             	mov    rbp,rdx
   140011a89:	4c 8b f9             	mov    r15,rcx
   140011a8c:	48 85 d2             	test   rdx,rdx
   140011a8f:	74 5c                	je     0x140011aed
   140011a91:	48 89 74 24 48       	mov    QWORD PTR [rsp+0x48],rsi
   140011a96:	8b f7                	mov    esi,edi
   140011a98:	39 3a                	cmp    DWORD PTR [rdx],edi
   140011a9a:	7e 4c                	jle    0x140011ae8
   140011a9c:	4c 89 74 24 50       	mov    QWORD PTR [rsp+0x50],r14
   140011aa1:	44 8b f7             	mov    r14d,edi
   140011aa4:	48 8b 55 08          	mov    rdx,QWORD PTR [rbp+0x8]
   140011aa8:	4a 63 0c 32          	movsxd rcx,DWORD PTR [rdx+r14*1]
   140011aac:	42 81 7c 39 fc cc cc 	cmp    DWORD PTR [rcx+r15*1-0x4],0xcccccccc
   140011ab3:	cc cc 
   140011ab5:	75 12                	jne    0x140011ac9
   140011ab7:	4a 63 44 32 04       	movsxd rax,DWORD PTR [rdx+r14*1+0x4]
   140011abc:	48 03 c1             	add    rax,rcx
   140011abf:	42 81 3c 38 cc cc cc 	cmp    DWORD PTR [rax+r15*1],0xcccccccc
   140011ac6:	cc 
   140011ac7:	74 0f                	je     0x140011ad8
   140011ac9:	48 8b 4c 24 38       	mov    rcx,QWORD PTR [rsp+0x38]
   140011ace:	4a 8b 54 32 08       	mov    rdx,QWORD PTR [rdx+r14*1+0x8]
   140011ad3:	e8 5e f6 ff ff       	call   0x140011136
   140011ad8:	ff c6                	inc    esi
   140011ada:	49 83 c6 10          	add    r14,0x10
   140011ade:	3b 75 00             	cmp    esi,DWORD PTR [rbp+0x0]
   140011ae1:	7c c1                	jl     0x140011aa4
   140011ae3:	4c 8b 74 24 50       	mov    r14,QWORD PTR [rsp+0x50]
   140011ae8:	48 8b 74 24 48       	mov    rsi,QWORD PTR [rsp+0x48]
   140011aed:	4c 8b 7c 24 20       	mov    r15,QWORD PTR [rsp+0x20]
   140011af2:	48 8b c3             	mov    rax,rbx
   140011af5:	48 8b 6c 24 40       	mov    rbp,QWORD PTR [rsp+0x40]
   140011afa:	48 85 db             	test   rbx,rbx
   140011afd:	74 6d                	je     0x140011b6c
   140011aff:	90                   	nop
   140011b00:	48 8b 40 04          	mov    rax,QWORD PTR [rax+0x4]
   140011b04:	ff c7                	inc    edi
   140011b06:	48 85 c0             	test   rax,rax
   140011b09:	75 f5                	jne    0x140011b00
   140011b0b:	48 85 db             	test   rbx,rbx
   140011b0e:	74 5c                	je     0x140011b6c
   140011b10:	81 3b cc cc cc cc    	cmp    DWORD PTR [rbx],0xcccccccc
   140011b16:	75 1b                	jne    0x140011b33
   140011b18:	81 7b 14 cc cc cc cc 	cmp    DWORD PTR [rbx+0x14],0xcccccccc
   140011b1f:	75 12                	jne    0x140011b33
   140011b21:	81 7b 18 cc cc cc cc 	cmp    DWORD PTR [rbx+0x18],0xcccccccc
   140011b28:	75 09                	jne    0x140011b33
   140011b2a:	81 7b 1c cc cc cc cc 	cmp    DWORD PTR [rbx+0x1c],0xcccccccc
   140011b31:	74 10                	je     0x140011b43
   140011b33:	48 8b 4c 24 38       	mov    rcx,QWORD PTR [rsp+0x38]
   140011b38:	44 8b c7             	mov    r8d,edi
   140011b3b:	48 8b d3             	mov    rdx,rbx
   140011b3e:	e8 33 f7 ff ff       	call   0x140011276
   140011b43:	48 8b 43 0c          	mov    rax,QWORD PTR [rbx+0xc]
   140011b47:	81 7c 18 fc cc cc cc 	cmp    DWORD PTR [rax+rbx*1-0x4],0xcccccccc
   140011b4e:	cc 
   140011b4f:	74 10                	je     0x140011b61
   140011b51:	48 8b 4c 24 38       	mov    rcx,QWORD PTR [rsp+0x38]
   140011b56:	44 8b c7             	mov    r8d,edi
   140011b59:	48 8b d3             	mov    rdx,rbx
   140011b5c:	e8 15 f7 ff ff       	call   0x140011276
   140011b61:	48 8b 5b 04          	mov    rbx,QWORD PTR [rbx+0x4]
   140011b65:	ff cf                	dec    edi
   140011b67:	48 85 db             	test   rbx,rbx
   140011b6a:	75 a4                	jne    0x140011b10
   140011b6c:	48 83 c4 28          	add    rsp,0x28
   140011b70:	5f                   	pop    rdi
   140011b71:	5b                   	pop    rbx
   140011b72:	c3                   	ret    
   140011b73:	cc                   	int3   
   140011b74:	cc                   	int3   
   140011b75:	cc                   	int3   
   140011b76:	cc                   	int3   
   140011b77:	cc                   	int3   
   140011b78:	cc                   	int3   
   140011b79:	cc                   	int3   
   140011b7a:	cc                   	int3   
   140011b7b:	cc                   	int3   
   140011b7c:	cc                   	int3   
   140011b7d:	cc                   	int3   
   140011b7e:	cc                   	int3   
   140011b7f:	cc                   	int3   
   140011b80:	cc                   	int3   
   140011b81:	cc                   	int3   
   140011b82:	cc                   	int3   
   140011b83:	cc                   	int3   
   140011b84:	cc                   	int3   
   140011b85:	cc                   	int3   
   140011b86:	cc                   	int3   
   140011b87:	cc                   	int3   
   140011b88:	cc                   	int3   
   140011b89:	cc                   	int3   
   140011b8a:	cc                   	int3   
   140011b8b:	cc                   	int3   
   140011b8c:	cc                   	int3   
   140011b8d:	cc                   	int3   
   140011b8e:	cc                   	int3   
   140011b8f:	cc                   	int3   
   140011b90:	cc                   	int3   
   140011b91:	cc                   	int3   
   140011b92:	cc                   	int3   
   140011b93:	cc                   	int3   
   140011b94:	cc                   	int3   
   140011b95:	cc                   	int3   
   140011b96:	cc                   	int3   
   140011b97:	cc                   	int3   
   140011b98:	cc                   	int3   
   140011b99:	cc                   	int3   
   140011b9a:	cc                   	int3   
   140011b9b:	cc                   	int3   
   140011b9c:	cc                   	int3   
   140011b9d:	cc                   	int3   
   140011b9e:	cc                   	int3   
   140011b9f:	cc                   	int3   
   140011ba0:	cc                   	int3   
   140011ba1:	cc                   	int3   
   140011ba2:	cc                   	int3   
   140011ba3:	cc                   	int3   
   140011ba4:	cc                   	int3   
   140011ba5:	cc                   	int3   
   140011ba6:	cc                   	int3   
   140011ba7:	cc                   	int3   
   140011ba8:	cc                   	int3   
   140011ba9:	cc                   	int3   
   140011baa:	cc                   	int3   
   140011bab:	cc                   	int3   
   140011bac:	cc                   	int3   
   140011bad:	cc                   	int3   
   140011bae:	cc                   	int3   
   140011baf:	cc                   	int3   
   140011bb0:	cc                   	int3   
   140011bb1:	cc                   	int3   
   140011bb2:	cc                   	int3   
   140011bb3:	cc                   	int3   
   140011bb4:	cc                   	int3   
   140011bb5:	cc                   	int3   
   140011bb6:	cc                   	int3   
   140011bb7:	cc                   	int3   
   140011bb8:	cc                   	int3   
   140011bb9:	cc                   	int3   
   140011bba:	cc                   	int3   
   140011bbb:	cc                   	int3   
   140011bbc:	cc                   	int3   
   140011bbd:	cc                   	int3   
   140011bbe:	cc                   	int3   
   140011bbf:	cc                   	int3   
   140011bc0:	48 8d 05 81 f7 ff ff 	lea    rax,[rip+0xfffffffffffff781]        # 0x140011348
   140011bc7:	c3                   	ret    
   140011bc8:	cc                   	int3   
   140011bc9:	cc                   	int3   
   140011bca:	cc                   	int3   
   140011bcb:	cc                   	int3   
   140011bcc:	cc                   	int3   
   140011bcd:	cc                   	int3   
   140011bce:	cc                   	int3   
   140011bcf:	cc                   	int3   
   140011bd0:	48 8d 05 82 f5 ff ff 	lea    rax,[rip+0xfffffffffffff582]        # 0x140011159
   140011bd7:	c3                   	ret    
   140011bd8:	cc                   	int3   
   140011bd9:	cc                   	int3   
   140011bda:	cc                   	int3   
   140011bdb:	cc                   	int3   
   140011bdc:	cc                   	int3   
   140011bdd:	cc                   	int3   
   140011bde:	cc                   	int3   
   140011bdf:	cc                   	int3   
   140011be0:	48 83 ec 38          	sub    rsp,0x38
   140011be4:	80 3d 85 a5 00 00 00 	cmp    BYTE PTR [rip+0xa585],0x0        # 0x14001c170
   140011beb:	75 2d                	jne    0x140011c1a
   140011bed:	41 b9 01 00 00 00    	mov    r9d,0x1
   140011bf3:	c6 05 76 a5 00 00 01 	mov    BYTE PTR [rip+0xa576],0x1        # 0x14001c170
   140011bfa:	45 33 c0             	xor    r8d,r8d
   140011bfd:	c7 44 24 20 00 00 00 	mov    DWORD PTR [rsp+0x20],0x0
   140011c04:	00 
   140011c05:	33 d2                	xor    edx,edx
   140011c07:	33 c9                	xor    ecx,ecx
   140011c09:	e8 92 f4 ff ff       	call   0x1400110a0
   140011c0e:	48 8b c8             	mov    rcx,rax
   140011c11:	48 83 c4 38          	add    rsp,0x38
   140011c15:	e9 90 f4 ff ff       	jmp    0x1400110aa
   140011c1a:	48 83 c4 38          	add    rsp,0x38
   140011c1e:	c3                   	ret    
   140011c1f:	cc                   	int3   
   140011c20:	cc                   	int3   
   140011c21:	cc                   	int3   
   140011c22:	cc                   	int3   
   140011c23:	cc                   	int3   
   140011c24:	cc                   	int3   
   140011c25:	cc                   	int3   
   140011c26:	cc                   	int3   
   140011c27:	cc                   	int3   
   140011c28:	cc                   	int3   
   140011c29:	cc                   	int3   
   140011c2a:	cc                   	int3   
   140011c2b:	cc                   	int3   
   140011c2c:	cc                   	int3   
   140011c2d:	cc                   	int3   
   140011c2e:	cc                   	int3   
   140011c2f:	cc                   	int3   
   140011c30:	48 83 ec 38          	sub    rsp,0x38
   140011c34:	41 b9 01 00 00 00    	mov    r9d,0x1
   140011c3a:	c7 44 24 20 01 00 00 	mov    DWORD PTR [rsp+0x20],0x1
   140011c41:	00 
   140011c42:	45 33 c0             	xor    r8d,r8d
   140011c45:	33 d2                	xor    edx,edx
   140011c47:	33 c9                	xor    ecx,ecx
   140011c49:	e8 52 f4 ff ff       	call   0x1400110a0
   140011c4e:	48 83 c4 38          	add    rsp,0x38
   140011c52:	c3                   	ret    
   140011c53:	cc                   	int3   
   140011c54:	cc                   	int3   
   140011c55:	cc                   	int3   
   140011c56:	cc                   	int3   
   140011c57:	cc                   	int3   
   140011c58:	cc                   	int3   
   140011c59:	cc                   	int3   
   140011c5a:	cc                   	int3   
   140011c5b:	cc                   	int3   
   140011c5c:	cc                   	int3   
   140011c5d:	cc                   	int3   
   140011c5e:	cc                   	int3   
   140011c5f:	cc                   	int3   
   140011c60:	48 89 4c 24 08       	mov    QWORD PTR [rsp+0x8],rcx
   140011c65:	48 83 ec 38          	sub    rsp,0x38
   140011c69:	48 8b 44 24 40       	mov    rax,QWORD PTR [rsp+0x40]
   140011c6e:	48 89 44 24 20       	mov    QWORD PTR [rsp+0x20],rax
   140011c73:	48 8b 44 24 40       	mov    rax,QWORD PTR [rsp+0x40]
   140011c78:	0f b6 00             	movzx  eax,BYTE PTR [rax]
   140011c7b:	85 c0                	test   eax,eax
   140011c7d:	74 18                	je     0x140011c97
   140011c7f:	83 3d 76 ac 00 00 00 	cmp    DWORD PTR [rip+0xac76],0x0        # 0x14001c8fc
   140011c86:	74 0f                	je     0x140011c97
   140011c88:	ff 15 f2 e3 00 00    	call   QWORD PTR [rip+0xe3f2]        # 0x140020080
   140011c8e:	39 05 68 ac 00 00    	cmp    DWORD PTR [rip+0xac68],eax        # 0x14001c8fc
   140011c94:	75 01                	jne    0x140011c97
   140011c96:	90                   	nop
   140011c97:	48 83 c4 38          	add    rsp,0x38
   140011c9b:	c3                   	ret    
   140011c9c:	cc                   	int3   
   140011c9d:	cc                   	int3   
   140011c9e:	cc                   	int3   
   140011c9f:	cc                   	int3   
   140011ca0:	cc                   	int3   
   140011ca1:	cc                   	int3   
   140011ca2:	cc                   	int3   
   140011ca3:	cc                   	int3   
   140011ca4:	cc                   	int3   
   140011ca5:	cc                   	int3   
   140011ca6:	cc                   	int3   
   140011ca7:	cc                   	int3   
   140011ca8:	cc                   	int3   
   140011ca9:	cc                   	int3   
   140011caa:	cc                   	int3   
   140011cab:	cc                   	int3   
   140011cac:	cc                   	int3   
   140011cad:	cc                   	int3   
   140011cae:	cc                   	int3   
   140011caf:	cc                   	int3   
   140011cb0:	4c 89 4c 24 20       	mov    QWORD PTR [rsp+0x20],r9
   140011cb5:	4c 89 44 24 18       	mov    QWORD PTR [rsp+0x18],r8
   140011cba:	48 89 54 24 10       	mov    QWORD PTR [rsp+0x10],rdx
   140011cbf:	48 89 4c 24 08       	mov    QWORD PTR [rsp+0x8],rcx
   140011cc4:	48 83 ec 28          	sub    rsp,0x28
   140011cc8:	48 8b 44 24 48       	mov    rax,QWORD PTR [rsp+0x48]
   140011ccd:	4c 8b 40 38          	mov    r8,QWORD PTR [rax+0x38]
   140011cd1:	48 8b 54 24 48       	mov    rdx,QWORD PTR [rsp+0x48]
   140011cd6:	48 8b 4c 24 38       	mov    rcx,QWORD PTR [rsp+0x38]
   140011cdb:	e8 29 f4 ff ff       	call   0x140011109
   140011ce0:	b8 01 00 00 00       	mov    eax,0x1
   140011ce5:	48 83 c4 28          	add    rsp,0x28
   140011ce9:	c3                   	ret    
   140011cea:	cc                   	int3   
   140011ceb:	cc                   	int3   
   140011cec:	cc                   	int3   
   140011ced:	cc                   	int3   
   140011cee:	cc                   	int3   
   140011cef:	cc                   	int3   
   140011cf0:	cc                   	int3   
   140011cf1:	cc                   	int3   
   140011cf2:	cc                   	int3   
   140011cf3:	cc                   	int3   
   140011cf4:	cc                   	int3   
   140011cf5:	cc                   	int3   
   140011cf6:	cc                   	int3   
   140011cf7:	cc                   	int3   
   140011cf8:	cc                   	int3   
   140011cf9:	cc                   	int3   
   140011cfa:	cc                   	int3   
   140011cfb:	cc                   	int3   
   140011cfc:	cc                   	int3   
   140011cfd:	cc                   	int3   
   140011cfe:	cc                   	int3   
   140011cff:	cc                   	int3   
   140011d00:	4c 89 44 24 18       	mov    QWORD PTR [rsp+0x18],r8
   140011d05:	48 89 54 24 10       	mov    QWORD PTR [rsp+0x10],rdx
   140011d0a:	48 89 4c 24 08       	mov    QWORD PTR [rsp+0x8],rcx
   140011d0f:	48 83 ec 58          	sub    rsp,0x58
   140011d13:	48 8b 44 24 70       	mov    rax,QWORD PTR [rsp+0x70]
   140011d18:	8b 00                	mov    eax,DWORD PTR [rax]
   140011d1a:	83 e0 f8             	and    eax,0xfffffff8
   140011d1d:	89 44 24 20          	mov    DWORD PTR [rsp+0x20],eax
   140011d21:	48 8b 44 24 60       	mov    rax,QWORD PTR [rsp+0x60]
   140011d26:	48 89 44 24 38       	mov    QWORD PTR [rsp+0x38],rax
   140011d2b:	48 8b 44 24 70       	mov    rax,QWORD PTR [rsp+0x70]
   140011d30:	8b 00                	mov    eax,DWORD PTR [rax]
   140011d32:	c1 e8 02             	shr    eax,0x2
   140011d35:	83 e0 01             	and    eax,0x1
   140011d38:	85 c0                	test   eax,eax
   140011d3a:	74 29                	je     0x140011d65
   140011d3c:	48 8b 44 24 70       	mov    rax,QWORD PTR [rsp+0x70]
   140011d41:	48 63 40 04          	movsxd rax,DWORD PTR [rax+0x4]
   140011d45:	48 8b 4c 24 60       	mov    rcx,QWORD PTR [rsp+0x60]
   140011d4a:	48 03 c8             	add    rcx,rax
   140011d4d:	48 8b c1             	mov    rax,rcx
   140011d50:	48 8b 4c 24 70       	mov    rcx,QWORD PTR [rsp+0x70]
   140011d55:	8b 49 08             	mov    ecx,DWORD PTR [rcx+0x8]
   140011d58:	f7 d9                	neg    ecx
   140011d5a:	48 63 c9             	movsxd rcx,ecx
   140011d5d:	48 23 c1             	and    rax,rcx
   140011d60:	48 89 44 24 38       	mov    QWORD PTR [rsp+0x38],rax
   140011d65:	48 63 44 24 20       	movsxd rax,DWORD PTR [rsp+0x20]
   140011d6a:	48 8b 4c 24 38       	mov    rcx,QWORD PTR [rsp+0x38]
   140011d6f:	48 8b 04 01          	mov    rax,QWORD PTR [rcx+rax*1]
   140011d73:	48 89 44 24 30       	mov    QWORD PTR [rsp+0x30],rax
   140011d78:	48 8b 44 24 68       	mov    rax,QWORD PTR [rsp+0x68]
   140011d7d:	48 8b 40 10          	mov    rax,QWORD PTR [rax+0x10]
   140011d81:	8b 40 08             	mov    eax,DWORD PTR [rax+0x8]
   140011d84:	48 8b 4c 24 68       	mov    rcx,QWORD PTR [rsp+0x68]
   140011d89:	48 03 41 08          	add    rax,QWORD PTR [rcx+0x8]
   140011d8d:	48 89 44 24 40       	mov    QWORD PTR [rsp+0x40],rax
   140011d92:	48 8b 44 24 60       	mov    rax,QWORD PTR [rsp+0x60]
   140011d97:	48 89 44 24 28       	mov    QWORD PTR [rsp+0x28],rax
   140011d9c:	48 8b 44 24 40       	mov    rax,QWORD PTR [rsp+0x40]
   140011da1:	0f b6 40 03          	movzx  eax,BYTE PTR [rax+0x3]
   140011da5:	24 0f                	and    al,0xf
   140011da7:	0f b6 c0             	movzx  eax,al
   140011daa:	85 c0                	test   eax,eax
   140011dac:	74 26                	je     0x140011dd4
   140011dae:	48 8b 44 24 40       	mov    rax,QWORD PTR [rsp+0x40]
   140011db3:	0f b6 40 03          	movzx  eax,BYTE PTR [rax+0x3]
   140011db7:	c0 e8 04             	shr    al,0x4
   140011dba:	24 0f                	and    al,0xf
   140011dbc:	0f b6 c0             	movzx  eax,al
   140011dbf:	6b c0 10             	imul   eax,eax,0x10
   140011dc2:	48 98                	cdqe   
   140011dc4:	48 8b 4c 24 28       	mov    rcx,QWORD PTR [rsp+0x28]
   140011dc9:	48 03 c8             	add    rcx,rax
   140011dcc:	48 8b c1             	mov    rax,rcx
   140011dcf:	48 89 44 24 28       	mov    QWORD PTR [rsp+0x28],rax
   140011dd4:	48 8b 44 24 28       	mov    rax,QWORD PTR [rsp+0x28]
   140011dd9:	48 8b 4c 24 30       	mov    rcx,QWORD PTR [rsp+0x30]
   140011dde:	48 33 c8             	xor    rcx,rax
   140011de1:	48 8b c1             	mov    rax,rcx
   140011de4:	48 89 44 24 30       	mov    QWORD PTR [rsp+0x30],rax
   140011de9:	48 8b 4c 24 30       	mov    rcx,QWORD PTR [rsp+0x30]
   140011dee:	e8 df f2 ff ff       	call   0x1400110d2
   140011df3:	48 83 c4 58          	add    rsp,0x58
   140011df7:	c3                   	ret    
   140011df8:	cc                   	int3   
   140011df9:	cc                   	int3   
   140011dfa:	cc                   	int3   
   140011dfb:	cc                   	int3   
   140011dfc:	cc                   	int3   
   140011dfd:	cc                   	int3   
   140011dfe:	cc                   	int3   
   140011dff:	cc                   	int3   
   140011e00:	cc                   	int3   
   140011e01:	cc                   	int3   
   140011e02:	cc                   	int3   
   140011e03:	cc                   	int3   
   140011e04:	cc                   	int3   
   140011e05:	cc                   	int3   
   140011e06:	cc                   	int3   
   140011e07:	cc                   	int3   
   140011e08:	cc                   	int3   
   140011e09:	cc                   	int3   
   140011e0a:	cc                   	int3   
   140011e0b:	cc                   	int3   
   140011e0c:	cc                   	int3   
   140011e0d:	cc                   	int3   
   140011e0e:	cc                   	int3   
   140011e0f:	cc                   	int3   
   140011e10:	cc                   	int3   
   140011e11:	cc                   	int3   
   140011e12:	cc                   	int3   
   140011e13:	cc                   	int3   
   140011e14:	cc                   	int3   
   140011e15:	cc                   	int3   
   140011e16:	cc                   	int3   
   140011e17:	cc                   	int3   
   140011e18:	cc                   	int3   
   140011e19:	cc                   	int3   
   140011e1a:	cc                   	int3   
   140011e1b:	cc                   	int3   
   140011e1c:	cc                   	int3   
   140011e1d:	cc                   	int3   
   140011e1e:	cc                   	int3   
   140011e1f:	cc                   	int3   
   140011e20:	cc                   	int3   
   140011e21:	cc                   	int3   
   140011e22:	cc                   	int3   
   140011e23:	cc                   	int3   
   140011e24:	cc                   	int3   
   140011e25:	cc                   	int3   
   140011e26:	cc                   	int3   
   140011e27:	cc                   	int3   
   140011e28:	cc                   	int3   
   140011e29:	cc                   	int3   
   140011e2a:	cc                   	int3   
   140011e2b:	cc                   	int3   
   140011e2c:	cc                   	int3   
   140011e2d:	cc                   	int3   
   140011e2e:	cc                   	int3   
   140011e2f:	cc                   	int3   
   140011e30:	cc                   	int3   
   140011e31:	cc                   	int3   
   140011e32:	cc                   	int3   
   140011e33:	cc                   	int3   
   140011e34:	cc                   	int3   
   140011e35:	cc                   	int3   
   140011e36:	cc                   	int3   
   140011e37:	cc                   	int3   
   140011e38:	cc                   	int3   
   140011e39:	cc                   	int3   
   140011e3a:	cc                   	int3   
   140011e3b:	cc                   	int3   
   140011e3c:	cc                   	int3   
   140011e3d:	cc                   	int3   
   140011e3e:	cc                   	int3   
   140011e3f:	cc                   	int3   
   140011e40:	cc                   	int3   
   140011e41:	cc                   	int3   
   140011e42:	cc                   	int3   
   140011e43:	cc                   	int3   
   140011e44:	cc                   	int3   
   140011e45:	cc                   	int3   
   140011e46:	66 66 0f 1f 84 00 00 	data16 nop WORD PTR [rax+rax*1+0x0]
   140011e4d:	00 00 00 
   140011e50:	48 3b 0d b1 a1 00 00 	cmp    rcx,QWORD PTR [rip+0xa1b1]        # 0x14001c008
   140011e57:	f2 75 12             	bnd jne 0x140011e6c
   140011e5a:	48 c1 c1 10          	rol    rcx,0x10
   140011e5e:	66 f7 c1 ff ff       	test   cx,0xffff
   140011e63:	f2 75 02             	bnd jne 0x140011e68
   140011e66:	f2 c3                	bnd ret 
   140011e68:	48 c1 c9 10          	ror    rcx,0x10
   140011e6c:	e9 93 f2 ff ff       	jmp    0x140011104
   140011e71:	cc                   	int3   
   140011e72:	cc                   	int3   
   140011e73:	cc                   	int3   
   140011e74:	cc                   	int3   
   140011e75:	cc                   	int3   
   140011e76:	cc                   	int3   
   140011e77:	cc                   	int3   
   140011e78:	cc                   	int3   
   140011e79:	cc                   	int3   
   140011e7a:	cc                   	int3   
   140011e7b:	cc                   	int3   
   140011e7c:	cc                   	int3   
   140011e7d:	cc                   	int3   
   140011e7e:	cc                   	int3   
   140011e7f:	cc                   	int3   
   140011e80:	48 83 ec 28          	sub    rsp,0x28
   140011e84:	e8 dd f4 ff ff       	call   0x140011366
   140011e89:	e8 38 f4 ff ff       	call   0x1400112c6
   140011e8e:	e8 c1 f2 ff ff       	call   0x140011154
   140011e93:	b9 01 00 00 00       	mov    ecx,0x1
   140011e98:	e8 e4 f2 ff ff       	call   0x140011181
   140011e9d:	0f b6 c0             	movzx  eax,al
   140011ea0:	85 c0                	test   eax,eax
   140011ea2:	75 0a                	jne    0x140011eae
   140011ea4:	b9 07 00 00 00       	mov    ecx,0x7
   140011ea9:	e8 cd f3 ff ff       	call   0x14001127b
   140011eae:	e8 c7 f4 ff ff       	call   0x14001137a
   140011eb3:	48 8d 0d 45 f2 ff ff 	lea    rcx,[rip+0xfffffffffffff245]        # 0x1400110ff
   140011eba:	e8 e0 f2 ff ff       	call   0x14001119f
   140011ebf:	e8 7f f4 ff ff       	call   0x140011343
   140011ec4:	85 c0                	test   eax,eax
   140011ec6:	74 0a                	je     0x140011ed2
   140011ec8:	b9 07 00 00 00       	mov    ecx,0x7
   140011ecd:	e8 a9 f3 ff ff       	call   0x14001127b
   140011ed2:	e8 08 f4 ff ff       	call   0x1400112df
   140011ed7:	e8 ab f1 ff ff       	call   0x140011087
   140011edc:	85 c0                	test   eax,eax
   140011ede:	74 0c                	je     0x140011eec
   140011ee0:	48 8d 0d 3b f2 ff ff 	lea    rcx,[rip+0xfffffffffffff23b]        # 0x140011122
   140011ee7:	e8 75 f4 ff ff       	call   0x140011361
   140011eec:	e8 1d f2 ff ff       	call   0x14001110e
   140011ef1:	e8 df f3 ff ff       	call   0x1400112d5
   140011ef6:	e8 0f f1 ff ff       	call   0x14001100a
   140011efb:	8b c8                	mov    ecx,eax
   140011efd:	e8 b1 f2 ff ff       	call   0x1400111b3
   140011f02:	e8 0f f4 ff ff       	call   0x140011316
   140011f07:	0f b6 c0             	movzx  eax,al
   140011f0a:	85 c0                	test   eax,eax
   140011f0c:	74 05                	je     0x140011f13
   140011f0e:	e8 72 f3 ff ff       	call   0x140011285
   140011f13:	e8 24 f1 ff ff       	call   0x14001103c
   140011f18:	e8 8c f2 ff ff       	call   0x1400111a9
   140011f1d:	85 c0                	test   eax,eax
   140011f1f:	74 0a                	je     0x140011f2b
   140011f21:	b9 07 00 00 00       	mov    ecx,0x7
   140011f26:	e8 50 f3 ff ff       	call   0x14001127b
   140011f2b:	33 c0                	xor    eax,eax
   140011f2d:	48 83 c4 28          	add    rsp,0x28
   140011f31:	c3                   	ret    
   140011f32:	cc                   	int3   
   140011f33:	cc                   	int3   
   140011f34:	cc                   	int3   
   140011f35:	cc                   	int3   
   140011f36:	cc                   	int3   
   140011f37:	cc                   	int3   
   140011f38:	cc                   	int3   
   140011f39:	cc                   	int3   
   140011f3a:	cc                   	int3   
   140011f3b:	cc                   	int3   
   140011f3c:	cc                   	int3   
   140011f3d:	cc                   	int3   
   140011f3e:	cc                   	int3   
   140011f3f:	cc                   	int3   
   140011f40:	cc                   	int3   
   140011f41:	cc                   	int3   
   140011f42:	cc                   	int3   
   140011f43:	cc                   	int3   
   140011f44:	cc                   	int3   
   140011f45:	cc                   	int3   
   140011f46:	cc                   	int3   
   140011f47:	cc                   	int3   
   140011f48:	cc                   	int3   
   140011f49:	cc                   	int3   
   140011f4a:	cc                   	int3   
   140011f4b:	cc                   	int3   
   140011f4c:	cc                   	int3   
   140011f4d:	cc                   	int3   
   140011f4e:	cc                   	int3   
   140011f4f:	cc                   	int3   
   140011f50:	cc                   	int3   
   140011f51:	cc                   	int3   
   140011f52:	cc                   	int3   
   140011f53:	cc                   	int3   
   140011f54:	cc                   	int3   
   140011f55:	cc                   	int3   
   140011f56:	cc                   	int3   
   140011f57:	cc                   	int3   
   140011f58:	cc                   	int3   
   140011f59:	cc                   	int3   
   140011f5a:	cc                   	int3   
   140011f5b:	cc                   	int3   
   140011f5c:	cc                   	int3   
   140011f5d:	cc                   	int3   
   140011f5e:	cc                   	int3   
   140011f5f:	cc                   	int3   
   140011f60:	48 83 ec 28          	sub    rsp,0x28
   140011f64:	e8 90 f2 ff ff       	call   0x1400111f9
   140011f69:	33 c0                	xor    eax,eax
   140011f6b:	48 83 c4 28          	add    rsp,0x28
   140011f6f:	c3                   	ret    
   140011f70:	cc                   	int3   
   140011f71:	cc                   	int3   
   140011f72:	cc                   	int3   
   140011f73:	cc                   	int3   
   140011f74:	cc                   	int3   
   140011f75:	cc                   	int3   
   140011f76:	cc                   	int3   
   140011f77:	cc                   	int3   
   140011f78:	cc                   	int3   
   140011f79:	cc                   	int3   
   140011f7a:	cc                   	int3   
   140011f7b:	cc                   	int3   
   140011f7c:	cc                   	int3   
   140011f7d:	cc                   	int3   
   140011f7e:	cc                   	int3   
   140011f7f:	cc                   	int3   
   140011f80:	48 83 ec 28          	sub    rsp,0x28
   140011f84:	e8 43 f2 ff ff       	call   0x1400111cc
   140011f89:	e8 4d f2 ff ff       	call   0x1400111db
   140011f8e:	8b c8                	mov    ecx,eax
   140011f90:	e8 a5 f2 ff ff       	call   0x14001123a
   140011f95:	48 83 c4 28          	add    rsp,0x28
   140011f99:	c3                   	ret    
   140011f9a:	cc                   	int3   
   140011f9b:	cc                   	int3   
   140011f9c:	cc                   	int3   
   140011f9d:	cc                   	int3   
   140011f9e:	cc                   	int3   
   140011f9f:	cc                   	int3   
   140011fa0:	48 83 ec 28          	sub    rsp,0x28
   140011fa4:	e8 86 f3 ff ff       	call   0x14001132f
   140011fa9:	e8 12 00 00 00       	call   0x140011fc0
   140011fae:	48 83 c4 28          	add    rsp,0x28
   140011fb2:	c3                   	ret    
   140011fb3:	cc                   	int3   
   140011fb4:	cc                   	int3   
   140011fb5:	cc                   	int3   
   140011fb6:	cc                   	int3   
   140011fb7:	cc                   	int3   
   140011fb8:	cc                   	int3   
   140011fb9:	cc                   	int3   
   140011fba:	cc                   	int3   
   140011fbb:	cc                   	int3   
   140011fbc:	cc                   	int3   
   140011fbd:	cc                   	int3   
   140011fbe:	cc                   	int3   
   140011fbf:	cc                   	int3   
   140011fc0:	48 83 ec 68          	sub    rsp,0x68
   140011fc4:	b9 01 00 00 00       	mov    ecx,0x1
   140011fc9:	e8 3e f3 ff ff       	call   0x14001130c
   140011fce:	0f b6 c0             	movzx  eax,al
   140011fd1:	85 c0                	test   eax,eax
   140011fd3:	75 0a                	jne    0x140011fdf
   140011fd5:	b9 07 00 00 00       	mov    ecx,0x7
   140011fda:	e8 9c f2 ff ff       	call   0x14001127b
   140011fdf:	c6 44 24 20 00       	mov    BYTE PTR [rsp+0x20],0x0
   140011fe4:	e8 47 f2 ff ff       	call   0x140011230
   140011fe9:	88 44 24 21          	mov    BYTE PTR [rsp+0x21],al
   140011fed:	83 3d 34 a8 00 00 01 	cmp    DWORD PTR [rip+0xa834],0x1        # 0x14001c828
   140011ff4:	75 0c                	jne    0x140012002
   140011ff6:	b9 07 00 00 00       	mov    ecx,0x7
   140011ffb:	e8 7b f2 ff ff       	call   0x14001127b
   140012000:	eb 58                	jmp    0x14001205a
   140012002:	83 3d 1f a8 00 00 00 	cmp    DWORD PTR [rip+0xa81f],0x0        # 0x14001c828
   140012009:	75 4a                	jne    0x140012055
   14001200b:	c7 05 13 a8 00 00 01 	mov    DWORD PTR [rip+0xa813],0x1        # 0x14001c828
   140012012:	00 00 00 
   140012015:	48 8d 15 44 76 00 00 	lea    rdx,[rip+0x7644]        # 0x140019660
   14001201c:	48 8d 0d 0d 73 00 00 	lea    rcx,[rip+0x730d]        # 0x140019330
   140012023:	e8 46 f0 ff ff       	call   0x14001106e
   140012028:	85 c0                	test   eax,eax
   14001202a:	74 0a                	je     0x140012036
   14001202c:	b8 ff 00 00 00       	mov    eax,0xff
   140012031:	e9 23 01 00 00       	jmp    0x140012159
   140012036:	48 8d 15 e3 71 00 00 	lea    rdx,[rip+0x71e3]        # 0x140019220
   14001203d:	48 8d 0d bc 6f 00 00 	lea    rcx,[rip+0x6fbc]        # 0x140019000
   140012044:	e8 79 f1 ff ff       	call   0x1400111c2
   140012049:	c7 05 d5 a7 00 00 02 	mov    DWORD PTR [rip+0xa7d5],0x2        # 0x14001c828
   140012050:	00 00 00 
   140012053:	eb 05                	jmp    0x14001205a
   140012055:	c6 44 24 20 01       	mov    BYTE PTR [rsp+0x20],0x1
   14001205a:	0f b6 4c 24 21       	movzx  ecx,BYTE PTR [rsp+0x21]
   14001205f:	e8 1b f3 ff ff       	call   0x14001137f
   140012064:	e8 77 f1 ff ff       	call   0x1400111e0
   140012069:	48 89 44 24 30       	mov    QWORD PTR [rsp+0x30],rax
   14001206e:	48 8b 44 24 30       	mov    rax,QWORD PTR [rsp+0x30]
   140012073:	48 83 38 00          	cmp    QWORD PTR [rax],0x0
   140012077:	74 3d                	je     0x1400120b6
   140012079:	48 8b 4c 24 30       	mov    rcx,QWORD PTR [rsp+0x30]
   14001207e:	e8 fd f1 ff ff       	call   0x140011280
   140012083:	0f b6 c0             	movzx  eax,al
   140012086:	85 c0                	test   eax,eax
   140012088:	74 2c                	je     0x1400120b6
   14001208a:	48 8b 44 24 30       	mov    rax,QWORD PTR [rsp+0x30]
   14001208f:	48 8b 00             	mov    rax,QWORD PTR [rax]
   140012092:	48 89 44 24 48       	mov    QWORD PTR [rsp+0x48],rax
   140012097:	48 8b 44 24 48       	mov    rax,QWORD PTR [rsp+0x48]
   14001209c:	48 89 44 24 50       	mov    QWORD PTR [rsp+0x50],rax
   1400120a1:	45 33 c0             	xor    r8d,r8d
   1400120a4:	ba 02 00 00 00       	mov    edx,0x2
   1400120a9:	33 c9                	xor    ecx,ecx
   1400120ab:	48 8b 44 24 50       	mov    rax,QWORD PTR [rsp+0x50]
   1400120b0:	ff 15 5a ff 00 00    	call   QWORD PTR [rip+0xff5a]        # 0x140022010
   1400120b6:	e8 6b f1 ff ff       	call   0x140011226
   1400120bb:	48 89 44 24 38       	mov    QWORD PTR [rsp+0x38],rax
   1400120c0:	48 8b 44 24 38       	mov    rax,QWORD PTR [rsp+0x38]
   1400120c5:	48 83 38 00          	cmp    QWORD PTR [rax],0x0
   1400120c9:	74 1e                	je     0x1400120e9
   1400120cb:	48 8b 4c 24 38       	mov    rcx,QWORD PTR [rsp+0x38]
   1400120d0:	e8 ab f1 ff ff       	call   0x140011280
   1400120d5:	0f b6 c0             	movzx  eax,al
   1400120d8:	85 c0                	test   eax,eax
   1400120da:	74 0d                	je     0x1400120e9
   1400120dc:	48 8b 44 24 38       	mov    rax,QWORD PTR [rsp+0x38]
   1400120e1:	48 8b 08             	mov    rcx,QWORD PTR [rax]
   1400120e4:	e8 da ef ff ff       	call   0x1400110c3
   1400120e9:	e8 22 01 00 00       	call   0x140012210
   1400120ee:	89 44 24 28          	mov    DWORD PTR [rsp+0x28],eax
   1400120f2:	e8 ed f1 ff ff       	call   0x1400112e4
   1400120f7:	0f b6 c0             	movzx  eax,al
   1400120fa:	85 c0                	test   eax,eax
   1400120fc:	75 09                	jne    0x140012107
   1400120fe:	8b 4c 24 28          	mov    ecx,DWORD PTR [rsp+0x28]
   140012102:	e8 d0 ef ff ff       	call   0x1400110d7
   140012107:	0f b6 44 24 20       	movzx  eax,BYTE PTR [rsp+0x20]
   14001210c:	85 c0                	test   eax,eax
   14001210e:	75 05                	jne    0x140012115
   140012110:	e8 f0 ee ff ff       	call   0x140011005
   140012115:	33 d2                	xor    edx,edx
   140012117:	b1 01                	mov    cl,0x1
   140012119:	e8 d0 f1 ff ff       	call   0x1400112ee
   14001211e:	8b 44 24 28          	mov    eax,DWORD PTR [rsp+0x28]
   140012122:	eb 35                	jmp    0x140012159
   140012124:	89 44 24 24          	mov    DWORD PTR [rsp+0x24],eax
   140012128:	8b 44 24 24          	mov    eax,DWORD PTR [rsp+0x24]
   14001212c:	89 44 24 2c          	mov    DWORD PTR [rsp+0x2c],eax
   140012130:	e8 af f1 ff ff       	call   0x1400112e4
   140012135:	0f b6 c0             	movzx  eax,al
   140012138:	85 c0                	test   eax,eax
   14001213a:	75 09                	jne    0x140012145
   14001213c:	8b 4c 24 2c          	mov    ecx,DWORD PTR [rsp+0x2c]
   140012140:	e8 77 f1 ff ff       	call   0x1400112bc
   140012145:	0f b6 44 24 20       	movzx  eax,BYTE PTR [rsp+0x20]
   14001214a:	85 c0                	test   eax,eax
   14001214c:	75 05                	jne    0x140012153
   14001214e:	e8 87 f1 ff ff       	call   0x1400112da
   140012153:	8b 44 24 2c          	mov    eax,DWORD PTR [rsp+0x2c]
   140012157:	eb 00                	jmp    0x140012159
   140012159:	48 83 c4 68          	add    rsp,0x68
   14001215d:	c3                   	ret    
   14001215e:	cc                   	int3   
   14001215f:	cc                   	int3   
   140012160:	cc                   	int3   
   140012161:	cc                   	int3   
   140012162:	cc                   	int3   
   140012163:	cc                   	int3   
   140012164:	cc                   	int3   
   140012165:	cc                   	int3   
   140012166:	cc                   	int3   
   140012167:	cc                   	int3   
   140012168:	cc                   	int3   
   140012169:	cc                   	int3   
   14001216a:	cc                   	int3   
   14001216b:	cc                   	int3   
   14001216c:	cc                   	int3   
   14001216d:	cc                   	int3   
   14001216e:	cc                   	int3   
   14001216f:	cc                   	int3   
   140012170:	cc                   	int3   
   140012171:	cc                   	int3   
   140012172:	cc                   	int3   
   140012173:	cc                   	int3   
   140012174:	cc                   	int3   
   140012175:	cc                   	int3   
   140012176:	cc                   	int3   
   140012177:	cc                   	int3   
   140012178:	cc                   	int3   
   140012179:	cc                   	int3   
   14001217a:	cc                   	int3   
   14001217b:	cc                   	int3   
   14001217c:	cc                   	int3   
   14001217d:	cc                   	int3   
   14001217e:	cc                   	int3   
   14001217f:	cc                   	int3   
   140012180:	cc                   	int3   
   140012181:	cc                   	int3   
   140012182:	cc                   	int3   
   140012183:	cc                   	int3   
   140012184:	cc                   	int3   
   140012185:	cc                   	int3   
   140012186:	cc                   	int3   
   140012187:	cc                   	int3   
   140012188:	cc                   	int3   
   140012189:	cc                   	int3   
   14001218a:	cc                   	int3   
   14001218b:	cc                   	int3   
   14001218c:	cc                   	int3   
   14001218d:	cc                   	int3   
   14001218e:	cc                   	int3   
   14001218f:	cc                   	int3   
   140012190:	cc                   	int3   
   140012191:	cc                   	int3   
   140012192:	cc                   	int3   
   140012193:	cc                   	int3   
   140012194:	cc                   	int3   
   140012195:	cc                   	int3   
   140012196:	cc                   	int3   
   140012197:	cc                   	int3   
   140012198:	cc                   	int3   
   140012199:	cc                   	int3   
   14001219a:	cc                   	int3   
   14001219b:	cc                   	int3   
   14001219c:	cc                   	int3   
   14001219d:	cc                   	int3   
   14001219e:	cc                   	int3   
   14001219f:	cc                   	int3   
   1400121a0:	cc                   	int3   
   1400121a1:	cc                   	int3   
   1400121a2:	cc                   	int3   
   1400121a3:	cc                   	int3   
   1400121a4:	cc                   	int3   
   1400121a5:	cc                   	int3   
   1400121a6:	cc                   	int3   
   1400121a7:	cc                   	int3   
   1400121a8:	cc                   	int3   
   1400121a9:	cc                   	int3   
   1400121aa:	cc                   	int3   
   1400121ab:	cc                   	int3   
   1400121ac:	cc                   	int3   
   1400121ad:	cc                   	int3   
   1400121ae:	cc                   	int3   
   1400121af:	cc                   	int3   
   1400121b0:	cc                   	int3   
   1400121b1:	cc                   	int3   
   1400121b2:	cc                   	int3   
   1400121b3:	cc                   	int3   
   1400121b4:	cc                   	int3   
   1400121b5:	cc                   	int3   
   1400121b6:	cc                   	int3   
   1400121b7:	cc                   	int3   
   1400121b8:	cc                   	int3   
   1400121b9:	cc                   	int3   
   1400121ba:	cc                   	int3   
   1400121bb:	cc                   	int3   
   1400121bc:	cc                   	int3   
   1400121bd:	cc                   	int3   
   1400121be:	cc                   	int3   
   1400121bf:	cc                   	int3   
   1400121c0:	cc                   	int3   
   1400121c1:	cc                   	int3   
   1400121c2:	cc                   	int3   
   1400121c3:	cc                   	int3   
   1400121c4:	cc                   	int3   
   1400121c5:	cc                   	int3   
   1400121c6:	cc                   	int3   
   1400121c7:	cc                   	int3   
   1400121c8:	cc                   	int3   
   1400121c9:	cc                   	int3   
   1400121ca:	cc                   	int3   
   1400121cb:	cc                   	int3   
   1400121cc:	cc                   	int3   
   1400121cd:	cc                   	int3   
   1400121ce:	cc                   	int3   
   1400121cf:	cc                   	int3   
   1400121d0:	48 83 ec 28          	sub    rsp,0x28
   1400121d4:	e8 b6 f0 ff ff       	call   0x14001128f
   1400121d9:	8b c8                	mov    ecx,eax
   1400121db:	e8 5b ef ff ff       	call   0x14001113b
   1400121e0:	48 83 c4 28          	add    rsp,0x28
   1400121e4:	c3                   	ret    
   1400121e5:	cc                   	int3   
   1400121e6:	cc                   	int3   
   1400121e7:	cc                   	int3   
   1400121e8:	cc                   	int3   
   1400121e9:	cc                   	int3   
   1400121ea:	cc                   	int3   
   1400121eb:	cc                   	int3   
   1400121ec:	cc                   	int3   
   1400121ed:	cc                   	int3   
   1400121ee:	cc                   	int3   
   1400121ef:	cc                   	int3   
   1400121f0:	48 83 ec 28          	sub    rsp,0x28
   1400121f4:	e8 39 ee ff ff       	call   0x140011032
   1400121f9:	48 83 c4 28          	add    rsp,0x28
   1400121fd:	c3                   	ret    
   1400121fe:	cc                   	int3   
   1400121ff:	cc                   	int3   
   140012200:	cc                   	int3   
   140012201:	cc                   	int3   
   140012202:	cc                   	int3   
   140012203:	cc                   	int3   
   140012204:	cc                   	int3   
   140012205:	cc                   	int3   
   140012206:	cc                   	int3   
   140012207:	cc                   	int3   
   140012208:	cc                   	int3   
   140012209:	cc                   	int3   
   14001220a:	cc                   	int3   
   14001220b:	cc                   	int3   
   14001220c:	cc                   	int3   
   14001220d:	cc                   	int3   
   14001220e:	cc                   	int3   
   14001220f:	cc                   	int3   
   140012210:	48 83 ec 48          	sub    rsp,0x48
   140012214:	e8 4b ee ff ff       	call   0x140011064
   140012219:	48 89 44 24 28       	mov    QWORD PTR [rsp+0x28],rax
   14001221e:	e8 81 ef ff ff       	call   0x1400111a4
   140012223:	48 8b 00             	mov    rax,QWORD PTR [rax]
   140012226:	48 89 44 24 30       	mov    QWORD PTR [rsp+0x30],rax
   14001222b:	e8 19 f0 ff ff       	call   0x140011249
   140012230:	8b 00                	mov    eax,DWORD PTR [rax]
   140012232:	89 44 24 20          	mov    DWORD PTR [rsp+0x20],eax
   140012236:	4c 8b 44 24 28       	mov    r8,QWORD PTR [rsp+0x28]
   14001223b:	48 8b 54 24 30       	mov    rdx,QWORD PTR [rsp+0x30]
   140012240:	8b 4c 24 20          	mov    ecx,DWORD PTR [rsp+0x20]
   140012244:	e8 47 ef ff ff       	call   0x140011190
   140012249:	48 83 c4 48          	add    rsp,0x48
   14001224d:	c3                   	ret    
   14001224e:	cc                   	int3   
   14001224f:	cc                   	int3   
   140012250:	cc                   	int3   
   140012251:	cc                   	int3   
   140012252:	cc                   	int3   
   140012253:	cc                   	int3   
   140012254:	cc                   	int3   
   140012255:	cc                   	int3   
   140012256:	cc                   	int3   
   140012257:	cc                   	int3   
   140012258:	cc                   	int3   
   140012259:	cc                   	int3   
   14001225a:	cc                   	int3   
   14001225b:	cc                   	int3   
   14001225c:	cc                   	int3   
   14001225d:	cc                   	int3   
   14001225e:	cc                   	int3   
   14001225f:	cc                   	int3   
   140012260:	48 83 ec 28          	sub    rsp,0x28
   140012264:	b9 01 00 00 00       	mov    ecx,0x1
   140012269:	e8 e1 ee ff ff       	call   0x14001114f
   14001226e:	48 83 c4 28          	add    rsp,0x28
   140012272:	c3                   	ret    
   140012273:	cc                   	int3   
   140012274:	cc                   	int3   
   140012275:	cc                   	int3   
   140012276:	cc                   	int3   
   140012277:	cc                   	int3   
   140012278:	cc                   	int3   
   140012279:	cc                   	int3   
   14001227a:	cc                   	int3   
   14001227b:	cc                   	int3   
   14001227c:	cc                   	int3   
   14001227d:	cc                   	int3   
   14001227e:	cc                   	int3   
   14001227f:	cc                   	int3   
   140012280:	48 83 ec 38          	sub    rsp,0x38
   140012284:	e8 67 ee ff ff       	call   0x1400110f0
   140012289:	89 44 24 20          	mov    DWORD PTR [rsp+0x20],eax
   14001228d:	e8 cd ed ff ff       	call   0x14001105f
   140012292:	8b 4c 24 20          	mov    ecx,DWORD PTR [rsp+0x20]
   140012296:	89 08                	mov    DWORD PTR [rax],ecx
   140012298:	48 83 c4 38          	add    rsp,0x38
   14001229c:	c3                   	ret    
   14001229d:	cc                   	int3   
   14001229e:	cc                   	int3   
   14001229f:	cc                   	int3   
   1400122a0:	cc                   	int3   
   1400122a1:	cc                   	int3   
   1400122a2:	cc                   	int3   
   1400122a3:	cc                   	int3   
   1400122a4:	cc                   	int3   
   1400122a5:	cc                   	int3   
   1400122a6:	cc                   	int3   
   1400122a7:	cc                   	int3   
   1400122a8:	cc                   	int3   
   1400122a9:	cc                   	int3   
   1400122aa:	cc                   	int3   
   1400122ab:	cc                   	int3   
   1400122ac:	cc                   	int3   
   1400122ad:	cc                   	int3   
   1400122ae:	cc                   	int3   
   1400122af:	cc                   	int3   
   1400122b0:	48 83 ec 28          	sub    rsp,0x28
   1400122b4:	e8 b7 f0 ff ff       	call   0x140011370
   1400122b9:	8b c8                	mov    ecx,eax
   1400122bb:	e8 bc ee ff ff       	call   0x14001117c
   1400122c0:	48 83 c4 28          	add    rsp,0x28
   1400122c4:	c3                   	ret    
   1400122c5:	cc                   	int3   
   1400122c6:	cc                   	int3   
   1400122c7:	cc                   	int3   
   1400122c8:	cc                   	int3   
   1400122c9:	cc                   	int3   
   1400122ca:	cc                   	int3   
   1400122cb:	cc                   	int3   
   1400122cc:	cc                   	int3   
   1400122cd:	cc                   	int3   
   1400122ce:	cc                   	int3   
   1400122cf:	cc                   	int3   
   1400122d0:	48 83 ec 28          	sub    rsp,0x28
   1400122d4:	e8 c7 fc ff ff       	call   0x140011fa0
   1400122d9:	48 83 c4 28          	add    rsp,0x28
   1400122dd:	c3                   	ret    
   1400122de:	cc                   	int3   
   1400122df:	cc                   	int3   
   1400122e0:	cc                   	int3   
   1400122e1:	cc                   	int3   
   1400122e2:	cc                   	int3   
   1400122e3:	cc                   	int3   
   1400122e4:	cc                   	int3   
   1400122e5:	cc                   	int3   
   1400122e6:	cc                   	int3   
   1400122e7:	cc                   	int3   
   1400122e8:	cc                   	int3   
   1400122e9:	cc                   	int3   
   1400122ea:	cc                   	int3   
   1400122eb:	cc                   	int3   
   1400122ec:	cc                   	int3   
   1400122ed:	cc                   	int3   
   1400122ee:	cc                   	int3   
   1400122ef:	cc                   	int3   
   1400122f0:	48 83 ec 58          	sub    rsp,0x58
   1400122f4:	89 4c 24 28          	mov    DWORD PTR [rsp+0x28],ecx
   1400122f8:	48 8d 44 24 60       	lea    rax,[rsp+0x60]
   1400122fd:	48 8d 4c 24 20       	lea    rcx,[rsp+0x20]
   140012302:	48 89 44 24 30       	mov    QWORD PTR [rsp+0x30],rax
   140012307:	c6 44 24 60 00       	mov    BYTE PTR [rsp+0x60],0x0
   14001230c:	c7 44 24 20 01 10 00 	mov    DWORD PTR [rsp+0x20],0x1001
   140012313:	00 
   140012314:	e8 b7 07 00 00       	call   0x140012ad0
   140012319:	80 7c 24 60 00       	cmp    BYTE PTR [rsp+0x60],0x0
   14001231e:	0f 95 c0             	setne  al
   140012321:	48 83 c4 58          	add    rsp,0x58
   140012325:	c3                   	ret    
   140012326:	cc                   	int3   
   140012327:	cc                   	int3   
   140012328:	cc                   	int3   
   140012329:	cc                   	int3   
   14001232a:	cc                   	int3   
   14001232b:	cc                   	int3   
   14001232c:	cc                   	int3   
   14001232d:	cc                   	int3   
   14001232e:	cc                   	int3   
   14001232f:	cc                   	int3   
   140012330:	cc                   	int3   
   140012331:	cc                   	int3   
   140012332:	cc                   	int3   
   140012333:	cc                   	int3   
   140012334:	cc                   	int3   
   140012335:	cc                   	int3   
   140012336:	cc                   	int3   
   140012337:	cc                   	int3   
   140012338:	cc                   	int3   
   140012339:	cc                   	int3   
   14001233a:	cc                   	int3   
   14001233b:	cc                   	int3   
   14001233c:	cc                   	int3   
   14001233d:	cc                   	int3   
   14001233e:	cc                   	int3   
   14001233f:	cc                   	int3   
   140012340:	48 83 ec 58          	sub    rsp,0x58
   140012344:	89 4c 24 28          	mov    DWORD PTR [rsp+0x28],ecx
   140012348:	48 8d 44 24 60       	lea    rax,[rsp+0x60]
   14001234d:	48 8d 4c 24 20       	lea    rcx,[rsp+0x20]
   140012352:	48 89 44 24 38       	mov    QWORD PTR [rsp+0x38],rax
   140012357:	c6 44 24 60 00       	mov    BYTE PTR [rsp+0x60],0x0
   14001235c:	c7 44 24 20 02 10 00 	mov    DWORD PTR [rsp+0x20],0x1002
   140012363:	00 
   140012364:	89 54 24 2c          	mov    DWORD PTR [rsp+0x2c],edx
   140012368:	4c 89 44 24 30       	mov    QWORD PTR [rsp+0x30],r8
   14001236d:	4c 89 4c 24 40       	mov    QWORD PTR [rsp+0x40],r9
   140012372:	e8 59 07 00 00       	call   0x140012ad0
   140012377:	80 7c 24 60 00       	cmp    BYTE PTR [rsp+0x60],0x0
   14001237c:	0f 95 c0             	setne  al
   14001237f:	48 83 c4 58          	add    rsp,0x58
   140012383:	c3                   	ret    
   140012384:	cc                   	int3   
   140012385:	cc                   	int3   
   140012386:	cc                   	int3   
   140012387:	cc                   	int3   
   140012388:	cc                   	int3   
   140012389:	cc                   	int3   
   14001238a:	cc                   	int3   
   14001238b:	cc                   	int3   
   14001238c:	cc                   	int3   
   14001238d:	cc                   	int3   
   14001238e:	cc                   	int3   
   14001238f:	cc                   	int3   
   140012390:	cc                   	int3   
   140012391:	cc                   	int3   
   140012392:	cc                   	int3   
   140012393:	cc                   	int3   
   140012394:	cc                   	int3   
   140012395:	cc                   	int3   
   140012396:	cc                   	int3   
   140012397:	cc                   	int3   
   140012398:	cc                   	int3   
   140012399:	cc                   	int3   
   14001239a:	cc                   	int3   
   14001239b:	cc                   	int3   
   14001239c:	cc                   	int3   
   14001239d:	cc                   	int3   
   14001239e:	cc                   	int3   
   14001239f:	cc                   	int3   
   1400123a0:	40 55                	rex push rbp
   1400123a2:	56                   	push   rsi
   1400123a3:	57                   	push   rdi
   1400123a4:	41 56                	push   r14
   1400123a6:	48 81 ec f8 01 00 00 	sub    rsp,0x1f8
   1400123ad:	48 8b 05 54 9c 00 00 	mov    rax,QWORD PTR [rip+0x9c54]        # 0x14001c008
   1400123b4:	48 33 c4             	xor    rax,rsp
   1400123b7:	48 89 84 24 e0 01 00 	mov    QWORD PTR [rsp+0x1e0],rax
   1400123be:	00 
   1400123bf:	8b 3d 63 9c 00 00    	mov    edi,DWORD PTR [rip+0x9c63]        # 0x14001c028
   1400123c5:	45 8b f0             	mov    r14d,r8d
   1400123c8:	48 8b f2             	mov    rsi,rdx
   1400123cb:	48 8b e9             	mov    rbp,rcx
   1400123ce:	83 ff ff             	cmp    edi,0xffffffff
   1400123d1:	0f 84 01 01 00 00    	je     0x1400124d8
   1400123d7:	48 85 d2             	test   rdx,rdx
   1400123da:	75 17                	jne    0x1400123f3
   1400123dc:	44 8d 42 04          	lea    r8d,[rdx+0x4]
   1400123e0:	8b d7                	mov    edx,edi
   1400123e2:	4c 8d 0d d7 7d 00 00 	lea    r9,[rip+0x7dd7]        # 0x14001a1c0
   1400123e9:	e8 e2 03 00 00       	call   0x1400127d0
   1400123ee:	e9 e5 00 00 00       	jmp    0x1400124d8
   1400123f3:	4c 8b 4a 0c          	mov    r9,QWORD PTR [rdx+0xc]
   1400123f7:	48 8d 8c 24 80 00 00 	lea    rcx,[rsp+0x80]
   1400123fe:	00 
   1400123ff:	48 89 9c 24 f0 01 00 	mov    QWORD PTR [rsp+0x1f0],rbx
   140012406:	00 
   140012407:	49 83 e9 24          	sub    r9,0x24
   14001240b:	48 8d 5a 20          	lea    rbx,[rdx+0x20]
   14001240f:	4c 8b c3             	mov    r8,rbx
   140012412:	48 8d 94 24 98 00 00 	lea    rdx,[rsp+0x98]
   140012419:	00 
   14001241a:	e8 b1 02 00 00       	call   0x1400126d0
   14001241f:	48 8b 46 0c          	mov    rax,QWORD PTR [rsi+0xc]
   140012423:	48 8d 0d ee 7d 00 00 	lea    rcx,[rip+0x7dee]        # 0x14001a218
   14001242a:	48 89 4c 24 70       	mov    QWORD PTR [rsp+0x70],rcx
   14001242f:	4c 8d 0d 5a 7e 00 00 	lea    r9,[rip+0x7e5a]        # 0x14001a290
   140012436:	48 83 e8 24          	sub    rax,0x24
   14001243a:	48 8d 8c 24 98 00 00 	lea    rcx,[rsp+0x98]
   140012441:	00 
   140012442:	48 89 4c 24 68       	mov    QWORD PTR [rsp+0x68],rcx
   140012447:	4c 8d 05 9a 7e 00 00 	lea    r8,[rip+0x7e9a]        # 0x14001a2e8
   14001244e:	48 8d 0d c7 7d 00 00 	lea    rcx,[rip+0x7dc7]        # 0x14001a21c
   140012455:	ba 06 01 00 00       	mov    edx,0x106
   14001245a:	48 89 4c 24 60       	mov    QWORD PTR [rsp+0x60],rcx
   14001245f:	48 8d 8c 24 80 00 00 	lea    rcx,[rsp+0x80]
   140012466:	00 
   140012467:	48 89 4c 24 58       	mov    QWORD PTR [rsp+0x58],rcx
   14001246c:	48 8d 0d ad 7d 00 00 	lea    rcx,[rip+0x7dad]        # 0x14001a220
   140012473:	48 89 4c 24 50       	mov    QWORD PTR [rsp+0x50],rcx
   140012478:	48 8d 0d b1 7d 00 00 	lea    rcx,[rip+0x7db1]        # 0x14001a230
   14001247f:	44 89 74 24 48       	mov    DWORD PTR [rsp+0x48],r14d
   140012484:	48 89 4c 24 40       	mov    QWORD PTR [rsp+0x40],rcx
   140012489:	48 8d 8c 24 d0 00 00 	lea    rcx,[rsp+0xd0]
   140012490:	00 
   140012491:	48 89 44 24 38       	mov    QWORD PTR [rsp+0x38],rax
   140012496:	48 8d 05 cb 7d 00 00 	lea    rax,[rip+0x7dcb]        # 0x14001a268
   14001249d:	48 89 44 24 30       	mov    QWORD PTR [rsp+0x30],rax
   1400124a2:	48 8d 05 cf 7d 00 00 	lea    rax,[rip+0x7dcf]        # 0x14001a278
   1400124a9:	48 89 5c 24 28       	mov    QWORD PTR [rsp+0x28],rbx
   1400124ae:	48 89 44 24 20       	mov    QWORD PTR [rsp+0x20],rax
   1400124b3:	e8 b3 ee ff ff       	call   0x14001136b
   1400124b8:	4c 8d 8c 24 d0 00 00 	lea    r9,[rsp+0xd0]
   1400124bf:	00 
   1400124c0:	41 b8 04 00 00 00    	mov    r8d,0x4
   1400124c6:	8b d7                	mov    edx,edi
   1400124c8:	48 8b cd             	mov    rcx,rbp
   1400124cb:	e8 00 03 00 00       	call   0x1400127d0
   1400124d0:	48 8b 9c 24 f0 01 00 	mov    rbx,QWORD PTR [rsp+0x1f0]
   1400124d7:	00 
   1400124d8:	48 8b 8c 24 e0 01 00 	mov    rcx,QWORD PTR [rsp+0x1e0]
   1400124df:	00 
   1400124e0:	48 33 cc             	xor    rcx,rsp
   1400124e3:	e8 ea eb ff ff       	call   0x1400110d2
   1400124e8:	48 81 c4 f8 01 00 00 	add    rsp,0x1f8
   1400124ef:	41 5e                	pop    r14
   1400124f1:	5f                   	pop    rdi
   1400124f2:	5e                   	pop    rsi
   1400124f3:	5d                   	pop    rbp
   1400124f4:	c3                   	ret    
   1400124f5:	cc                   	int3   
   1400124f6:	cc                   	int3   
   1400124f7:	cc                   	int3   
   1400124f8:	cc                   	int3   
   1400124f9:	cc                   	int3   
   1400124fa:	cc                   	int3   
   1400124fb:	cc                   	int3   
   1400124fc:	cc                   	int3   
   1400124fd:	cc                   	int3   
   1400124fe:	cc                   	int3   
   1400124ff:	cc                   	int3   
   140012500:	cc                   	int3   
   140012501:	cc                   	int3   
   140012502:	cc                   	int3   
   140012503:	cc                   	int3   
   140012504:	cc                   	int3   
   140012505:	cc                   	int3   
   140012506:	cc                   	int3   
   140012507:	cc                   	int3   
   140012508:	cc                   	int3   
   140012509:	cc                   	int3   
   14001250a:	cc                   	int3   
   14001250b:	cc                   	int3   
   14001250c:	cc                   	int3   
   14001250d:	cc                   	int3   
   14001250e:	cc                   	int3   
   14001250f:	cc                   	int3   
   140012510:	cc                   	int3   
   140012511:	cc                   	int3   
   140012512:	cc                   	int3   
   140012513:	cc                   	int3   
   140012514:	cc                   	int3   
   140012515:	cc                   	int3   
   140012516:	cc                   	int3   
   140012517:	cc                   	int3   
   140012518:	cc                   	int3   
   140012519:	cc                   	int3   
   14001251a:	cc                   	int3   
   14001251b:	cc                   	int3   
   14001251c:	cc                   	int3   
   14001251d:	cc                   	int3   
   14001251e:	cc                   	int3   
   14001251f:	cc                   	int3   
   140012520:	cc                   	int3   
   140012521:	cc                   	int3   
   140012522:	cc                   	int3   
   140012523:	cc                   	int3   
   140012524:	cc                   	int3   
   140012525:	cc                   	int3   
   140012526:	cc                   	int3   
   140012527:	cc                   	int3   
   140012528:	cc                   	int3   
   140012529:	cc                   	int3   
   14001252a:	cc                   	int3   
   14001252b:	cc                   	int3   
   14001252c:	cc                   	int3   
   14001252d:	cc                   	int3   
   14001252e:	cc                   	int3   
   14001252f:	cc                   	int3   
   140012530:	cc                   	int3   
   140012531:	cc                   	int3   
   140012532:	cc                   	int3   
   140012533:	cc                   	int3   
   140012534:	cc                   	int3   
   140012535:	cc                   	int3   
   140012536:	cc                   	int3   
   140012537:	cc                   	int3   
   140012538:	cc                   	int3   
   140012539:	cc                   	int3   
   14001253a:	cc                   	int3   
   14001253b:	cc                   	int3   
   14001253c:	cc                   	int3   
   14001253d:	cc                   	int3   
   14001253e:	cc                   	int3   
   14001253f:	cc                   	int3   
   140012540:	cc                   	int3   
   140012541:	cc                   	int3   
   140012542:	cc                   	int3   
   140012543:	cc                   	int3   
   140012544:	cc                   	int3   
   140012545:	cc                   	int3   
   140012546:	cc                   	int3   
   140012547:	cc                   	int3   
   140012548:	cc                   	int3   
   140012549:	cc                   	int3   
   14001254a:	cc                   	int3   
   14001254b:	cc                   	int3   
   14001254c:	cc                   	int3   
   14001254d:	cc                   	int3   
   14001254e:	cc                   	int3   
   14001254f:	cc                   	int3   
   140012550:	83 fa 04             	cmp    edx,0x4
   140012553:	77 2b                	ja     0x140012580
   140012555:	48 63 c2             	movsxd rax,edx
   140012558:	4c 8d 0d a1 da fe ff 	lea    r9,[rip+0xfffffffffffedaa1]        # 0x140000000
   14001255f:	45 8b 94 81 18 c0 01 	mov    r10d,DWORD PTR [r9+rax*4+0x1c018]
   140012566:	00 
   140012567:	4d 8b 8c c1 40 9c 01 	mov    r9,QWORD PTR [r9+rax*8+0x19c40]
   14001256e:	00 
   14001256f:	41 83 fa ff          	cmp    r10d,0xffffffff
   140012573:	74 28                	je     0x14001259d
   140012575:	44 8b c2             	mov    r8d,edx
   140012578:	41 8b d2             	mov    edx,r10d
   14001257b:	e9 50 02 00 00       	jmp    0x1400127d0
   140012580:	4c 8b 0d e1 76 00 00 	mov    r9,QWORD PTR [rip+0x76e1]        # 0x140019c68
   140012587:	ba 05 00 00 00       	mov    edx,0x5
   14001258c:	41 ba 01 00 00 00    	mov    r10d,0x1
   140012592:	44 8b c2             	mov    r8d,edx
   140012595:	41 8b d2             	mov    edx,r10d
   140012598:	e9 33 02 00 00       	jmp    0x1400127d0
   14001259d:	c3                   	ret    
   14001259e:	cc                   	int3   
   14001259f:	cc                   	int3   
   1400125a0:	cc                   	int3   
   1400125a1:	cc                   	int3   
   1400125a2:	cc                   	int3   
   1400125a3:	cc                   	int3   
   1400125a4:	cc                   	int3   
   1400125a5:	cc                   	int3   
   1400125a6:	cc                   	int3   
   1400125a7:	cc                   	int3   
   1400125a8:	cc                   	int3   
   1400125a9:	cc                   	int3   
   1400125aa:	cc                   	int3   
   1400125ab:	cc                   	int3   
   1400125ac:	cc                   	int3   
   1400125ad:	cc                   	int3   
   1400125ae:	cc                   	int3   
   1400125af:	cc                   	int3   
   1400125b0:	cc                   	int3   
   1400125b1:	cc                   	int3   
   1400125b2:	cc                   	int3   
   1400125b3:	cc                   	int3   
   1400125b4:	cc                   	int3   
   1400125b5:	cc                   	int3   
   1400125b6:	cc                   	int3   
   1400125b7:	cc                   	int3   
   1400125b8:	cc                   	int3   
   1400125b9:	cc                   	int3   
   1400125ba:	cc                   	int3   
   1400125bb:	cc                   	int3   
   1400125bc:	cc                   	int3   
   1400125bd:	cc                   	int3   
   1400125be:	cc                   	int3   
   1400125bf:	cc                   	int3   
   1400125c0:	48 89 5c 24 18       	mov    QWORD PTR [rsp+0x18],rbx
   1400125c5:	48 89 74 24 20       	mov    QWORD PTR [rsp+0x20],rsi
   1400125ca:	57                   	push   rdi
   1400125cb:	48 81 ec 30 04 00 00 	sub    rsp,0x430
   1400125d2:	48 8b 05 2f 9a 00 00 	mov    rax,QWORD PTR [rip+0x9a2f]        # 0x14001c008
   1400125d9:	48 33 c4             	xor    rax,rsp
   1400125dc:	48 89 84 24 20 04 00 	mov    QWORD PTR [rsp+0x420],rax
   1400125e3:	00 
   1400125e4:	8b 3d 36 9a 00 00    	mov    edi,DWORD PTR [rip+0x9a36]        # 0x14001c020
   1400125ea:	48 8b da             	mov    rbx,rdx
   1400125ed:	48 8b f1             	mov    rsi,rcx
   1400125f0:	83 ff ff             	cmp    edi,0xffffffff
   1400125f3:	74 75                	je     0x14001266a
   1400125f5:	80 3a 00             	cmp    BYTE PTR [rdx],0x0
   1400125f8:	74 59                	je     0x140012653
   1400125fa:	48 8b ca             	mov    rcx,rdx
   1400125fd:	e8 ae 01 00 00       	call   0x1400127b0
   140012602:	48 83 c0 2d          	add    rax,0x2d
   140012606:	48 3d 00 04 00 00    	cmp    rax,0x400
   14001260c:	77 45                	ja     0x140012653
   14001260e:	4c 8d 05 73 76 00 00 	lea    r8,[rip+0x7673]        # 0x140019c88
   140012615:	ba 00 04 00 00       	mov    edx,0x400
   14001261a:	48 8d 4c 24 20       	lea    rcx,[rsp+0x20]
   14001261f:	e8 b2 eb ff ff       	call   0x1400111d6
   140012624:	4c 8b c3             	mov    r8,rbx
   140012627:	48 8d 4c 24 20       	lea    rcx,[rsp+0x20]
   14001262c:	ba 00 04 00 00       	mov    edx,0x400
   140012631:	e8 eb eb ff ff       	call   0x140011221
   140012636:	4c 8d 05 6b 76 00 00 	lea    r8,[rip+0x766b]        # 0x140019ca8
   14001263d:	ba 00 04 00 00       	mov    edx,0x400
   140012642:	48 8d 4c 24 20       	lea    rcx,[rsp+0x20]
   140012647:	e8 d5 eb ff ff       	call   0x140011221
   14001264c:	4c 8d 4c 24 20       	lea    r9,[rsp+0x20]
   140012651:	eb 07                	jmp    0x14001265a
   140012653:	4c 8d 0d 2e 7b 00 00 	lea    r9,[rip+0x7b2e]        # 0x14001a188
   14001265a:	41 b8 02 00 00 00    	mov    r8d,0x2
   140012660:	8b d7                	mov    edx,edi
   140012662:	48 8b ce             	mov    rcx,rsi
   140012665:	e8 66 01 00 00       	call   0x1400127d0
   14001266a:	48 8b 8c 24 20 04 00 	mov    rcx,QWORD PTR [rsp+0x420]
   140012671:	00 
   140012672:	48 33 cc             	xor    rcx,rsp
   140012675:	e8 58 ea ff ff       	call   0x1400110d2
   14001267a:	4c 8d 9c 24 30 04 00 	lea    r11,[rsp+0x430]
   140012681:	00 
   140012682:	49 8b 5b 20          	mov    rbx,QWORD PTR [r11+0x20]
   140012686:	49 8b 73 28          	mov    rsi,QWORD PTR [r11+0x28]
   14001268a:	49 8b e3             	mov    rsp,r11
   14001268d:	5f                   	pop    rdi
   14001268e:	c3                   	ret    
   14001268f:	cc                   	int3   
   140012690:	cc                   	int3   
   140012691:	cc                   	int3   
   140012692:	cc                   	int3   
   140012693:	cc                   	int3   
   140012694:	cc                   	int3   
   140012695:	cc                   	int3   
   140012696:	cc                   	int3   
   140012697:	cc                   	int3   
   140012698:	cc                   	int3   
   140012699:	cc                   	int3   
   14001269a:	cc                   	int3   
   14001269b:	cc                   	int3   
   14001269c:	cc                   	int3   
   14001269d:	cc                   	int3   
   14001269e:	cc                   	int3   
   14001269f:	cc                   	int3   
   1400126a0:	cc                   	int3   
   1400126a1:	cc                   	int3   
   1400126a2:	cc                   	int3   
   1400126a3:	cc                   	int3   
   1400126a4:	cc                   	int3   
   1400126a5:	cc                   	int3   
   1400126a6:	cc                   	int3   
   1400126a7:	cc                   	int3   
   1400126a8:	cc                   	int3   
   1400126a9:	cc                   	int3   
   1400126aa:	cc                   	int3   
   1400126ab:	cc                   	int3   
   1400126ac:	cc                   	int3   
   1400126ad:	cc                   	int3   
   1400126ae:	cc                   	int3   
   1400126af:	cc                   	int3   
   1400126b0:	cc                   	int3   
   1400126b1:	cc                   	int3   
   1400126b2:	cc                   	int3   
   1400126b3:	cc                   	int3   
   1400126b4:	cc                   	int3   
   1400126b5:	cc                   	int3   
   1400126b6:	cc                   	int3   
   1400126b7:	cc                   	int3   
   1400126b8:	cc                   	int3   
   1400126b9:	cc                   	int3   
   1400126ba:	cc                   	int3   
   1400126bb:	cc                   	int3   
   1400126bc:	cc                   	int3   
   1400126bd:	cc                   	int3   
   1400126be:	cc                   	int3   
   1400126bf:	cc                   	int3   
   1400126c0:	cc                   	int3   
   1400126c1:	cc                   	int3   
   1400126c2:	cc                   	int3   
   1400126c3:	cc                   	int3   
   1400126c4:	cc                   	int3   
   1400126c5:	cc                   	int3   
   1400126c6:	cc                   	int3   
   1400126c7:	cc                   	int3   
   1400126c8:	cc                   	int3   
   1400126c9:	cc                   	int3   
   1400126ca:	cc                   	int3   
   1400126cb:	cc                   	int3   
   1400126cc:	cc                   	int3   
   1400126cd:	cc                   	int3   
   1400126ce:	cc                   	int3   
   1400126cf:	cc                   	int3   
   1400126d0:	48 89 54 24 10       	mov    QWORD PTR [rsp+0x10],rdx
   1400126d5:	56                   	push   rsi
   1400126d6:	41 54                	push   r12
   1400126d8:	41 55                	push   r13
   1400126da:	41 57                	push   r15
   1400126dc:	48 83 ec 28          	sub    rsp,0x28
   1400126e0:	45 33 ff             	xor    r15d,r15d
   1400126e3:	be 10 00 00 00       	mov    esi,0x10
   1400126e8:	4c 3b ce             	cmp    r9,rsi
   1400126eb:	4d 8b e0             	mov    r12,r8
   1400126ee:	48 8b c2             	mov    rax,rdx
   1400126f1:	4c 8b e9             	mov    r13,rcx
   1400126f4:	49 0f 42 f1          	cmovb  rsi,r9
   1400126f8:	48 85 f6             	test   rsi,rsi
   1400126fb:	74 6b                	je     0x140012768
   1400126fd:	48 89 5c 24 50       	mov    QWORD PTR [rsp+0x50],rbx
   140012702:	4c 2b e1             	sub    r12,rcx
   140012705:	48 89 6c 24 60       	mov    QWORD PTR [rsp+0x60],rbp
   14001270a:	48 8b ea             	mov    rbp,rdx
   14001270d:	48 89 7c 24 68       	mov    QWORD PTR [rsp+0x68],rdi
   140012712:	48 8b f9             	mov    rdi,rcx
   140012715:	4c 89 74 24 20       	mov    QWORD PTR [rsp+0x20],r14
   14001271a:	45 8d 77 31          	lea    r14d,[r15+0x31]
   14001271e:	4c 8b fe             	mov    r15,rsi
   140012721:	41 0f b6 1c 3c       	movzx  ebx,BYTE PTR [r12+rdi*1]
   140012726:	4c 8d 05 8b 7a 00 00 	lea    r8,[rip+0x7a8b]        # 0x14001a1b8
   14001272d:	44 8b cb             	mov    r9d,ebx
   140012730:	49 8b d6             	mov    rdx,r14
   140012733:	48 8b cd             	mov    rcx,rbp
   140012736:	e8 30 ec ff ff       	call   0x14001136b
   14001273b:	49 83 ee 03          	sub    r14,0x3
   14001273f:	88 1f                	mov    BYTE PTR [rdi],bl
   140012741:	48 83 c5 03          	add    rbp,0x3
   140012745:	48 8d 7f 01          	lea    rdi,[rdi+0x1]
   140012749:	48 83 ee 01          	sub    rsi,0x1
   14001274d:	75 d2                	jne    0x140012721
   14001274f:	48 8b 44 24 58       	mov    rax,QWORD PTR [rsp+0x58]
   140012754:	4c 8b 74 24 20       	mov    r14,QWORD PTR [rsp+0x20]
   140012759:	48 8b 7c 24 68       	mov    rdi,QWORD PTR [rsp+0x68]
   14001275e:	48 8b 6c 24 60       	mov    rbp,QWORD PTR [rsp+0x60]
   140012763:	48 8b 5c 24 50       	mov    rbx,QWORD PTR [rsp+0x50]
   140012768:	4a 8d 04 78          	lea    rax,[rax+r15*2]
   14001276c:	43 c6 04 2f 00       	mov    BYTE PTR [r15+r13*1],0x0
   140012771:	41 c6 04 07 00       	mov    BYTE PTR [r15+rax*1],0x0
   140012776:	48 83 c4 28          	add    rsp,0x28
   14001277a:	41 5f                	pop    r15
   14001277c:	41 5d                	pop    r13
   14001277e:	41 5c                	pop    r12
   140012780:	5e                   	pop    rsi
   140012781:	c3                   	ret    
   140012782:	cc                   	int3   
   140012783:	cc                   	int3   
   140012784:	cc                   	int3   
   140012785:	cc                   	int3   
   140012786:	cc                   	int3   
   140012787:	cc                   	int3   
   140012788:	cc                   	int3   
   140012789:	cc                   	int3   
   14001278a:	cc                   	int3   
   14001278b:	cc                   	int3   
   14001278c:	cc                   	int3   
   14001278d:	cc                   	int3   
   14001278e:	cc                   	int3   
   14001278f:	cc                   	int3   
   140012790:	cc                   	int3   
   140012791:	cc                   	int3   
   140012792:	cc                   	int3   
   140012793:	cc                   	int3   
   140012794:	cc                   	int3   
   140012795:	cc                   	int3   
   140012796:	cc                   	int3   
   140012797:	cc                   	int3   
   140012798:	cc                   	int3   
   140012799:	cc                   	int3   
   14001279a:	cc                   	int3   
   14001279b:	cc                   	int3   
   14001279c:	cc                   	int3   
   14001279d:	cc                   	int3   
   14001279e:	cc                   	int3   
   14001279f:	cc                   	int3   
   1400127a0:	cc                   	int3   
   1400127a1:	cc                   	int3   
   1400127a2:	cc                   	int3   
   1400127a3:	cc                   	int3   
   1400127a4:	cc                   	int3   
   1400127a5:	cc                   	int3   
   1400127a6:	cc                   	int3   
   1400127a7:	cc                   	int3   
   1400127a8:	cc                   	int3   
   1400127a9:	cc                   	int3   
   1400127aa:	cc                   	int3   
   1400127ab:	cc                   	int3   
   1400127ac:	cc                   	int3   
   1400127ad:	cc                   	int3   
   1400127ae:	cc                   	int3   
   1400127af:	cc                   	int3   
   1400127b0:	48 8b c1             	mov    rax,rcx
   1400127b3:	0f b6 10             	movzx  edx,BYTE PTR [rax]
   1400127b6:	48 ff c0             	inc    rax
   1400127b9:	84 d2                	test   dl,dl
   1400127bb:	75 f6                	jne    0x1400127b3
   1400127bd:	48 2b c1             	sub    rax,rcx
   1400127c0:	48 ff c8             	dec    rax
   1400127c3:	c3                   	ret    
   1400127c4:	cc                   	int3   
   1400127c5:	cc                   	int3   
   1400127c6:	cc                   	int3   
   1400127c7:	cc                   	int3   
   1400127c8:	cc                   	int3   
   1400127c9:	cc                   	int3   
   1400127ca:	cc                   	int3   
   1400127cb:	cc                   	int3   
   1400127cc:	cc                   	int3   
   1400127cd:	cc                   	int3   
   1400127ce:	cc                   	int3   
   1400127cf:	cc                   	int3   
   1400127d0:	40 53                	rex push rbx
   1400127d2:	55                   	push   rbp
   1400127d3:	57                   	push   rdi
   1400127d4:	41 54                	push   r12
   1400127d6:	41 55                	push   r13
   1400127d8:	41 56                	push   r14
   1400127da:	41 57                	push   r15
   1400127dc:	48 81 ec b0 0e 00 00 	sub    rsp,0xeb0
   1400127e3:	48 8b 05 1e 98 00 00 	mov    rax,QWORD PTR [rip+0x981e]        # 0x14001c008
   1400127ea:	48 33 c4             	xor    rax,rsp
   1400127ed:	48 89 84 24 90 0e 00 	mov    QWORD PTR [rsp+0xe90],rax
   1400127f4:	00 
   1400127f5:	45 33 ed             	xor    r13d,r13d
   1400127f8:	49 63 e8             	movsxd rbp,r8d
   1400127fb:	45 8b f5             	mov    r14d,r13d
   1400127fe:	4d 8b f9             	mov    r15,r9
   140012801:	44 8b e2             	mov    r12d,edx
   140012804:	48 8b d9             	mov    rbx,rcx
   140012807:	e8 0f eb ff ff       	call   0x14001131b
   14001280c:	48 8b f8             	mov    rdi,rax
   14001280f:	48 85 c0             	test   rax,rax
   140012812:	75 0b                	jne    0x14001281f
   140012814:	48 8b cb             	mov    rcx,rbx
   140012817:	e8 3b eb ff ff       	call   0x140011357
   14001281c:	4c 8b f0             	mov    r14,rax
   14001281f:	44 89 6c 24 28       	mov    DWORD PTR [rsp+0x28],r13d
   140012824:	41 b9 ff ff ff ff    	mov    r9d,0xffffffff
   14001282a:	4d 8b c7             	mov    r8,r15
   14001282d:	4c 89 6c 24 20       	mov    QWORD PTR [rsp+0x20],r13
   140012832:	33 d2                	xor    edx,edx
   140012834:	48 89 b4 24 a8 0e 00 	mov    QWORD PTR [rsp+0xea8],rsi
   14001283b:	00 
   14001283c:	b9 e9 fd 00 00       	mov    ecx,0xfde9
   140012841:	ff 15 d1 d7 00 00    	call   QWORD PTR [rip+0xd7d1]        # 0x140020018
   140012847:	48 63 c8             	movsxd rcx,eax
   14001284a:	48 81 f9 00 02 00 00 	cmp    rcx,0x200
   140012851:	73 33                	jae    0x140012886
   140012853:	89 44 24 28          	mov    DWORD PTR [rsp+0x28],eax
   140012857:	41 b9 ff ff ff ff    	mov    r9d,0xffffffff
   14001285d:	48 8d 84 24 90 0a 00 	lea    rax,[rsp+0xa90]
   140012864:	00 
   140012865:	4d 8b c7             	mov    r8,r15
   140012868:	33 d2                	xor    edx,edx
   14001286a:	48 89 44 24 20       	mov    QWORD PTR [rsp+0x20],rax
   14001286f:	b9 e9 fd 00 00       	mov    ecx,0xfde9
   140012874:	ff 15 9e d7 00 00    	call   QWORD PTR [rip+0xd79e]        # 0x140020018
   14001287a:	48 8d b4 24 90 0a 00 	lea    rsi,[rsp+0xa90]
   140012881:	00 
   140012882:	85 c0                	test   eax,eax
   140012884:	75 07                	jne    0x14001288d
   140012886:	48 8d 35 c3 77 00 00 	lea    rsi,[rip+0x77c3]        # 0x14001a050
   14001288d:	b9 02 10 00 00       	mov    ecx,0x1002
   140012892:	e8 59 fa ff ff       	call   0x1400122f0
   140012897:	84 c0                	test   al,al
   140012899:	74 21                	je     0x1400128bc
   14001289b:	48 8d 0d ce 73 00 00 	lea    rcx,[rip+0x73ce]        # 0x140019c70
   1400128a2:	4c 8b ce             	mov    r9,rsi
   1400128a5:	8b 14 a9             	mov    edx,DWORD PTR [rcx+rbp*4]
   1400128a8:	4c 8b c3             	mov    r8,rbx
   1400128ab:	8b cd                	mov    ecx,ebp
   1400128ad:	e8 8e fa ff ff       	call   0x140012340
   1400128b2:	84 c0                	test   al,al
   1400128b4:	0f 85 4b 01 00 00    	jne    0x140012a05
   1400128ba:	eb 02                	jmp    0x1400128be
   1400128bc:	b0 01                	mov    al,0x1
   1400128be:	4d 85 f6             	test   r14,r14
   1400128c1:	75 09                	jne    0x1400128cc
   1400128c3:	48 85 ff             	test   rdi,rdi
   1400128c6:	0f 84 38 01 00 00    	je     0x140012a04
   1400128cc:	84 c0                	test   al,al
   1400128ce:	74 0e                	je     0x1400128de
   1400128d0:	ff 15 32 d7 00 00    	call   QWORD PTR [rip+0xd732]        # 0x140020008
   1400128d6:	85 c0                	test   eax,eax
   1400128d8:	0f 85 26 01 00 00    	jne    0x140012a04
   1400128de:	48 8d 84 24 60 02 00 	lea    rax,[rsp+0x260]
   1400128e5:	00 
   1400128e6:	c7 44 24 28 04 01 00 	mov    DWORD PTR [rsp+0x28],0x104
   1400128ed:	00 
   1400128ee:	48 8d 4b fb          	lea    rcx,[rbx-0x5]
   1400128f2:	48 89 44 24 20       	mov    QWORD PTR [rsp+0x20],rax
   1400128f7:	4c 8d 4c 24 40       	lea    r9,[rsp+0x40]
   1400128fc:	41 b8 04 01 00 00    	mov    r8d,0x104
   140012902:	48 8d 54 24 50       	lea    rdx,[rsp+0x50]
   140012907:	e8 49 e7 ff ff       	call   0x140011055
   14001290c:	48 85 ff             	test   rdi,rdi
   14001290f:	74 2a                	je     0x14001293b
   140012911:	48 89 74 24 30       	mov    QWORD PTR [rsp+0x30],rsi
   140012916:	48 8d 05 c3 77 00 00 	lea    rax,[rip+0x77c3]        # 0x14001a0e0
   14001291d:	89 6c 24 28          	mov    DWORD PTR [rsp+0x28],ebp
   140012921:	4c 8d 8c 24 60 02 00 	lea    r9,[rsp+0x260]
   140012928:	00 
   140012929:	48 89 44 24 20       	mov    QWORD PTR [rsp+0x20],rax
   14001292e:	48 8d 54 24 50       	lea    rdx,[rsp+0x50]
   140012933:	48 8b c7             	mov    rax,rdi
   140012936:	e9 b6 00 00 00       	jmp    0x1400129f1
   14001293b:	4c 89 6c 24 38       	mov    QWORD PTR [rsp+0x38],r13
   140012940:	48 8d 84 24 70 04 00 	lea    rax,[rsp+0x470]
   140012947:	00 
   140012948:	4c 89 6c 24 30       	mov    QWORD PTR [rsp+0x30],r13
   14001294d:	4c 8d 44 24 50       	lea    r8,[rsp+0x50]
   140012952:	c7 44 24 28 0a 03 00 	mov    DWORD PTR [rsp+0x28],0x30a
   140012959:	00 
   14001295a:	48 8d 3d cf 77 00 00 	lea    rdi,[rip+0x77cf]        # 0x14001a130
   140012961:	41 b9 ff ff ff ff    	mov    r9d,0xffffffff
   140012967:	48 89 44 24 20       	mov    QWORD PTR [rsp+0x20],rax
   14001296c:	33 d2                	xor    edx,edx
   14001296e:	b9 e9 fd 00 00       	mov    ecx,0xfde9
   140012973:	ff 15 a7 d6 00 00    	call   QWORD PTR [rip+0xd6a7]        # 0x140020020
   140012979:	4c 89 6c 24 38       	mov    QWORD PTR [rsp+0x38],r13
   14001297e:	48 8d 9c 24 70 04 00 	lea    rbx,[rsp+0x470]
   140012985:	00 
   140012986:	85 c0                	test   eax,eax
   140012988:	4c 89 6c 24 30       	mov    QWORD PTR [rsp+0x30],r13
   14001298d:	48 8d 84 24 80 07 00 	lea    rax,[rsp+0x780]
   140012994:	00 
   140012995:	c7 44 24 28 0a 03 00 	mov    DWORD PTR [rsp+0x28],0x30a
   14001299c:	00 
   14001299d:	48 0f 44 df          	cmove  rbx,rdi
   1400129a1:	48 89 44 24 20       	mov    QWORD PTR [rsp+0x20],rax
   1400129a6:	33 d2                	xor    edx,edx
   1400129a8:	4c 8d 84 24 60 02 00 	lea    r8,[rsp+0x260]
   1400129af:	00 
   1400129b0:	41 b9 ff ff ff ff    	mov    r9d,0xffffffff
   1400129b6:	48 8d 3d 8b 77 00 00 	lea    rdi,[rip+0x778b]        # 0x14001a148
   1400129bd:	b9 e9 fd 00 00       	mov    ecx,0xfde9
   1400129c2:	ff 15 58 d6 00 00    	call   QWORD PTR [rip+0xd658]        # 0x140020020
   1400129c8:	4c 89 7c 24 30       	mov    QWORD PTR [rsp+0x30],r15
   1400129cd:	4c 8d 8c 24 80 07 00 	lea    r9,[rsp+0x780]
   1400129d4:	00 
   1400129d5:	85 c0                	test   eax,eax
   1400129d7:	89 6c 24 28          	mov    DWORD PTR [rsp+0x28],ebp
   1400129db:	48 8d 05 7e 77 00 00 	lea    rax,[rip+0x777e]        # 0x14001a160
   1400129e2:	48 8b d3             	mov    rdx,rbx
   1400129e5:	48 89 44 24 20       	mov    QWORD PTR [rsp+0x20],rax
   1400129ea:	4c 0f 44 cf          	cmove  r9,rdi
   1400129ee:	49 8b c6             	mov    rax,r14
   1400129f1:	44 8b 44 24 40       	mov    r8d,DWORD PTR [rsp+0x40]
   1400129f6:	41 8b cc             	mov    ecx,r12d
   1400129f9:	ff 15 11 f6 00 00    	call   QWORD PTR [rip+0xf611]        # 0x140022010
   1400129ff:	83 f8 01             	cmp    eax,0x1
   140012a02:	75 01                	jne    0x140012a05
   140012a04:	cc                   	int3   
   140012a05:	48 8b b4 24 a8 0e 00 	mov    rsi,QWORD PTR [rsp+0xea8]
   140012a0c:	00 
   140012a0d:	48 8b 8c 24 90 0e 00 	mov    rcx,QWORD PTR [rsp+0xe90]
   140012a14:	00 
   140012a15:	48 33 cc             	xor    rcx,rsp
   140012a18:	e8 b5 e6 ff ff       	call   0x1400110d2
   140012a1d:	48 81 c4 b0 0e 00 00 	add    rsp,0xeb0
   140012a24:	41 5f                	pop    r15
   140012a26:	41 5e                	pop    r14
   140012a28:	41 5d                	pop    r13
   140012a2a:	41 5c                	pop    r12
   140012a2c:	5f                   	pop    rdi
   140012a2d:	5d                   	pop    rbp
   140012a2e:	5b                   	pop    rbx
   140012a2f:	c3                   	ret    
   140012a30:	cc                   	int3   
   140012a31:	cc                   	int3   
   140012a32:	cc                   	int3   
   140012a33:	cc                   	int3   
   140012a34:	cc                   	int3   
   140012a35:	cc                   	int3   
   140012a36:	cc                   	int3   
   140012a37:	cc                   	int3   
   140012a38:	cc                   	int3   
   140012a39:	cc                   	int3   
   140012a3a:	cc                   	int3   
   140012a3b:	cc                   	int3   
   140012a3c:	cc                   	int3   
   140012a3d:	cc                   	int3   
   140012a3e:	cc                   	int3   
   140012a3f:	cc                   	int3   
   140012a40:	cc                   	int3   
   140012a41:	cc                   	int3   
   140012a42:	cc                   	int3   
   140012a43:	cc                   	int3   
   140012a44:	cc                   	int3   
   140012a45:	cc                   	int3   
   140012a46:	cc                   	int3   
   140012a47:	cc                   	int3   
   140012a48:	cc                   	int3   
   140012a49:	cc                   	int3   
   140012a4a:	cc                   	int3   
   140012a4b:	cc                   	int3   
   140012a4c:	cc                   	int3   
   140012a4d:	cc                   	int3   
   140012a4e:	cc                   	int3   
   140012a4f:	cc                   	int3   
   140012a50:	cc                   	int3   
   140012a51:	cc                   	int3   
   140012a52:	cc                   	int3   
   140012a53:	cc                   	int3   
   140012a54:	cc                   	int3   
   140012a55:	cc                   	int3   
   140012a56:	cc                   	int3   
   140012a57:	cc                   	int3   
   140012a58:	cc                   	int3   
   140012a59:	cc                   	int3   
   140012a5a:	cc                   	int3   
   140012a5b:	cc                   	int3   
   140012a5c:	cc                   	int3   
   140012a5d:	cc                   	int3   
   140012a5e:	cc                   	int3   
   140012a5f:	cc                   	int3   
   140012a60:	cc                   	int3   
   140012a61:	cc                   	int3   
   140012a62:	cc                   	int3   
   140012a63:	cc                   	int3   
   140012a64:	cc                   	int3   
   140012a65:	cc                   	int3   
   140012a66:	cc                   	int3   
   140012a67:	cc                   	int3   
   140012a68:	cc                   	int3   
   140012a69:	cc                   	int3   
   140012a6a:	cc                   	int3   
   140012a6b:	cc                   	int3   
   140012a6c:	cc                   	int3   
   140012a6d:	cc                   	int3   
   140012a6e:	cc                   	int3   
   140012a6f:	cc                   	int3   
   140012a70:	cc                   	int3   
   140012a71:	cc                   	int3   
   140012a72:	cc                   	int3   
   140012a73:	cc                   	int3   
   140012a74:	cc                   	int3   
   140012a75:	cc                   	int3   
   140012a76:	cc                   	int3   
   140012a77:	cc                   	int3   
   140012a78:	cc                   	int3   
   140012a79:	cc                   	int3   
   140012a7a:	cc                   	int3   
   140012a7b:	cc                   	int3   
   140012a7c:	cc                   	int3   
   140012a7d:	cc                   	int3   
   140012a7e:	cc                   	int3   
   140012a7f:	cc                   	int3   
   140012a80:	cc                   	int3   
   140012a81:	cc                   	int3   
   140012a82:	cc                   	int3   
   140012a83:	cc                   	int3   
   140012a84:	cc                   	int3   
   140012a85:	cc                   	int3   
   140012a86:	cc                   	int3   
   140012a87:	cc                   	int3   
   140012a88:	cc                   	int3   
   140012a89:	cc                   	int3   
   140012a8a:	cc                   	int3   
   140012a8b:	cc                   	int3   
   140012a8c:	cc                   	int3   
   140012a8d:	cc                   	int3   
   140012a8e:	cc                   	int3   
   140012a8f:	cc                   	int3   
   140012a90:	cc                   	int3   
   140012a91:	cc                   	int3   
   140012a92:	cc                   	int3   
   140012a93:	cc                   	int3   
   140012a94:	cc                   	int3   
   140012a95:	cc                   	int3   
   140012a96:	cc                   	int3   
   140012a97:	cc                   	int3   
   140012a98:	cc                   	int3   
   140012a99:	cc                   	int3   
   140012a9a:	cc                   	int3   
   140012a9b:	cc                   	int3   
   140012a9c:	cc                   	int3   
   140012a9d:	cc                   	int3   
   140012a9e:	cc                   	int3   
   140012a9f:	cc                   	int3   
   140012aa0:	cc                   	int3   
   140012aa1:	cc                   	int3   
   140012aa2:	cc                   	int3   
   140012aa3:	cc                   	int3   
   140012aa4:	cc                   	int3   
   140012aa5:	cc                   	int3   
   140012aa6:	cc                   	int3   
   140012aa7:	cc                   	int3   
   140012aa8:	cc                   	int3   
   140012aa9:	cc                   	int3   
   140012aaa:	cc                   	int3   
   140012aab:	cc                   	int3   
   140012aac:	cc                   	int3   
   140012aad:	cc                   	int3   
   140012aae:	cc                   	int3   
   140012aaf:	cc                   	int3   
   140012ab0:	cc                   	int3   
   140012ab1:	cc                   	int3   
   140012ab2:	cc                   	int3   
   140012ab3:	cc                   	int3   
   140012ab4:	cc                   	int3   
   140012ab5:	cc                   	int3   
   140012ab6:	cc                   	int3   
   140012ab7:	cc                   	int3   
   140012ab8:	cc                   	int3   
   140012ab9:	cc                   	int3   
   140012aba:	cc                   	int3   
   140012abb:	cc                   	int3   
   140012abc:	cc                   	int3   
   140012abd:	cc                   	int3   
   140012abe:	cc                   	int3   
   140012abf:	cc                   	int3   
   140012ac0:	cc                   	int3   
   140012ac1:	cc                   	int3   
   140012ac2:	cc                   	int3   
   140012ac3:	cc                   	int3   
   140012ac4:	cc                   	int3   
   140012ac5:	cc                   	int3   
   140012ac6:	cc                   	int3   
   140012ac7:	cc                   	int3   
   140012ac8:	cc                   	int3   
   140012ac9:	cc                   	int3   
   140012aca:	cc                   	int3   
   140012acb:	cc                   	int3   
   140012acc:	cc                   	int3   
   140012acd:	cc                   	int3   
   140012ace:	cc                   	int3   
   140012acf:	cc                   	int3   
   140012ad0:	48 83 ec 28          	sub    rsp,0x28
   140012ad4:	4c 8b c9             	mov    r9,rcx
   140012ad7:	33 d2                	xor    edx,edx
   140012ad9:	44 8d 42 05          	lea    r8d,[rdx+0x5]
   140012add:	b9 88 13 6d 40       	mov    ecx,0x406d1388
   140012ae2:	ff 15 28 d5 00 00    	call   QWORD PTR [rip+0xd528]        # 0x140020010
   140012ae8:	eb 00                	jmp    0x140012aea
   140012aea:	48 83 c4 28          	add    rsp,0x28
   140012aee:	c3                   	ret    
   140012aef:	cc                   	int3   
   140012af0:	cc                   	int3   
   140012af1:	cc                   	int3   
   140012af2:	cc                   	int3   
   140012af3:	cc                   	int3   
   140012af4:	cc                   	int3   
   140012af5:	cc                   	int3   
   140012af6:	cc                   	int3   
   140012af7:	cc                   	int3   
   140012af8:	cc                   	int3   
   140012af9:	cc                   	int3   
   140012afa:	cc                   	int3   
   140012afb:	cc                   	int3   
   140012afc:	cc                   	int3   
   140012afd:	cc                   	int3   
   140012afe:	cc                   	int3   
   140012aff:	cc                   	int3   
   140012b00:	48 89 5c 24 10       	mov    QWORD PTR [rsp+0x10],rbx
   140012b05:	57                   	push   rdi
   140012b06:	48 81 ec 30 04 00 00 	sub    rsp,0x430
   140012b0d:	48 8b 05 f4 94 00 00 	mov    rax,QWORD PTR [rip+0x94f4]        # 0x14001c008
   140012b14:	48 33 c4             	xor    rax,rsp
   140012b17:	48 89 84 24 20 04 00 	mov    QWORD PTR [rsp+0x420],rax
   140012b1e:	00 
   140012b1f:	8b 3d ff 94 00 00    	mov    edi,DWORD PTR [rip+0x94ff]        # 0x14001c024
   140012b25:	48 8b d9             	mov    rbx,rcx
   140012b28:	83 ff ff             	cmp    edi,0xffffffff
   140012b2b:	74 77                	je     0x140012ba4
   140012b2d:	48 85 c9             	test   rcx,rcx
   140012b30:	74 56                	je     0x140012b88
   140012b32:	e8 79 fc ff ff       	call   0x1400127b0
   140012b37:	48 83 c0 3a          	add    rax,0x3a
   140012b3b:	48 3d 00 04 00 00    	cmp    rax,0x400
   140012b41:	77 45                	ja     0x140012b88
   140012b43:	4c 8d 05 76 71 00 00 	lea    r8,[rip+0x7176]        # 0x140019cc0
   140012b4a:	ba 00 04 00 00       	mov    edx,0x400
   140012b4f:	48 8d 4c 24 20       	lea    rcx,[rsp+0x20]
   140012b54:	e8 7d e6 ff ff       	call   0x1400111d6
   140012b59:	4c 8b c3             	mov    r8,rbx
   140012b5c:	48 8d 4c 24 20       	lea    rcx,[rsp+0x20]
   140012b61:	ba 00 04 00 00       	mov    edx,0x400
   140012b66:	e8 b6 e6 ff ff       	call   0x140011221
   140012b6b:	4c 8d 05 5e 71 00 00 	lea    r8,[rip+0x715e]        # 0x140019cd0
   140012b72:	ba 00 04 00 00       	mov    edx,0x400
   140012b77:	48 8d 4c 24 20       	lea    rcx,[rsp+0x20]
   140012b7c:	e8 a0 e6 ff ff       	call   0x140011221
   140012b81:	4c 8d 4c 24 20       	lea    r9,[rsp+0x20]
   140012b86:	eb 07                	jmp    0x140012b8f
   140012b88:	4c 8d 0d 79 77 00 00 	lea    r9,[rip+0x7779]        # 0x14001a308
   140012b8f:	48 8b 8c 24 38 04 00 	mov    rcx,QWORD PTR [rsp+0x438]
   140012b96:	00 
   140012b97:	41 b8 03 00 00 00    	mov    r8d,0x3
   140012b9d:	8b d7                	mov    edx,edi
   140012b9f:	e8 2c fc ff ff       	call   0x1400127d0
   140012ba4:	48 8b 8c 24 20 04 00 	mov    rcx,QWORD PTR [rsp+0x420]
   140012bab:	00 
   140012bac:	48 33 cc             	xor    rcx,rsp
   140012baf:	e8 1e e5 ff ff       	call   0x1400110d2
   140012bb4:	48 8b 9c 24 48 04 00 	mov    rbx,QWORD PTR [rsp+0x448]
   140012bbb:	00 
   140012bbc:	48 81 c4 30 04 00 00 	add    rsp,0x430
   140012bc3:	5f                   	pop    rdi
   140012bc4:	c3                   	ret    
   140012bc5:	cc                   	int3   
   140012bc6:	cc                   	int3   
   140012bc7:	cc                   	int3   
   140012bc8:	cc                   	int3   
   140012bc9:	cc                   	int3   
   140012bca:	cc                   	int3   
   140012bcb:	cc                   	int3   
   140012bcc:	cc                   	int3   
   140012bcd:	cc                   	int3   
   140012bce:	cc                   	int3   
   140012bcf:	cc                   	int3   
   140012bd0:	cc                   	int3   
   140012bd1:	cc                   	int3   
   140012bd2:	cc                   	int3   
   140012bd3:	cc                   	int3   
   140012bd4:	cc                   	int3   
   140012bd5:	cc                   	int3   
   140012bd6:	cc                   	int3   
   140012bd7:	cc                   	int3   
   140012bd8:	cc                   	int3   
   140012bd9:	cc                   	int3   
   140012bda:	cc                   	int3   
   140012bdb:	cc                   	int3   
   140012bdc:	cc                   	int3   
   140012bdd:	cc                   	int3   
   140012bde:	cc                   	int3   
   140012bdf:	cc                   	int3   
   140012be0:	cc                   	int3   
   140012be1:	cc                   	int3   
   140012be2:	cc                   	int3   
   140012be3:	cc                   	int3   
   140012be4:	cc                   	int3   
   140012be5:	cc                   	int3   
   140012be6:	cc                   	int3   
   140012be7:	cc                   	int3   
   140012be8:	cc                   	int3   
   140012be9:	cc                   	int3   
   140012bea:	cc                   	int3   
   140012beb:	cc                   	int3   
   140012bec:	cc                   	int3   
   140012bed:	cc                   	int3   
   140012bee:	cc                   	int3   
   140012bef:	cc                   	int3   
   140012bf0:	cc                   	int3   
   140012bf1:	cc                   	int3   
   140012bf2:	cc                   	int3   
   140012bf3:	cc                   	int3   
   140012bf4:	cc                   	int3   
   140012bf5:	cc                   	int3   
   140012bf6:	cc                   	int3   
   140012bf7:	cc                   	int3   
   140012bf8:	cc                   	int3   
   140012bf9:	cc                   	int3   
   140012bfa:	cc                   	int3   
   140012bfb:	cc                   	int3   
   140012bfc:	cc                   	int3   
   140012bfd:	cc                   	int3   
   140012bfe:	cc                   	int3   
   140012bff:	cc                   	int3   
   140012c00:	48 89 5c 24 08       	mov    QWORD PTR [rsp+0x8],rbx
   140012c05:	48 89 6c 24 10       	mov    QWORD PTR [rsp+0x10],rbp
   140012c0a:	48 89 74 24 18       	mov    QWORD PTR [rsp+0x18],rsi
   140012c0f:	57                   	push   rdi
   140012c10:	48 83 ec 30          	sub    rsp,0x30
   140012c14:	49 8b d9             	mov    rbx,r9
   140012c17:	49 8b f8             	mov    rdi,r8
   140012c1a:	48 8b f2             	mov    rsi,rdx
   140012c1d:	48 8b e9             	mov    rbp,rcx
   140012c20:	e8 ec e6 ff ff       	call   0x140011311
   140012c25:	4c 8b 54 24 60       	mov    r10,QWORD PTR [rsp+0x60]
   140012c2a:	4c 8b cf             	mov    r9,rdi
   140012c2d:	4c 89 54 24 28       	mov    QWORD PTR [rsp+0x28],r10
   140012c32:	4c 8b c6             	mov    r8,rsi
   140012c35:	48 8b d5             	mov    rdx,rbp
   140012c38:	48 89 5c 24 20       	mov    QWORD PTR [rsp+0x20],rbx
   140012c3d:	48 8b 08             	mov    rcx,QWORD PTR [rax]
   140012c40:	e8 b9 e5 ff ff       	call   0x1400111fe
   140012c45:	48 8b 5c 24 40       	mov    rbx,QWORD PTR [rsp+0x40]
   140012c4a:	85 c0                	test   eax,eax
   140012c4c:	48 8b 6c 24 48       	mov    rbp,QWORD PTR [rsp+0x48]
   140012c51:	b9 ff ff ff ff       	mov    ecx,0xffffffff
   140012c56:	48 8b 74 24 50       	mov    rsi,QWORD PTR [rsp+0x50]
   140012c5b:	0f 48 c1             	cmovs  eax,ecx
   140012c5e:	48 83 c4 30          	add    rsp,0x30
   140012c62:	5f                   	pop    rdi
   140012c63:	c3                   	ret    
   140012c64:	cc                   	int3   
   140012c65:	cc                   	int3   
   140012c66:	cc                   	int3   
   140012c67:	cc                   	int3   
   140012c68:	cc                   	int3   
   140012c69:	cc                   	int3   
   140012c6a:	cc                   	int3   
   140012c6b:	cc                   	int3   
   140012c6c:	cc                   	int3   
   140012c6d:	cc                   	int3   
   140012c6e:	cc                   	int3   
   140012c6f:	cc                   	int3   
   140012c70:	cc                   	int3   
   140012c71:	cc                   	int3   
   140012c72:	cc                   	int3   
   140012c73:	cc                   	int3   
   140012c74:	cc                   	int3   
   140012c75:	cc                   	int3   
   140012c76:	cc                   	int3   
   140012c77:	cc                   	int3   
   140012c78:	cc                   	int3   
   140012c79:	cc                   	int3   
   140012c7a:	cc                   	int3   
   140012c7b:	cc                   	int3   
   140012c7c:	cc                   	int3   
   140012c7d:	cc                   	int3   
   140012c7e:	cc                   	int3   
   140012c7f:	cc                   	int3   
   140012c80:	4c 89 44 24 18       	mov    QWORD PTR [rsp+0x18],r8
   140012c85:	4c 89 4c 24 20       	mov    QWORD PTR [rsp+0x20],r9
   140012c8a:	48 83 ec 38          	sub    rsp,0x38
   140012c8e:	48 8d 44 24 58       	lea    rax,[rsp+0x58]
   140012c93:	45 33 c9             	xor    r9d,r9d
   140012c96:	48 89 44 24 20       	mov    QWORD PTR [rsp+0x20],rax
   140012c9b:	e8 c3 e4 ff ff       	call   0x140011163
   140012ca0:	48 83 c4 38          	add    rsp,0x38
   140012ca4:	c3                   	ret    
   140012ca5:	cc                   	int3   
   140012ca6:	cc                   	int3   
   140012ca7:	cc                   	int3   
   140012ca8:	cc                   	int3   
   140012ca9:	cc                   	int3   
   140012caa:	cc                   	int3   
   140012cab:	cc                   	int3   
   140012cac:	cc                   	int3   
   140012cad:	cc                   	int3   
   140012cae:	cc                   	int3   
   140012caf:	cc                   	int3   
   140012cb0:	48 8b 05 d1 94 00 00 	mov    rax,QWORD PTR [rip+0x94d1]        # 0x14001c188
   140012cb7:	c3                   	ret    
   140012cb8:	cc                   	int3   
   140012cb9:	cc                   	int3   
   140012cba:	cc                   	int3   
   140012cbb:	cc                   	int3   
   140012cbc:	cc                   	int3   
   140012cbd:	cc                   	int3   
   140012cbe:	cc                   	int3   
   140012cbf:	cc                   	int3   
   140012cc0:	48 8b 05 c9 94 00 00 	mov    rax,QWORD PTR [rip+0x94c9]        # 0x14001c190
   140012cc7:	c3                   	ret    
   140012cc8:	cc                   	int3   
   140012cc9:	cc                   	int3   
   140012cca:	cc                   	int3   
   140012ccb:	cc                   	int3   
   140012ccc:	cc                   	int3   
   140012ccd:	cc                   	int3   
   140012cce:	cc                   	int3   
   140012ccf:	cc                   	int3   
   140012cd0:	83 f9 04             	cmp    ecx,0x4
   140012cd3:	77 0f                	ja     0x140012ce4
   140012cd5:	48 63 c1             	movsxd rax,ecx
   140012cd8:	48 8d 0d 69 76 00 00 	lea    rcx,[rip+0x7669]        # 0x14001a348
   140012cdf:	48 8b 04 c1          	mov    rax,QWORD PTR [rcx+rax*8]
   140012ce3:	c3                   	ret    
   140012ce4:	33 c0                	xor    eax,eax
   140012ce6:	c3                   	ret    
   140012ce7:	cc                   	int3   
   140012ce8:	cc                   	int3   
   140012ce9:	cc                   	int3   
   140012cea:	cc                   	int3   
   140012ceb:	cc                   	int3   
   140012cec:	cc                   	int3   
   140012ced:	cc                   	int3   
   140012cee:	cc                   	int3   
   140012cef:	cc                   	int3   
   140012cf0:	b8 05 00 00 00       	mov    eax,0x5
   140012cf5:	c3                   	ret    
   140012cf6:	cc                   	int3   
   140012cf7:	cc                   	int3   
   140012cf8:	cc                   	int3   
   140012cf9:	cc                   	int3   
   140012cfa:	cc                   	int3   
   140012cfb:	cc                   	int3   
   140012cfc:	cc                   	int3   
   140012cfd:	cc                   	int3   
   140012cfe:	cc                   	int3   
   140012cff:	cc                   	int3   
   140012d00:	48 8b 05 81 94 00 00 	mov    rax,QWORD PTR [rip+0x9481]        # 0x14001c188
   140012d07:	48 89 0d 7a 94 00 00 	mov    QWORD PTR [rip+0x947a],rcx        # 0x14001c188
   140012d0e:	48 c7 05 77 94 00 00 	mov    QWORD PTR [rip+0x9477],0x0        # 0x14001c190
   140012d15:	00 00 00 00 
   140012d19:	c3                   	ret    
   140012d1a:	cc                   	int3   
   140012d1b:	cc                   	int3   
   140012d1c:	cc                   	int3   
   140012d1d:	cc                   	int3   
   140012d1e:	cc                   	int3   
   140012d1f:	cc                   	int3   
   140012d20:	48 8b 05 69 94 00 00 	mov    rax,QWORD PTR [rip+0x9469]        # 0x14001c190
   140012d27:	48 89 0d 62 94 00 00 	mov    QWORD PTR [rip+0x9462],rcx        # 0x14001c190
   140012d2e:	48 c7 05 4f 94 00 00 	mov    QWORD PTR [rip+0x944f],0x0        # 0x14001c188
   140012d35:	00 00 00 00 
   140012d39:	c3                   	ret    
   140012d3a:	cc                   	int3   
   140012d3b:	cc                   	int3   
   140012d3c:	cc                   	int3   
   140012d3d:	cc                   	int3   
   140012d3e:	cc                   	int3   
   140012d3f:	cc                   	int3   
   140012d40:	83 f9 04             	cmp    ecx,0x4
   140012d43:	77 15                	ja     0x140012d5a
   140012d45:	48 63 c1             	movsxd rax,ecx
   140012d48:	4c 8d 05 c9 92 00 00 	lea    r8,[rip+0x92c9]        # 0x14001c018
   140012d4f:	41 8b 0c 80          	mov    ecx,DWORD PTR [r8+rax*4]
   140012d53:	41 89 14 80          	mov    DWORD PTR [r8+rax*4],edx
   140012d57:	8b c1                	mov    eax,ecx
   140012d59:	c3                   	ret    
   140012d5a:	b8 ff ff ff ff       	mov    eax,0xffffffff
   140012d5f:	c3                   	ret    
   140012d60:	cc                   	int3   
   140012d61:	cc                   	int3   
   140012d62:	cc                   	int3   
   140012d63:	cc                   	int3   
   140012d64:	cc                   	int3   
   140012d65:	cc                   	int3   
   140012d66:	cc                   	int3   
   140012d67:	cc                   	int3   
   140012d68:	cc                   	int3   
   140012d69:	cc                   	int3   
   140012d6a:	cc                   	int3   
   140012d6b:	cc                   	int3   
   140012d6c:	cc                   	int3   
   140012d6d:	cc                   	int3   
   140012d6e:	cc                   	int3   
   140012d6f:	cc                   	int3   
   140012d70:	48 89 4c 24 08       	mov    QWORD PTR [rsp+0x8],rcx
   140012d75:	48 83 ec 28          	sub    rsp,0x28
   140012d79:	33 c9                	xor    ecx,ecx
   140012d7b:	ff 15 2f d3 00 00    	call   QWORD PTR [rip+0xd32f]        # 0x1400200b0
   140012d81:	48 8b 4c 24 30       	mov    rcx,QWORD PTR [rsp+0x30]
   140012d86:	ff 15 2c d3 00 00    	call   QWORD PTR [rip+0xd32c]        # 0x1400200b8
   140012d8c:	ff 15 16 d3 00 00    	call   QWORD PTR [rip+0xd316]        # 0x1400200a8
   140012d92:	ba 09 04 00 c0       	mov    edx,0xc0000409
   140012d97:	48 8b c8             	mov    rcx,rax
   140012d9a:	ff 15 00 d3 00 00    	call   QWORD PTR [rip+0xd300]        # 0x1400200a0
   140012da0:	48 83 c4 28          	add    rsp,0x28
   140012da4:	c3                   	ret    
   140012da5:	cc                   	int3   
   140012da6:	cc                   	int3   
   140012da7:	cc                   	int3   
   140012da8:	cc                   	int3   
   140012da9:	cc                   	int3   
   140012daa:	cc                   	int3   
   140012dab:	cc                   	int3   
   140012dac:	cc                   	int3   
   140012dad:	cc                   	int3   
   140012dae:	cc                   	int3   
   140012daf:	cc                   	int3   
   140012db0:	cc                   	int3   
   140012db1:	cc                   	int3   
   140012db2:	cc                   	int3   
   140012db3:	cc                   	int3   
   140012db4:	cc                   	int3   
   140012db5:	cc                   	int3   
   140012db6:	cc                   	int3   
   140012db7:	cc                   	int3   
   140012db8:	cc                   	int3   
   140012db9:	cc                   	int3   
   140012dba:	cc                   	int3   
   140012dbb:	cc                   	int3   
   140012dbc:	cc                   	int3   
   140012dbd:	cc                   	int3   
   140012dbe:	cc                   	int3   
   140012dbf:	cc                   	int3   
   140012dc0:	48 89 4c 24 08       	mov    QWORD PTR [rsp+0x8],rcx
   140012dc5:	48 83 ec 38          	sub    rsp,0x38
   140012dc9:	b9 17 00 00 00       	mov    ecx,0x17
   140012dce:	e8 8b e3 ff ff       	call   0x14001115e
   140012dd3:	85 c0                	test   eax,eax
   140012dd5:	74 07                	je     0x140012dde
   140012dd7:	b9 02 00 00 00       	mov    ecx,0x2
   140012ddc:	cd 29                	int    0x29
   140012dde:	48 8d 0d 5b 94 00 00 	lea    rcx,[rip+0x945b]        # 0x14001c240
   140012de5:	e8 f6 03 00 00       	call   0x1400131e0
   140012dea:	48 8b 44 24 38       	mov    rax,QWORD PTR [rsp+0x38]
   140012def:	48 89 05 42 95 00 00 	mov    QWORD PTR [rip+0x9542],rax        # 0x14001c338
   140012df6:	48 8d 44 24 38       	lea    rax,[rsp+0x38]
   140012dfb:	48 83 c0 08          	add    rax,0x8
   140012dff:	48 89 05 d2 94 00 00 	mov    QWORD PTR [rip+0x94d2],rax        # 0x14001c2d8
   140012e06:	48 8b 05 2b 95 00 00 	mov    rax,QWORD PTR [rip+0x952b]        # 0x14001c338
   140012e0d:	48 89 05 9c 93 00 00 	mov    QWORD PTR [rip+0x939c],rax        # 0x14001c1b0
   140012e14:	48 8b 44 24 40       	mov    rax,QWORD PTR [rsp+0x40]
   140012e19:	48 89 05 a0 94 00 00 	mov    QWORD PTR [rip+0x94a0],rax        # 0x14001c2c0
   140012e20:	c7 05 76 93 00 00 09 	mov    DWORD PTR [rip+0x9376],0xc0000409        # 0x14001c1a0
   140012e27:	04 00 c0 
   140012e2a:	c7 05 70 93 00 00 01 	mov    DWORD PTR [rip+0x9370],0x1        # 0x14001c1a4
   140012e31:	00 00 00 
   140012e34:	c7 05 7a 93 00 00 01 	mov    DWORD PTR [rip+0x937a],0x1        # 0x14001c1b8
   140012e3b:	00 00 00 
   140012e3e:	b8 08 00 00 00       	mov    eax,0x8
   140012e43:	48 6b c0 00          	imul   rax,rax,0x0
   140012e47:	48 8d 0d 72 93 00 00 	lea    rcx,[rip+0x9372]        # 0x14001c1c0
   140012e4e:	48 c7 04 01 02 00 00 	mov    QWORD PTR [rcx+rax*1],0x2
   140012e55:	00 
   140012e56:	b8 08 00 00 00       	mov    eax,0x8
   140012e5b:	48 6b c0 00          	imul   rax,rax,0x0
   140012e5f:	48 8b 0d a2 91 00 00 	mov    rcx,QWORD PTR [rip+0x91a2]        # 0x14001c008
   140012e66:	48 89 4c 04 20       	mov    QWORD PTR [rsp+rax*1+0x20],rcx
   140012e6b:	b8 08 00 00 00       	mov    eax,0x8
   140012e70:	48 6b c0 01          	imul   rax,rax,0x1
   140012e74:	48 8b 0d 85 91 00 00 	mov    rcx,QWORD PTR [rip+0x9185]        # 0x14001c000
   140012e7b:	48 89 4c 04 20       	mov    QWORD PTR [rsp+rax*1+0x20],rcx
   140012e80:	48 8d 0d c9 75 00 00 	lea    rcx,[rip+0x75c9]        # 0x14001a450
   140012e87:	e8 00 e2 ff ff       	call   0x14001108c
   140012e8c:	48 83 c4 38          	add    rsp,0x38
   140012e90:	c3                   	ret    
   140012e91:	cc                   	int3   
   140012e92:	cc                   	int3   
   140012e93:	cc                   	int3   
   140012e94:	cc                   	int3   
   140012e95:	cc                   	int3   
   140012e96:	cc                   	int3   
   140012e97:	cc                   	int3   
   140012e98:	cc                   	int3   
   140012e99:	cc                   	int3   
   140012e9a:	cc                   	int3   
   140012e9b:	cc                   	int3   
   140012e9c:	cc                   	int3   
   140012e9d:	cc                   	int3   
   140012e9e:	cc                   	int3   
   140012e9f:	cc                   	int3   
   140012ea0:	cc                   	int3   
   140012ea1:	cc                   	int3   
   140012ea2:	cc                   	int3   
   140012ea3:	cc                   	int3   
   140012ea4:	cc                   	int3   
   140012ea5:	cc                   	int3   
   140012ea6:	cc                   	int3   
   140012ea7:	cc                   	int3   
   140012ea8:	cc                   	int3   
   140012ea9:	cc                   	int3   
   140012eaa:	cc                   	int3   
   140012eab:	cc                   	int3   
   140012eac:	cc                   	int3   
   140012ead:	cc                   	int3   
   140012eae:	cc                   	int3   
   140012eaf:	cc                   	int3   
   140012eb0:	cc                   	int3   
   140012eb1:	cc                   	int3   
   140012eb2:	cc                   	int3   
   140012eb3:	cc                   	int3   
   140012eb4:	cc                   	int3   
   140012eb5:	cc                   	int3   
   140012eb6:	cc                   	int3   
   140012eb7:	cc                   	int3   
   140012eb8:	cc                   	int3   
   140012eb9:	cc                   	int3   
   140012eba:	cc                   	int3   
   140012ebb:	cc                   	int3   
   140012ebc:	cc                   	int3   
   140012ebd:	cc                   	int3   
   140012ebe:	cc                   	int3   
   140012ebf:	cc                   	int3   
   140012ec0:	cc                   	int3   
   140012ec1:	cc                   	int3   
   140012ec2:	cc                   	int3   
   140012ec3:	cc                   	int3   
   140012ec4:	cc                   	int3   
   140012ec5:	cc                   	int3   
   140012ec6:	cc                   	int3   
   140012ec7:	cc                   	int3   
   140012ec8:	cc                   	int3   
   140012ec9:	cc                   	int3   
   140012eca:	cc                   	int3   
   140012ecb:	cc                   	int3   
   140012ecc:	cc                   	int3   
   140012ecd:	cc                   	int3   
   140012ece:	cc                   	int3   
   140012ecf:	cc                   	int3   
   140012ed0:	48 83 ec 28          	sub    rsp,0x28
   140012ed4:	b9 08 00 00 00       	mov    ecx,0x8
   140012ed9:	e8 42 e4 ff ff       	call   0x140011320
   140012ede:	48 83 c4 28          	add    rsp,0x28
   140012ee2:	c3                   	ret    
   140012ee3:	cc                   	int3   
   140012ee4:	cc                   	int3   
   140012ee5:	cc                   	int3   
   140012ee6:	cc                   	int3   
   140012ee7:	cc                   	int3   
   140012ee8:	cc                   	int3   
   140012ee9:	cc                   	int3   
   140012eea:	cc                   	int3   
   140012eeb:	cc                   	int3   
   140012eec:	cc                   	int3   
   140012eed:	cc                   	int3   
   140012eee:	cc                   	int3   
   140012eef:	cc                   	int3   
   140012ef0:	89 4c 24 08          	mov    DWORD PTR [rsp+0x8],ecx
   140012ef4:	48 83 ec 28          	sub    rsp,0x28
   140012ef8:	b9 17 00 00 00       	mov    ecx,0x17
   140012efd:	e8 5c e2 ff ff       	call   0x14001115e
   140012f02:	85 c0                	test   eax,eax
   140012f04:	74 08                	je     0x140012f0e
   140012f06:	8b 44 24 30          	mov    eax,DWORD PTR [rsp+0x30]
   140012f0a:	8b c8                	mov    ecx,eax
   140012f0c:	cd 29                	int    0x29
   140012f0e:	48 8d 0d 2b 93 00 00 	lea    rcx,[rip+0x932b]        # 0x14001c240
   140012f15:	e8 06 02 00 00       	call   0x140013120
   140012f1a:	48 8b 44 24 28       	mov    rax,QWORD PTR [rsp+0x28]
   140012f1f:	48 89 05 12 94 00 00 	mov    QWORD PTR [rip+0x9412],rax        # 0x14001c338
   140012f26:	48 8d 44 24 28       	lea    rax,[rsp+0x28]
   140012f2b:	48 83 c0 08          	add    rax,0x8
   140012f2f:	48 89 05 a2 93 00 00 	mov    QWORD PTR [rip+0x93a2],rax        # 0x14001c2d8
   140012f36:	48 8b 05 fb 93 00 00 	mov    rax,QWORD PTR [rip+0x93fb]        # 0x14001c338
   140012f3d:	48 89 05 6c 92 00 00 	mov    QWORD PTR [rip+0x926c],rax        # 0x14001c1b0
   140012f44:	c7 05 52 92 00 00 09 	mov    DWORD PTR [rip+0x9252],0xc0000409        # 0x14001c1a0
   140012f4b:	04 00 c0 
   140012f4e:	c7 05 4c 92 00 00 01 	mov    DWORD PTR [rip+0x924c],0x1        # 0x14001c1a4
   140012f55:	00 00 00 
   140012f58:	c7 05 56 92 00 00 01 	mov    DWORD PTR [rip+0x9256],0x1        # 0x14001c1b8
   140012f5f:	00 00 00 
   140012f62:	b8 08 00 00 00       	mov    eax,0x8
   140012f67:	48 6b c0 00          	imul   rax,rax,0x0
   140012f6b:	48 8d 0d 4e 92 00 00 	lea    rcx,[rip+0x924e]        # 0x14001c1c0
   140012f72:	8b 54 24 30          	mov    edx,DWORD PTR [rsp+0x30]
   140012f76:	48 89 14 01          	mov    QWORD PTR [rcx+rax*1],rdx
   140012f7a:	48 8d 0d cf 74 00 00 	lea    rcx,[rip+0x74cf]        # 0x14001a450
   140012f81:	e8 06 e1 ff ff       	call   0x14001108c
   140012f86:	48 83 c4 28          	add    rsp,0x28
   140012f8a:	c3                   	ret    
   140012f8b:	cc                   	int3   
   140012f8c:	cc                   	int3   
   140012f8d:	cc                   	int3   
   140012f8e:	cc                   	int3   
   140012f8f:	cc                   	int3   
   140012f90:	cc                   	int3   
   140012f91:	cc                   	int3   
   140012f92:	cc                   	int3   
   140012f93:	cc                   	int3   
   140012f94:	cc                   	int3   
   140012f95:	cc                   	int3   
   140012f96:	cc                   	int3   
   140012f97:	cc                   	int3   
   140012f98:	cc                   	int3   
   140012f99:	cc                   	int3   
   140012f9a:	cc                   	int3   
   140012f9b:	cc                   	int3   
   140012f9c:	cc                   	int3   
   140012f9d:	cc                   	int3   
   140012f9e:	cc                   	int3   
   140012f9f:	cc                   	int3   
   140012fa0:	cc                   	int3   
   140012fa1:	cc                   	int3   
   140012fa2:	cc                   	int3   
   140012fa3:	cc                   	int3   
   140012fa4:	cc                   	int3   
   140012fa5:	cc                   	int3   
   140012fa6:	cc                   	int3   
   140012fa7:	cc                   	int3   
   140012fa8:	cc                   	int3   
   140012fa9:	cc                   	int3   
   140012faa:	cc                   	int3   
   140012fab:	cc                   	int3   
   140012fac:	cc                   	int3   
   140012fad:	cc                   	int3   
   140012fae:	cc                   	int3   
   140012faf:	cc                   	int3   
   140012fb0:	cc                   	int3   
   140012fb1:	cc                   	int3   
   140012fb2:	cc                   	int3   
   140012fb3:	cc                   	int3   
   140012fb4:	cc                   	int3   
   140012fb5:	cc                   	int3   
   140012fb6:	cc                   	int3   
   140012fb7:	cc                   	int3   
   140012fb8:	cc                   	int3   
   140012fb9:	cc                   	int3   
   140012fba:	cc                   	int3   
   140012fbb:	cc                   	int3   
   140012fbc:	cc                   	int3   
   140012fbd:	cc                   	int3   
   140012fbe:	cc                   	int3   
   140012fbf:	cc                   	int3   
   140012fc0:	4c 89 44 24 18       	mov    QWORD PTR [rsp+0x18],r8
   140012fc5:	89 54 24 10          	mov    DWORD PTR [rsp+0x10],edx
   140012fc9:	89 4c 24 08          	mov    DWORD PTR [rsp+0x8],ecx
   140012fcd:	48 83 ec 38          	sub    rsp,0x38
   140012fd1:	b9 17 00 00 00       	mov    ecx,0x17
   140012fd6:	e8 83 e1 ff ff       	call   0x14001115e
   140012fdb:	85 c0                	test   eax,eax
   140012fdd:	74 08                	je     0x140012fe7
   140012fdf:	8b 44 24 40          	mov    eax,DWORD PTR [rsp+0x40]
   140012fe3:	8b c8                	mov    ecx,eax
   140012fe5:	cd 29                	int    0x29
   140012fe7:	48 8d 0d 52 92 00 00 	lea    rcx,[rip+0x9252]        # 0x14001c240
   140012fee:	e8 2d 01 00 00       	call   0x140013120
   140012ff3:	48 8b 44 24 38       	mov    rax,QWORD PTR [rsp+0x38]
   140012ff8:	48 89 05 39 93 00 00 	mov    QWORD PTR [rip+0x9339],rax        # 0x14001c338
   140012fff:	48 8d 44 24 38       	lea    rax,[rsp+0x38]
   140013004:	48 83 c0 08          	add    rax,0x8
   140013008:	48 89 05 c9 92 00 00 	mov    QWORD PTR [rip+0x92c9],rax        # 0x14001c2d8
   14001300f:	48 8b 05 22 93 00 00 	mov    rax,QWORD PTR [rip+0x9322]        # 0x14001c338
   140013016:	48 89 05 93 91 00 00 	mov    QWORD PTR [rip+0x9193],rax        # 0x14001c1b0
   14001301d:	c7 05 79 91 00 00 09 	mov    DWORD PTR [rip+0x9179],0xc0000409        # 0x14001c1a0
   140013024:	04 00 c0 
   140013027:	c7 05 73 91 00 00 01 	mov    DWORD PTR [rip+0x9173],0x1        # 0x14001c1a4
   14001302e:	00 00 00 
   140013031:	83 7c 24 48 00       	cmp    DWORD PTR [rsp+0x48],0x0
   140013036:	76 10                	jbe    0x140013048
   140013038:	48 83 7c 24 50 00    	cmp    QWORD PTR [rsp+0x50],0x0
   14001303e:	75 08                	jne    0x140013048
   140013040:	c7 44 24 48 00 00 00 	mov    DWORD PTR [rsp+0x48],0x0
   140013047:	00 
   140013048:	83 7c 24 48 0e       	cmp    DWORD PTR [rsp+0x48],0xe
   14001304d:	76 0a                	jbe    0x140013059
   14001304f:	8b 44 24 48          	mov    eax,DWORD PTR [rsp+0x48]
   140013053:	ff c8                	dec    eax
   140013055:	89 44 24 48          	mov    DWORD PTR [rsp+0x48],eax
   140013059:	8b 44 24 48          	mov    eax,DWORD PTR [rsp+0x48]
   14001305d:	ff c0                	inc    eax
   14001305f:	89 05 53 91 00 00    	mov    DWORD PTR [rip+0x9153],eax        # 0x14001c1b8
   140013065:	b8 08 00 00 00       	mov    eax,0x8
   14001306a:	48 6b c0 00          	imul   rax,rax,0x0
   14001306e:	48 8d 0d 4b 91 00 00 	lea    rcx,[rip+0x914b]        # 0x14001c1c0
   140013075:	8b 54 24 40          	mov    edx,DWORD PTR [rsp+0x40]
   140013079:	48 89 14 01          	mov    QWORD PTR [rcx+rax*1],rdx
   14001307d:	c7 44 24 20 00 00 00 	mov    DWORD PTR [rsp+0x20],0x0
   140013084:	00 
   140013085:	eb 0a                	jmp    0x140013091
   140013087:	8b 44 24 20          	mov    eax,DWORD PTR [rsp+0x20]
   14001308b:	ff c0                	inc    eax
   14001308d:	89 44 24 20          	mov    DWORD PTR [rsp+0x20],eax
   140013091:	8b 44 24 48          	mov    eax,DWORD PTR [rsp+0x48]
   140013095:	39 44 24 20          	cmp    DWORD PTR [rsp+0x20],eax
   140013099:	73 22                	jae    0x1400130bd
   14001309b:	8b 44 24 20          	mov    eax,DWORD PTR [rsp+0x20]
   14001309f:	8b 4c 24 20          	mov    ecx,DWORD PTR [rsp+0x20]
   1400130a3:	ff c1                	inc    ecx
   1400130a5:	8b c9                	mov    ecx,ecx
   1400130a7:	48 8d 15 12 91 00 00 	lea    rdx,[rip+0x9112]        # 0x14001c1c0
   1400130ae:	4c 8b 44 24 50       	mov    r8,QWORD PTR [rsp+0x50]
   1400130b3:	49 8b 04 c0          	mov    rax,QWORD PTR [r8+rax*8]
   1400130b7:	48 89 04 ca          	mov    QWORD PTR [rdx+rcx*8],rax
   1400130bb:	eb ca                	jmp    0x140013087
   1400130bd:	48 8d 0d 8c 73 00 00 	lea    rcx,[rip+0x738c]        # 0x14001a450
   1400130c4:	e8 c3 df ff ff       	call   0x14001108c
   1400130c9:	48 83 c4 38          	add    rsp,0x38
   1400130cd:	c3                   	ret    
   1400130ce:	cc                   	int3   
   1400130cf:	cc                   	int3   
   1400130d0:	cc                   	int3   
   1400130d1:	cc                   	int3   
   1400130d2:	cc                   	int3   
   1400130d3:	cc                   	int3   
   1400130d4:	cc                   	int3   
   1400130d5:	cc                   	int3   
   1400130d6:	cc                   	int3   
   1400130d7:	cc                   	int3   
   1400130d8:	cc                   	int3   
   1400130d9:	cc                   	int3   
   1400130da:	cc                   	int3   
   1400130db:	cc                   	int3   
   1400130dc:	cc                   	int3   
   1400130dd:	cc                   	int3   
   1400130de:	cc                   	int3   
   1400130df:	cc                   	int3   
   1400130e0:	cc                   	int3   
   1400130e1:	cc                   	int3   
   1400130e2:	cc                   	int3   
   1400130e3:	cc                   	int3   
   1400130e4:	cc                   	int3   
   1400130e5:	cc                   	int3   
   1400130e6:	cc                   	int3   
   1400130e7:	cc                   	int3   
   1400130e8:	cc                   	int3   
   1400130e9:	cc                   	int3   
   1400130ea:	cc                   	int3   
   1400130eb:	cc                   	int3   
   1400130ec:	cc                   	int3   
   1400130ed:	cc                   	int3   
   1400130ee:	cc                   	int3   
   1400130ef:	cc                   	int3   
   1400130f0:	cc                   	int3   
   1400130f1:	cc                   	int3   
   1400130f2:	cc                   	int3   
   1400130f3:	cc                   	int3   
   1400130f4:	cc                   	int3   
   1400130f5:	cc                   	int3   
   1400130f6:	cc                   	int3   
   1400130f7:	cc                   	int3   
   1400130f8:	cc                   	int3   
   1400130f9:	cc                   	int3   
   1400130fa:	cc                   	int3   
   1400130fb:	cc                   	int3   
   1400130fc:	cc                   	int3   
   1400130fd:	cc                   	int3   
   1400130fe:	cc                   	int3   
   1400130ff:	cc                   	int3   
   140013100:	cc                   	int3   
   140013101:	cc                   	int3   
   140013102:	cc                   	int3   
   140013103:	cc                   	int3   
   140013104:	cc                   	int3   
   140013105:	cc                   	int3   
   140013106:	cc                   	int3   
   140013107:	cc                   	int3   
   140013108:	cc                   	int3   
   140013109:	cc                   	int3   
   14001310a:	cc                   	int3   
   14001310b:	cc                   	int3   
   14001310c:	cc                   	int3   
   14001310d:	cc                   	int3   
   14001310e:	cc                   	int3   
   14001310f:	cc                   	int3   
   140013110:	cc                   	int3   
   140013111:	cc                   	int3   
   140013112:	cc                   	int3   
   140013113:	cc                   	int3   
   140013114:	cc                   	int3   
   140013115:	cc                   	int3   
   140013116:	cc                   	int3   
   140013117:	cc                   	int3   
   140013118:	cc                   	int3   
   140013119:	cc                   	int3   
   14001311a:	cc                   	int3   
   14001311b:	cc                   	int3   
   14001311c:	cc                   	int3   
   14001311d:	cc                   	int3   
   14001311e:	cc                   	int3   
   14001311f:	cc                   	int3   
   140013120:	48 89 4c 24 08       	mov    QWORD PTR [rsp+0x8],rcx
   140013125:	48 83 ec 78          	sub    rsp,0x78
   140013129:	48 8b 8c 24 80 00 00 	mov    rcx,QWORD PTR [rsp+0x80]
   140013130:	00 
   140013131:	ff 15 f1 ce 00 00    	call   QWORD PTR [rip+0xcef1]        # 0x140020028
   140013137:	48 8b 84 24 80 00 00 	mov    rax,QWORD PTR [rsp+0x80]
   14001313e:	00 
   14001313f:	48 8b 80 f8 00 00 00 	mov    rax,QWORD PTR [rax+0xf8]
   140013146:	48 89 44 24 48       	mov    QWORD PTR [rsp+0x48],rax
   14001314b:	45 33 c0             	xor    r8d,r8d
   14001314e:	48 8d 54 24 50       	lea    rdx,[rsp+0x50]
   140013153:	48 8b 4c 24 48       	mov    rcx,QWORD PTR [rsp+0x48]
   140013158:	ff 15 6a cf 00 00    	call   QWORD PTR [rip+0xcf6a]        # 0x1400200c8
   14001315e:	48 89 44 24 40       	mov    QWORD PTR [rsp+0x40],rax
   140013163:	48 83 7c 24 40 00    	cmp    QWORD PTR [rsp+0x40],0x0
   140013169:	74 41                	je     0x1400131ac
   14001316b:	48 c7 44 24 38 00 00 	mov    QWORD PTR [rsp+0x38],0x0
   140013172:	00 00 
   140013174:	48 8d 44 24 58       	lea    rax,[rsp+0x58]
   140013179:	48 89 44 24 30       	mov    QWORD PTR [rsp+0x30],rax
   14001317e:	48 8d 44 24 60       	lea    rax,[rsp+0x60]
   140013183:	48 89 44 24 28       	mov    QWORD PTR [rsp+0x28],rax
   140013188:	48 8b 84 24 80 00 00 	mov    rax,QWORD PTR [rsp+0x80]
   14001318f:	00 
   140013190:	48 89 44 24 20       	mov    QWORD PTR [rsp+0x20],rax
   140013195:	4c 8b 4c 24 40       	mov    r9,QWORD PTR [rsp+0x40]
   14001319a:	4c 8b 44 24 48       	mov    r8,QWORD PTR [rsp+0x48]
   14001319f:	48 8b 54 24 50       	mov    rdx,QWORD PTR [rsp+0x50]
   1400131a4:	33 c9                	xor    ecx,ecx
   1400131a6:	ff 15 14 cf 00 00    	call   QWORD PTR [rip+0xcf14]        # 0x1400200c0
   1400131ac:	48 83 c4 78          	add    rsp,0x78
   1400131b0:	c3                   	ret    
   1400131b1:	cc                   	int3   
   1400131b2:	cc                   	int3   
   1400131b3:	cc                   	int3   
   1400131b4:	cc                   	int3   
   1400131b5:	cc                   	int3   
   1400131b6:	cc                   	int3   
   1400131b7:	cc                   	int3   
   1400131b8:	cc                   	int3   
   1400131b9:	cc                   	int3   
   1400131ba:	cc                   	int3   
   1400131bb:	cc                   	int3   
   1400131bc:	cc                   	int3   
   1400131bd:	cc                   	int3   
   1400131be:	cc                   	int3   
   1400131bf:	cc                   	int3   
   1400131c0:	cc                   	int3   
   1400131c1:	cc                   	int3   
   1400131c2:	cc                   	int3   
   1400131c3:	cc                   	int3   
   1400131c4:	cc                   	int3   
   1400131c5:	cc                   	int3   
   1400131c6:	cc                   	int3   
   1400131c7:	cc                   	int3   
   1400131c8:	cc                   	int3   
   1400131c9:	cc                   	int3   
   1400131ca:	cc                   	int3   
   1400131cb:	cc                   	int3   
   1400131cc:	cc                   	int3   
   1400131cd:	cc                   	int3   
   1400131ce:	cc                   	int3   
   1400131cf:	cc                   	int3   
   1400131d0:	cc                   	int3   
   1400131d1:	cc                   	int3   
   1400131d2:	cc                   	int3   
   1400131d3:	cc                   	int3   
   1400131d4:	cc                   	int3   
   1400131d5:	cc                   	int3   
   1400131d6:	cc                   	int3   
   1400131d7:	cc                   	int3   
   1400131d8:	cc                   	int3   
   1400131d9:	cc                   	int3   
   1400131da:	cc                   	int3   
   1400131db:	cc                   	int3   
   1400131dc:	cc                   	int3   
   1400131dd:	cc                   	int3   
   1400131de:	cc                   	int3   
   1400131df:	cc                   	int3   
   1400131e0:	48 89 4c 24 08       	mov    QWORD PTR [rsp+0x8],rcx
   1400131e5:	48 83 ec 78          	sub    rsp,0x78
   1400131e9:	48 8b 8c 24 80 00 00 	mov    rcx,QWORD PTR [rsp+0x80]
   1400131f0:	00 
   1400131f1:	ff 15 31 ce 00 00    	call   QWORD PTR [rip+0xce31]        # 0x140020028
   1400131f7:	48 8b 84 24 80 00 00 	mov    rax,QWORD PTR [rsp+0x80]
   1400131fe:	00 
   1400131ff:	48 8b 80 f8 00 00 00 	mov    rax,QWORD PTR [rax+0xf8]
   140013206:	48 89 44 24 50       	mov    QWORD PTR [rsp+0x50],rax
   14001320b:	c7 44 24 40 00 00 00 	mov    DWORD PTR [rsp+0x40],0x0
   140013212:	00 
   140013213:	eb 0a                	jmp    0x14001321f
   140013215:	8b 44 24 40          	mov    eax,DWORD PTR [rsp+0x40]
   140013219:	ff c0                	inc    eax
   14001321b:	89 44 24 40          	mov    DWORD PTR [rsp+0x40],eax
   14001321f:	83 7c 24 40 02       	cmp    DWORD PTR [rsp+0x40],0x2
   140013224:	7d 67                	jge    0x14001328d
   140013226:	45 33 c0             	xor    r8d,r8d
   140013229:	48 8d 54 24 58       	lea    rdx,[rsp+0x58]
   14001322e:	48 8b 4c 24 50       	mov    rcx,QWORD PTR [rsp+0x50]
   140013233:	ff 15 8f ce 00 00    	call   QWORD PTR [rip+0xce8f]        # 0x1400200c8
   140013239:	48 89 44 24 48       	mov    QWORD PTR [rsp+0x48],rax
   14001323e:	48 83 7c 24 48 00    	cmp    QWORD PTR [rsp+0x48],0x0
   140013244:	74 43                	je     0x140013289
   140013246:	48 c7 44 24 38 00 00 	mov    QWORD PTR [rsp+0x38],0x0
   14001324d:	00 00 
   14001324f:	48 8d 44 24 60       	lea    rax,[rsp+0x60]
   140013254:	48 89 44 24 30       	mov    QWORD PTR [rsp+0x30],rax
   140013259:	48 8d 44 24 68       	lea    rax,[rsp+0x68]
   14001325e:	48 89 44 24 28       	mov    QWORD PTR [rsp+0x28],rax
   140013263:	48 8b 84 24 80 00 00 	mov    rax,QWORD PTR [rsp+0x80]
   14001326a:	00 
   14001326b:	48 89 44 24 20       	mov    QWORD PTR [rsp+0x20],rax
   140013270:	4c 8b 4c 24 48       	mov    r9,QWORD PTR [rsp+0x48]
   140013275:	4c 8b 44 24 50       	mov    r8,QWORD PTR [rsp+0x50]
   14001327a:	48 8b 54 24 58       	mov    rdx,QWORD PTR [rsp+0x58]
   14001327f:	33 c9                	xor    ecx,ecx
   140013281:	ff 15 39 ce 00 00    	call   QWORD PTR [rip+0xce39]        # 0x1400200c0
   140013287:	eb 02                	jmp    0x14001328b
   140013289:	eb 02                	jmp    0x14001328d
   14001328b:	eb 88                	jmp    0x140013215
   14001328d:	48 83 c4 78          	add    rsp,0x78
   140013291:	c3                   	ret    
   140013292:	cc                   	int3   
   140013293:	cc                   	int3   
   140013294:	cc                   	int3   
   140013295:	cc                   	int3   
   140013296:	cc                   	int3   
   140013297:	cc                   	int3   
   140013298:	cc                   	int3   
   140013299:	cc                   	int3   
   14001329a:	cc                   	int3   
   14001329b:	cc                   	int3   
   14001329c:	cc                   	int3   
   14001329d:	cc                   	int3   
   14001329e:	cc                   	int3   
   14001329f:	cc                   	int3   
   1400132a0:	cc                   	int3   
   1400132a1:	cc                   	int3   
   1400132a2:	cc                   	int3   
   1400132a3:	cc                   	int3   
   1400132a4:	cc                   	int3   
   1400132a5:	cc                   	int3   
   1400132a6:	cc                   	int3   
   1400132a7:	cc                   	int3   
   1400132a8:	cc                   	int3   
   1400132a9:	cc                   	int3   
   1400132aa:	cc                   	int3   
   1400132ab:	cc                   	int3   
   1400132ac:	cc                   	int3   
   1400132ad:	cc                   	int3   
   1400132ae:	cc                   	int3   
   1400132af:	cc                   	int3   
   1400132b0:	cc                   	int3   
   1400132b1:	cc                   	int3   
   1400132b2:	cc                   	int3   
   1400132b3:	cc                   	int3   
   1400132b4:	cc                   	int3   
   1400132b5:	cc                   	int3   
   1400132b6:	cc                   	int3   
   1400132b7:	cc                   	int3   
   1400132b8:	cc                   	int3   
   1400132b9:	cc                   	int3   
   1400132ba:	cc                   	int3   
   1400132bb:	cc                   	int3   
   1400132bc:	cc                   	int3   
   1400132bd:	cc                   	int3   
   1400132be:	cc                   	int3   
   1400132bf:	cc                   	int3   
   1400132c0:	48 89 54 24 10       	mov    QWORD PTR [rsp+0x10],rdx
   1400132c5:	48 89 4c 24 08       	mov    QWORD PTR [rsp+0x8],rcx
   1400132ca:	48 83 ec 38          	sub    rsp,0x38
   1400132ce:	48 8b 44 24 40       	mov    rax,QWORD PTR [rsp+0x40]
   1400132d3:	48 89 44 24 10       	mov    QWORD PTR [rsp+0x10],rax
   1400132d8:	48 8b 44 24 10       	mov    rax,QWORD PTR [rsp+0x10]
   1400132dd:	48 63 40 3c          	movsxd rax,DWORD PTR [rax+0x3c]
   1400132e1:	48 8b 4c 24 10       	mov    rcx,QWORD PTR [rsp+0x10]
   1400132e6:	48 03 c8             	add    rcx,rax
   1400132e9:	48 8b c1             	mov    rax,rcx
   1400132ec:	48 89 44 24 20       	mov    QWORD PTR [rsp+0x20],rax
   1400132f1:	48 8b 44 24 20       	mov    rax,QWORD PTR [rsp+0x20]
   1400132f6:	48 89 44 24 08       	mov    QWORD PTR [rsp+0x8],rax
   1400132fb:	48 8b 44 24 08       	mov    rax,QWORD PTR [rsp+0x8]
   140013300:	0f b7 40 14          	movzx  eax,WORD PTR [rax+0x14]
   140013304:	48 8b 4c 24 08       	mov    rcx,QWORD PTR [rsp+0x8]
   140013309:	48 8d 44 01 18       	lea    rax,[rcx+rax*1+0x18]
   14001330e:	48 89 44 24 18       	mov    QWORD PTR [rsp+0x18],rax
   140013313:	48 8b 44 24 08       	mov    rax,QWORD PTR [rsp+0x8]
   140013318:	0f b7 40 06          	movzx  eax,WORD PTR [rax+0x6]
   14001331c:	48 6b c0 28          	imul   rax,rax,0x28
   140013320:	48 8b 4c 24 18       	mov    rcx,QWORD PTR [rsp+0x18]
   140013325:	48 03 c8             	add    rcx,rax
   140013328:	48 8b c1             	mov    rax,rcx
   14001332b:	48 89 44 24 28       	mov    QWORD PTR [rsp+0x28],rax
   140013330:	48 8b 44 24 18       	mov    rax,QWORD PTR [rsp+0x18]
   140013335:	48 89 04 24          	mov    QWORD PTR [rsp],rax
   140013339:	eb 0c                	jmp    0x140013347
   14001333b:	48 8b 04 24          	mov    rax,QWORD PTR [rsp]
   14001333f:	48 83 c0 28          	add    rax,0x28
   140013343:	48 89 04 24          	mov    QWORD PTR [rsp],rax
   140013347:	48 8b 44 24 28       	mov    rax,QWORD PTR [rsp+0x28]
   14001334c:	48 39 04 24          	cmp    QWORD PTR [rsp],rax
   140013350:	74 2d                	je     0x14001337f
   140013352:	48 8b 04 24          	mov    rax,QWORD PTR [rsp]
   140013356:	8b 40 0c             	mov    eax,DWORD PTR [rax+0xc]
   140013359:	48 39 44 24 48       	cmp    QWORD PTR [rsp+0x48],rax
   14001335e:	72 1d                	jb     0x14001337d
   140013360:	48 8b 04 24          	mov    rax,QWORD PTR [rsp]
   140013364:	8b 40 0c             	mov    eax,DWORD PTR [rax+0xc]
   140013367:	48 8b 0c 24          	mov    rcx,QWORD PTR [rsp]
   14001336b:	03 41 08             	add    eax,DWORD PTR [rcx+0x8]
   14001336e:	8b c0                	mov    eax,eax
   140013370:	48 39 44 24 48       	cmp    QWORD PTR [rsp+0x48],rax
   140013375:	73 06                	jae    0x14001337d
   140013377:	48 8b 04 24          	mov    rax,QWORD PTR [rsp]
   14001337b:	eb 04                	jmp    0x140013381
   14001337d:	eb bc                	jmp    0x14001333b
   14001337f:	33 c0                	xor    eax,eax
   140013381:	48 83 c4 38          	add    rsp,0x38
   140013385:	c3                   	ret    
   140013386:	cc                   	int3   
   140013387:	cc                   	int3   
   140013388:	cc                   	int3   
   140013389:	cc                   	int3   
   14001338a:	cc                   	int3   
   14001338b:	cc                   	int3   
   14001338c:	cc                   	int3   
   14001338d:	cc                   	int3   
   14001338e:	cc                   	int3   
   14001338f:	cc                   	int3   
   140013390:	cc                   	int3   
   140013391:	cc                   	int3   
   140013392:	cc                   	int3   
   140013393:	cc                   	int3   
   140013394:	cc                   	int3   
   140013395:	cc                   	int3   
   140013396:	cc                   	int3   
   140013397:	cc                   	int3   
   140013398:	cc                   	int3   
   140013399:	cc                   	int3   
   14001339a:	cc                   	int3   
   14001339b:	cc                   	int3   
   14001339c:	cc                   	int3   
   14001339d:	cc                   	int3   
   14001339e:	cc                   	int3   
   14001339f:	cc                   	int3   
   1400133a0:	cc                   	int3   
   1400133a1:	cc                   	int3   
   1400133a2:	cc                   	int3   
   1400133a3:	cc                   	int3   
   1400133a4:	cc                   	int3   
   1400133a5:	cc                   	int3   
   1400133a6:	cc                   	int3   
   1400133a7:	cc                   	int3   
   1400133a8:	cc                   	int3   
   1400133a9:	cc                   	int3   
   1400133aa:	cc                   	int3   
   1400133ab:	cc                   	int3   
   1400133ac:	cc                   	int3   
   1400133ad:	cc                   	int3   
   1400133ae:	cc                   	int3   
   1400133af:	cc                   	int3   
   1400133b0:	cc                   	int3   
   1400133b1:	cc                   	int3   
   1400133b2:	cc                   	int3   
   1400133b3:	cc                   	int3   
   1400133b4:	cc                   	int3   
   1400133b5:	cc                   	int3   
   1400133b6:	cc                   	int3   
   1400133b7:	cc                   	int3   
   1400133b8:	cc                   	int3   
   1400133b9:	cc                   	int3   
   1400133ba:	cc                   	int3   
   1400133bb:	cc                   	int3   
   1400133bc:	cc                   	int3   
   1400133bd:	cc                   	int3   
   1400133be:	cc                   	int3   
   1400133bf:	cc                   	int3   
   1400133c0:	48 89 4c 24 08       	mov    QWORD PTR [rsp+0x8],rcx
   1400133c5:	48 83 ec 28          	sub    rsp,0x28
   1400133c9:	48 83 7c 24 30 00    	cmp    QWORD PTR [rsp+0x30],0x0
   1400133cf:	75 04                	jne    0x1400133d5
   1400133d1:	32 c0                	xor    al,al
   1400133d3:	eb 70                	jmp    0x140013445
   1400133d5:	48 8b 44 24 30       	mov    rax,QWORD PTR [rsp+0x30]
   1400133da:	48 89 04 24          	mov    QWORD PTR [rsp],rax
   1400133de:	48 8b 04 24          	mov    rax,QWORD PTR [rsp]
   1400133e2:	0f b7 00             	movzx  eax,WORD PTR [rax]
   1400133e5:	3d 4d 5a 00 00       	cmp    eax,0x5a4d
   1400133ea:	74 04                	je     0x1400133f0
   1400133ec:	32 c0                	xor    al,al
   1400133ee:	eb 55                	jmp    0x140013445
   1400133f0:	48 8b 04 24          	mov    rax,QWORD PTR [rsp]
   1400133f4:	48 63 40 3c          	movsxd rax,DWORD PTR [rax+0x3c]
   1400133f8:	48 8b 0c 24          	mov    rcx,QWORD PTR [rsp]
   1400133fc:	48 03 c8             	add    rcx,rax
   1400133ff:	48 8b c1             	mov    rax,rcx
   140013402:	48 89 44 24 10       	mov    QWORD PTR [rsp+0x10],rax
   140013407:	48 8b 44 24 10       	mov    rax,QWORD PTR [rsp+0x10]
   14001340c:	48 89 44 24 08       	mov    QWORD PTR [rsp+0x8],rax
   140013411:	48 8b 44 24 08       	mov    rax,QWORD PTR [rsp+0x8]
   140013416:	81 38 50 45 00 00    	cmp    DWORD PTR [rax],0x4550
   14001341c:	74 04                	je     0x140013422
   14001341e:	32 c0                	xor    al,al
   140013420:	eb 23                	jmp    0x140013445
   140013422:	48 8b 44 24 08       	mov    rax,QWORD PTR [rsp+0x8]
   140013427:	48 83 c0 18          	add    rax,0x18
   14001342b:	48 89 44 24 18       	mov    QWORD PTR [rsp+0x18],rax
   140013430:	48 8b 44 24 18       	mov    rax,QWORD PTR [rsp+0x18]
   140013435:	0f b7 00             	movzx  eax,WORD PTR [rax]
   140013438:	3d 0b 02 00 00       	cmp    eax,0x20b
   14001343d:	74 04                	je     0x140013443
   14001343f:	32 c0                	xor    al,al
   140013441:	eb 02                	jmp    0x140013445
   140013443:	b0 01                	mov    al,0x1
   140013445:	48 83 c4 28          	add    rsp,0x28
   140013449:	c3                   	ret    
   14001344a:	cc                   	int3   
   14001344b:	cc                   	int3   
   14001344c:	cc                   	int3   
   14001344d:	cc                   	int3   
   14001344e:	cc                   	int3   
   14001344f:	cc                   	int3   
   140013450:	cc                   	int3   
   140013451:	cc                   	int3   
   140013452:	cc                   	int3   
   140013453:	cc                   	int3   
   140013454:	cc                   	int3   
   140013455:	cc                   	int3   
   140013456:	cc                   	int3   
   140013457:	cc                   	int3   
   140013458:	cc                   	int3   
   140013459:	cc                   	int3   
   14001345a:	cc                   	int3   
   14001345b:	cc                   	int3   
   14001345c:	cc                   	int3   
   14001345d:	cc                   	int3   
   14001345e:	cc                   	int3   
   14001345f:	cc                   	int3   
   140013460:	cc                   	int3   
   140013461:	cc                   	int3   
   140013462:	cc                   	int3   
   140013463:	cc                   	int3   
   140013464:	cc                   	int3   
   140013465:	cc                   	int3   
   140013466:	cc                   	int3   
   140013467:	cc                   	int3   
   140013468:	cc                   	int3   
   140013469:	cc                   	int3   
   14001346a:	cc                   	int3   
   14001346b:	cc                   	int3   
   14001346c:	cc                   	int3   
   14001346d:	cc                   	int3   
   14001346e:	cc                   	int3   
   14001346f:	cc                   	int3   
   140013470:	65 48 8b 04 25 30 00 	mov    rax,QWORD PTR gs:0x30
   140013477:	00 00 
   140013479:	c3                   	ret    
   14001347a:	cc                   	int3   
   14001347b:	cc                   	int3   
   14001347c:	cc                   	int3   
   14001347d:	cc                   	int3   
   14001347e:	cc                   	int3   
   14001347f:	cc                   	int3   
   140013480:	48 83 ec 48          	sub    rsp,0x48
   140013484:	e8 10 de ff ff       	call   0x140011299
   140013489:	85 c0                	test   eax,eax
   14001348b:	75 04                	jne    0x140013491
   14001348d:	32 c0                	xor    al,al
   14001348f:	eb 4c                	jmp    0x1400134dd
   140013491:	e8 b5 db ff ff       	call   0x14001104b
   140013496:	48 8b 40 08          	mov    rax,QWORD PTR [rax+0x8]
   14001349a:	48 89 44 24 28       	mov    QWORD PTR [rsp+0x28],rax
   14001349f:	48 8b 44 24 28       	mov    rax,QWORD PTR [rsp+0x28]
   1400134a4:	48 89 44 24 30       	mov    QWORD PTR [rsp+0x30],rax
   1400134a9:	48 8d 0d 80 93 00 00 	lea    rcx,[rip+0x9380]        # 0x14001c830
   1400134b0:	33 c0                	xor    eax,eax
   1400134b2:	48 8b 54 24 30       	mov    rdx,QWORD PTR [rsp+0x30]
   1400134b7:	f0 48 0f b1 11       	lock cmpxchg QWORD PTR [rcx],rdx
   1400134bc:	48 89 44 24 20       	mov    QWORD PTR [rsp+0x20],rax
   1400134c1:	48 83 7c 24 20 00    	cmp    QWORD PTR [rsp+0x20],0x0
   1400134c7:	74 12                	je     0x1400134db
   1400134c9:	48 8b 44 24 20       	mov    rax,QWORD PTR [rsp+0x20]
   1400134ce:	48 39 44 24 28       	cmp    QWORD PTR [rsp+0x28],rax
   1400134d3:	75 04                	jne    0x1400134d9
   1400134d5:	b0 01                	mov    al,0x1
   1400134d7:	eb 04                	jmp    0x1400134dd
   1400134d9:	eb c4                	jmp    0x14001349f
   1400134db:	32 c0                	xor    al,al
   1400134dd:	48 83 c4 48          	add    rsp,0x48
   1400134e1:	c3                   	ret    
   1400134e2:	cc                   	int3   
   1400134e3:	cc                   	int3   
   1400134e4:	cc                   	int3   
   1400134e5:	cc                   	int3   
   1400134e6:	cc                   	int3   
   1400134e7:	cc                   	int3   
   1400134e8:	cc                   	int3   
   1400134e9:	cc                   	int3   
   1400134ea:	cc                   	int3   
   1400134eb:	cc                   	int3   
   1400134ec:	cc                   	int3   
   1400134ed:	cc                   	int3   
   1400134ee:	cc                   	int3   
   1400134ef:	cc                   	int3   
   1400134f0:	cc                   	int3   
   1400134f1:	cc                   	int3   
   1400134f2:	cc                   	int3   
   1400134f3:	cc                   	int3   
   1400134f4:	cc                   	int3   
   1400134f5:	cc                   	int3   
   1400134f6:	cc                   	int3   
   1400134f7:	cc                   	int3   
   1400134f8:	cc                   	int3   
   1400134f9:	cc                   	int3   
   1400134fa:	cc                   	int3   
   1400134fb:	cc                   	int3   
   1400134fc:	cc                   	int3   
   1400134fd:	cc                   	int3   
   1400134fe:	cc                   	int3   
   1400134ff:	cc                   	int3   
   140013500:	48 83 ec 28          	sub    rsp,0x28
   140013504:	e8 90 dd ff ff       	call   0x140011299
   140013509:	85 c0                	test   eax,eax
   14001350b:	74 07                	je     0x140013514
   14001350d:	e8 f0 dd ff ff       	call   0x140011302
   140013512:	eb 12                	jmp    0x140013526
   140013514:	e8 2a de ff ff       	call   0x140011343
   140013519:	85 c0                	test   eax,eax
   14001351b:	74 04                	je     0x140013521
   14001351d:	32 c0                	xor    al,al
   14001351f:	eb 07                	jmp    0x140013528
   140013521:	e8 5f dd ff ff       	call   0x140011285
   140013526:	b0 01                	mov    al,0x1
   140013528:	48 83 c4 28          	add    rsp,0x28
   14001352c:	c3                   	ret    
   14001352d:	cc                   	int3   
   14001352e:	cc                   	int3   
   14001352f:	cc                   	int3   
   140013530:	cc                   	int3   
   140013531:	cc                   	int3   
   140013532:	cc                   	int3   
   140013533:	cc                   	int3   
   140013534:	cc                   	int3   
   140013535:	cc                   	int3   
   140013536:	cc                   	int3   
   140013537:	cc                   	int3   
   140013538:	cc                   	int3   
   140013539:	cc                   	int3   
   14001353a:	cc                   	int3   
   14001353b:	cc                   	int3   
   14001353c:	cc                   	int3   
   14001353d:	cc                   	int3   
   14001353e:	cc                   	int3   
   14001353f:	cc                   	int3   
   140013540:	48 83 ec 28          	sub    rsp,0x28
   140013544:	33 c9                	xor    ecx,ecx
   140013546:	e8 36 dc ff ff       	call   0x140011181
   14001354b:	0f b6 c0             	movzx  eax,al
   14001354e:	85 c0                	test   eax,eax
   140013550:	75 04                	jne    0x140013556
   140013552:	32 c0                	xor    al,al
   140013554:	eb 02                	jmp    0x140013558
   140013556:	b0 01                	mov    al,0x1
   140013558:	48 83 c4 28          	add    rsp,0x28
   14001355c:	c3                   	ret    
   14001355d:	cc                   	int3   
   14001355e:	cc                   	int3   
   14001355f:	cc                   	int3   
   140013560:	cc                   	int3   
   140013561:	cc                   	int3   
   140013562:	cc                   	int3   
   140013563:	cc                   	int3   
   140013564:	cc                   	int3   
   140013565:	cc                   	int3   
   140013566:	cc                   	int3   
   140013567:	cc                   	int3   
   140013568:	cc                   	int3   
   140013569:	cc                   	int3   
   14001356a:	cc                   	int3   
   14001356b:	cc                   	int3   
   14001356c:	cc                   	int3   
   14001356d:	cc                   	int3   
   14001356e:	cc                   	int3   
   14001356f:	cc                   	int3   
   140013570:	48 83 ec 28          	sub    rsp,0x28
   140013574:	e8 da dc ff ff       	call   0x140011253
   140013579:	0f b6 c0             	movzx  eax,al
   14001357c:	85 c0                	test   eax,eax
   14001357e:	75 04                	jne    0x140013584
   140013580:	32 c0                	xor    al,al
   140013582:	eb 17                	jmp    0x14001359b
   140013584:	e8 08 db ff ff       	call   0x140011091
   140013589:	0f b6 c0             	movzx  eax,al
   14001358c:	85 c0                	test   eax,eax
   14001358e:	75 09                	jne    0x140013599
   140013590:	e8 19 dc ff ff       	call   0x1400111ae
   140013595:	32 c0                	xor    al,al
   140013597:	eb 02                	jmp    0x14001359b
   140013599:	b0 01                	mov    al,0x1
   14001359b:	48 83 c4 28          	add    rsp,0x28
   14001359f:	c3                   	ret    
   1400135a0:	cc                   	int3   
   1400135a1:	cc                   	int3   
   1400135a2:	cc                   	int3   
   1400135a3:	cc                   	int3   
   1400135a4:	cc                   	int3   
   1400135a5:	cc                   	int3   
   1400135a6:	cc                   	int3   
   1400135a7:	cc                   	int3   
   1400135a8:	cc                   	int3   
   1400135a9:	cc                   	int3   
   1400135aa:	cc                   	int3   
   1400135ab:	cc                   	int3   
   1400135ac:	cc                   	int3   
   1400135ad:	cc                   	int3   
   1400135ae:	cc                   	int3   
   1400135af:	cc                   	int3   
   1400135b0:	48 83 ec 28          	sub    rsp,0x28
   1400135b4:	e8 3c db ff ff       	call   0x1400110f5
   1400135b9:	e8 f0 db ff ff       	call   0x1400111ae
   1400135be:	b0 01                	mov    al,0x1
   1400135c0:	48 83 c4 28          	add    rsp,0x28
   1400135c4:	c3                   	ret    
   1400135c5:	cc                   	int3   
   1400135c6:	cc                   	int3   
   1400135c7:	cc                   	int3   
   1400135c8:	cc                   	int3   
   1400135c9:	cc                   	int3   
   1400135ca:	cc                   	int3   
   1400135cb:	cc                   	int3   
   1400135cc:	cc                   	int3   
   1400135cd:	cc                   	int3   
   1400135ce:	cc                   	int3   
   1400135cf:	cc                   	int3   
   1400135d0:	4c 89 4c 24 20       	mov    QWORD PTR [rsp+0x20],r9
   1400135d5:	4c 89 44 24 18       	mov    QWORD PTR [rsp+0x18],r8
   1400135da:	89 54 24 10          	mov    DWORD PTR [rsp+0x10],edx
   1400135de:	48 89 4c 24 08       	mov    QWORD PTR [rsp+0x8],rcx
   1400135e3:	48 83 ec 38          	sub    rsp,0x38
   1400135e7:	e8 ad dc ff ff       	call   0x140011299
   1400135ec:	85 c0                	test   eax,eax
   1400135ee:	75 32                	jne    0x140013622
   1400135f0:	83 7c 24 48 01       	cmp    DWORD PTR [rsp+0x48],0x1
   1400135f5:	75 2b                	jne    0x140013622
   1400135f7:	48 8b 44 24 58       	mov    rax,QWORD PTR [rsp+0x58]
   1400135fc:	48 89 44 24 20       	mov    QWORD PTR [rsp+0x20],rax
   140013601:	48 8b 44 24 20       	mov    rax,QWORD PTR [rsp+0x20]
   140013606:	48 89 44 24 28       	mov    QWORD PTR [rsp+0x28],rax
   14001360b:	4c 8b 44 24 50       	mov    r8,QWORD PTR [rsp+0x50]
   140013610:	33 d2                	xor    edx,edx
   140013612:	48 8b 4c 24 40       	mov    rcx,QWORD PTR [rsp+0x40]
   140013617:	48 8b 44 24 28       	mov    rax,QWORD PTR [rsp+0x28]
   14001361c:	ff 15 ee e9 00 00    	call   QWORD PTR [rip+0xe9ee]        # 0x140022010
   140013622:	48 8b 54 24 68       	mov    rdx,QWORD PTR [rsp+0x68]
   140013627:	8b 4c 24 60          	mov    ecx,DWORD PTR [rsp+0x60]
   14001362b:	e8 8d db ff ff       	call   0x1400111bd
   140013630:	48 83 c4 38          	add    rsp,0x38
   140013634:	c3                   	ret    
   140013635:	cc                   	int3   
   140013636:	cc                   	int3   
   140013637:	cc                   	int3   
   140013638:	cc                   	int3   
   140013639:	cc                   	int3   
   14001363a:	cc                   	int3   
   14001363b:	cc                   	int3   
   14001363c:	cc                   	int3   
   14001363d:	cc                   	int3   
   14001363e:	cc                   	int3   
   14001363f:	cc                   	int3   
   140013640:	cc                   	int3   
   140013641:	cc                   	int3   
   140013642:	cc                   	int3   
   140013643:	cc                   	int3   
   140013644:	cc                   	int3   
   140013645:	cc                   	int3   
   140013646:	cc                   	int3   
   140013647:	cc                   	int3   
   140013648:	cc                   	int3   
   140013649:	cc                   	int3   
   14001364a:	cc                   	int3   
   14001364b:	cc                   	int3   
   14001364c:	cc                   	int3   
   14001364d:	cc                   	int3   
   14001364e:	cc                   	int3   
   14001364f:	cc                   	int3   
   140013650:	48 83 ec 28          	sub    rsp,0x28
   140013654:	e8 40 dc ff ff       	call   0x140011299
   140013659:	85 c0                	test   eax,eax
   14001365b:	74 0e                	je     0x14001366b
   14001365d:	48 8d 0d dc 91 00 00 	lea    rcx,[rip+0x91dc]        # 0x14001c840
   140013664:	e8 fe db ff ff       	call   0x140011267
   140013669:	eb 0e                	jmp    0x140013679
   14001366b:	e8 d0 da ff ff       	call   0x140011140
   140013670:	85 c0                	test   eax,eax
   140013672:	75 05                	jne    0x140013679
   140013674:	e8 8c d9 ff ff       	call   0x140011005
   140013679:	48 83 c4 28          	add    rsp,0x28
   14001367d:	c3                   	ret    
   14001367e:	cc                   	int3   
   14001367f:	cc                   	int3   
   140013680:	cc                   	int3   
   140013681:	cc                   	int3   
   140013682:	cc                   	int3   
   140013683:	cc                   	int3   
   140013684:	cc                   	int3   
   140013685:	cc                   	int3   
   140013686:	cc                   	int3   
   140013687:	cc                   	int3   
   140013688:	cc                   	int3   
   140013689:	cc                   	int3   
   14001368a:	cc                   	int3   
   14001368b:	cc                   	int3   
   14001368c:	cc                   	int3   
   14001368d:	cc                   	int3   
   14001368e:	cc                   	int3   
   14001368f:	cc                   	int3   
   140013690:	48 83 ec 28          	sub    rsp,0x28
   140013694:	33 c9                	xor    ecx,ecx
   140013696:	e8 8a dc ff ff       	call   0x140011325
   14001369b:	e8 03 dc ff ff       	call   0x1400112a3
   1400136a0:	48 83 c4 28          	add    rsp,0x28
   1400136a4:	c3                   	ret    
   1400136a5:	cc                   	int3   
   1400136a6:	cc                   	int3   
   1400136a7:	cc                   	int3   
   1400136a8:	cc                   	int3   
   1400136a9:	cc                   	int3   
   1400136aa:	cc                   	int3   
   1400136ab:	cc                   	int3   
   1400136ac:	cc                   	int3   
   1400136ad:	cc                   	int3   
   1400136ae:	cc                   	int3   
   1400136af:	cc                   	int3   
   1400136b0:	89 4c 24 08          	mov    DWORD PTR [rsp+0x8],ecx
   1400136b4:	48 83 ec 28          	sub    rsp,0x28
   1400136b8:	83 7c 24 30 00       	cmp    DWORD PTR [rsp+0x30],0x0
   1400136bd:	75 07                	jne    0x1400136c6
   1400136bf:	c6 05 72 91 00 00 01 	mov    BYTE PTR [rip+0x9172],0x1        # 0x14001c838
   1400136c6:	e8 37 dc ff ff       	call   0x140011302
   1400136cb:	e8 a8 d9 ff ff       	call   0x140011078
   1400136d0:	0f b6 c0             	movzx  eax,al
   1400136d3:	85 c0                	test   eax,eax
   1400136d5:	75 04                	jne    0x1400136db
   1400136d7:	32 c0                	xor    al,al
   1400136d9:	eb 19                	jmp    0x1400136f4
   1400136db:	e8 a4 dc ff ff       	call   0x140011384
   1400136e0:	0f b6 c0             	movzx  eax,al
   1400136e3:	85 c0                	test   eax,eax
   1400136e5:	75 0b                	jne    0x1400136f2
   1400136e7:	33 c9                	xor    ecx,ecx
   1400136e9:	e8 dd db ff ff       	call   0x1400112cb
   1400136ee:	32 c0                	xor    al,al
   1400136f0:	eb 02                	jmp    0x1400136f4
   1400136f2:	b0 01                	mov    al,0x1
   1400136f4:	48 83 c4 28          	add    rsp,0x28
   1400136f8:	c3                   	ret    
   1400136f9:	cc                   	int3   
   1400136fa:	cc                   	int3   
   1400136fb:	cc                   	int3   
   1400136fc:	cc                   	int3   
   1400136fd:	cc                   	int3   
   1400136fe:	cc                   	int3   
   1400136ff:	cc                   	int3   
   140013700:	cc                   	int3   
   140013701:	cc                   	int3   
   140013702:	cc                   	int3   
   140013703:	cc                   	int3   
   140013704:	cc                   	int3   
   140013705:	cc                   	int3   
   140013706:	cc                   	int3   
   140013707:	cc                   	int3   
   140013708:	cc                   	int3   
   140013709:	cc                   	int3   
   14001370a:	cc                   	int3   
   14001370b:	cc                   	int3   
   14001370c:	cc                   	int3   
   14001370d:	cc                   	int3   
   14001370e:	cc                   	int3   
   14001370f:	cc                   	int3   
   140013710:	89 4c 24 08          	mov    DWORD PTR [rsp+0x8],ecx
   140013714:	56                   	push   rsi
   140013715:	57                   	push   rdi
   140013716:	48 83 ec 68          	sub    rsp,0x68
   14001371a:	0f b6 05 18 91 00 00 	movzx  eax,BYTE PTR [rip+0x9118]        # 0x14001c839
   140013721:	85 c0                	test   eax,eax
   140013723:	74 07                	je     0x14001372c
   140013725:	b0 01                	mov    al,0x1
   140013727:	e9 e1 00 00 00       	jmp    0x14001380d
   14001372c:	83 bc 24 80 00 00 00 	cmp    DWORD PTR [rsp+0x80],0x0
   140013733:	00 
   140013734:	74 14                	je     0x14001374a
   140013736:	83 bc 24 80 00 00 00 	cmp    DWORD PTR [rsp+0x80],0x1
   14001373d:	01 
   14001373e:	74 0a                	je     0x14001374a
   140013740:	b9 05 00 00 00       	mov    ecx,0x5
   140013745:	e8 31 db ff ff       	call   0x14001127b
   14001374a:	e8 4a db ff ff       	call   0x140011299
   14001374f:	85 c0                	test   eax,eax
   140013751:	74 3a                	je     0x14001378d
   140013753:	83 bc 24 80 00 00 00 	cmp    DWORD PTR [rsp+0x80],0x0
   14001375a:	00 
   14001375b:	75 30                	jne    0x14001378d
   14001375d:	48 8d 0d dc 90 00 00 	lea    rcx,[rip+0x90dc]        # 0x14001c840
   140013764:	e8 0c dc ff ff       	call   0x140011375
   140013769:	85 c0                	test   eax,eax
   14001376b:	74 07                	je     0x140013774
   14001376d:	32 c0                	xor    al,al
   14001376f:	e9 99 00 00 00       	jmp    0x14001380d
   140013774:	48 8d 0d dd 90 00 00 	lea    rcx,[rip+0x90dd]        # 0x14001c858
   14001377b:	e8 f5 db ff ff       	call   0x140011375
   140013780:	85 c0                	test   eax,eax
   140013782:	74 07                	je     0x14001378b
   140013784:	32 c0                	xor    al,al
   140013786:	e9 82 00 00 00       	jmp    0x14001380d
   14001378b:	eb 77                	jmp    0x140013804
   14001378d:	48 c7 44 24 20 ff ff 	mov    QWORD PTR [rsp+0x20],0xffffffffffffffff
   140013794:	ff ff 
   140013796:	48 8b 44 24 20       	mov    rax,QWORD PTR [rsp+0x20]
   14001379b:	48 89 44 24 28       	mov    QWORD PTR [rsp+0x28],rax
   1400137a0:	48 8b 44 24 20       	mov    rax,QWORD PTR [rsp+0x20]
   1400137a5:	48 89 44 24 30       	mov    QWORD PTR [rsp+0x30],rax
   1400137aa:	48 8b 44 24 20       	mov    rax,QWORD PTR [rsp+0x20]
   1400137af:	48 89 44 24 38       	mov    QWORD PTR [rsp+0x38],rax
   1400137b4:	48 8d 05 85 90 00 00 	lea    rax,[rip+0x9085]        # 0x14001c840
   1400137bb:	48 8d 4c 24 28       	lea    rcx,[rsp+0x28]
   1400137c0:	48 8b f8             	mov    rdi,rax
   1400137c3:	48 8b f1             	mov    rsi,rcx
   1400137c6:	b9 18 00 00 00       	mov    ecx,0x18
   1400137cb:	f3 a4                	rep movs BYTE PTR es:[rdi],BYTE PTR ds:[rsi]
   1400137cd:	48 8b 44 24 20       	mov    rax,QWORD PTR [rsp+0x20]
   1400137d2:	48 89 44 24 40       	mov    QWORD PTR [rsp+0x40],rax
   1400137d7:	48 8b 44 24 20       	mov    rax,QWORD PTR [rsp+0x20]
   1400137dc:	48 89 44 24 48       	mov    QWORD PTR [rsp+0x48],rax
   1400137e1:	48 8b 44 24 20       	mov    rax,QWORD PTR [rsp+0x20]
   1400137e6:	48 89 44 24 50       	mov    QWORD PTR [rsp+0x50],rax
   1400137eb:	48 8d 05 66 90 00 00 	lea    rax,[rip+0x9066]        # 0x14001c858
   1400137f2:	48 8d 4c 24 40       	lea    rcx,[rsp+0x40]
   1400137f7:	48 8b f8             	mov    rdi,rax
   1400137fa:	48 8b f1             	mov    rsi,rcx
   1400137fd:	b9 18 00 00 00       	mov    ecx,0x18
   140013802:	f3 a4                	rep movs BYTE PTR es:[rdi],BYTE PTR ds:[rsi]
   140013804:	c6 05 2e 90 00 00 01 	mov    BYTE PTR [rip+0x902e],0x1        # 0x14001c839
   14001380b:	b0 01                	mov    al,0x1
   14001380d:	48 83 c4 68          	add    rsp,0x68
   140013811:	5f                   	pop    rdi
   140013812:	5e                   	pop    rsi
   140013813:	c3                   	ret    
   140013814:	cc                   	int3   
   140013815:	cc                   	int3   
   140013816:	cc                   	int3   
   140013817:	cc                   	int3   
   140013818:	cc                   	int3   
   140013819:	cc                   	int3   
   14001381a:	cc                   	int3   
   14001381b:	cc                   	int3   
   14001381c:	cc                   	int3   
   14001381d:	cc                   	int3   
   14001381e:	cc                   	int3   
   14001381f:	cc                   	int3   
   140013820:	cc                   	int3   
   140013821:	cc                   	int3   
   140013822:	cc                   	int3   
   140013823:	cc                   	int3   
   140013824:	cc                   	int3   
   140013825:	cc                   	int3   
   140013826:	cc                   	int3   
   140013827:	cc                   	int3   
   140013828:	cc                   	int3   
   140013829:	cc                   	int3   
   14001382a:	cc                   	int3   
   14001382b:	cc                   	int3   
   14001382c:	cc                   	int3   
   14001382d:	cc                   	int3   
   14001382e:	cc                   	int3   
   14001382f:	cc                   	int3   
   140013830:	cc                   	int3   
   140013831:	cc                   	int3   
   140013832:	cc                   	int3   
   140013833:	cc                   	int3   
   140013834:	cc                   	int3   
   140013835:	cc                   	int3   
   140013836:	cc                   	int3   
   140013837:	cc                   	int3   
   140013838:	cc                   	int3   
   140013839:	cc                   	int3   
   14001383a:	cc                   	int3   
   14001383b:	cc                   	int3   
   14001383c:	cc                   	int3   
   14001383d:	cc                   	int3   
   14001383e:	cc                   	int3   
   14001383f:	cc                   	int3   
   140013840:	cc                   	int3   
   140013841:	cc                   	int3   
   140013842:	cc                   	int3   
   140013843:	cc                   	int3   
   140013844:	cc                   	int3   
   140013845:	cc                   	int3   
   140013846:	cc                   	int3   
   140013847:	cc                   	int3   
   140013848:	cc                   	int3   
   140013849:	cc                   	int3   
   14001384a:	cc                   	int3   
   14001384b:	cc                   	int3   
   14001384c:	cc                   	int3   
   14001384d:	cc                   	int3   
   14001384e:	cc                   	int3   
   14001384f:	cc                   	int3   
   140013850:	cc                   	int3   
   140013851:	cc                   	int3   
   140013852:	cc                   	int3   
   140013853:	cc                   	int3   
   140013854:	cc                   	int3   
   140013855:	cc                   	int3   
   140013856:	cc                   	int3   
   140013857:	cc                   	int3   
   140013858:	cc                   	int3   
   140013859:	cc                   	int3   
   14001385a:	cc                   	int3   
   14001385b:	cc                   	int3   
   14001385c:	cc                   	int3   
   14001385d:	cc                   	int3   
   14001385e:	cc                   	int3   
   14001385f:	cc                   	int3   
   140013860:	48 89 4c 24 08       	mov    QWORD PTR [rsp+0x8],rcx
   140013865:	48 83 ec 58          	sub    rsp,0x58
   140013869:	48 8b 44 24 60       	mov    rax,QWORD PTR [rsp+0x60]
   14001386e:	48 89 44 24 38       	mov    QWORD PTR [rsp+0x38],rax
   140013873:	48 8d 05 86 c7 fe ff 	lea    rax,[rip+0xfffffffffffec786]        # 0x140000000
   14001387a:	48 89 44 24 28       	mov    QWORD PTR [rsp+0x28],rax
   14001387f:	48 8b 4c 24 28       	mov    rcx,QWORD PTR [rsp+0x28]
   140013884:	e8 37 fb ff ff       	call   0x1400133c0
   140013889:	0f b6 c0             	movzx  eax,al
   14001388c:	85 c0                	test   eax,eax
   14001388e:	75 04                	jne    0x140013894
   140013890:	32 c0                	xor    al,al
   140013892:	eb 52                	jmp    0x1400138e6
   140013894:	48 8b 44 24 28       	mov    rax,QWORD PTR [rsp+0x28]
   140013899:	48 8b 4c 24 38       	mov    rcx,QWORD PTR [rsp+0x38]
   14001389e:	48 2b c8             	sub    rcx,rax
   1400138a1:	48 8b c1             	mov    rax,rcx
   1400138a4:	48 89 44 24 40       	mov    QWORD PTR [rsp+0x40],rax
   1400138a9:	48 8b 54 24 40       	mov    rdx,QWORD PTR [rsp+0x40]
   1400138ae:	48 8b 4c 24 28       	mov    rcx,QWORD PTR [rsp+0x28]
   1400138b3:	e8 08 fa ff ff       	call   0x1400132c0
   1400138b8:	48 89 44 24 30       	mov    QWORD PTR [rsp+0x30],rax
   1400138bd:	48 83 7c 24 30 00    	cmp    QWORD PTR [rsp+0x30],0x0
   1400138c3:	75 04                	jne    0x1400138c9
   1400138c5:	32 c0                	xor    al,al
   1400138c7:	eb 1d                	jmp    0x1400138e6
   1400138c9:	48 8b 44 24 30       	mov    rax,QWORD PTR [rsp+0x30]
   1400138ce:	8b 40 24             	mov    eax,DWORD PTR [rax+0x24]
   1400138d1:	25 00 00 00 80       	and    eax,0x80000000
   1400138d6:	85 c0                	test   eax,eax
   1400138d8:	74 04                	je     0x1400138de
   1400138da:	32 c0                	xor    al,al
   1400138dc:	eb 08                	jmp    0x1400138e6
   1400138de:	b0 01                	mov    al,0x1
   1400138e0:	eb 04                	jmp    0x1400138e6
   1400138e2:	32 c0                	xor    al,al
   1400138e4:	eb 00                	jmp    0x1400138e6
   1400138e6:	48 83 c4 58          	add    rsp,0x58
   1400138ea:	c3                   	ret    
   1400138eb:	cc                   	int3   
   1400138ec:	cc                   	int3   
   1400138ed:	cc                   	int3   
   1400138ee:	cc                   	int3   
   1400138ef:	cc                   	int3   
   1400138f0:	cc                   	int3   
   1400138f1:	cc                   	int3   
   1400138f2:	cc                   	int3   
   1400138f3:	cc                   	int3   
   1400138f4:	cc                   	int3   
   1400138f5:	cc                   	int3   
   1400138f6:	cc                   	int3   
   1400138f7:	cc                   	int3   
   1400138f8:	cc                   	int3   
   1400138f9:	cc                   	int3   
   1400138fa:	cc                   	int3   
   1400138fb:	cc                   	int3   
   1400138fc:	cc                   	int3   
   1400138fd:	cc                   	int3   
   1400138fe:	cc                   	int3   
   1400138ff:	cc                   	int3   
   140013900:	cc                   	int3   
   140013901:	cc                   	int3   
   140013902:	cc                   	int3   
   140013903:	cc                   	int3   
   140013904:	cc                   	int3   
   140013905:	cc                   	int3   
   140013906:	cc                   	int3   
   140013907:	cc                   	int3   
   140013908:	cc                   	int3   
   140013909:	cc                   	int3   
   14001390a:	cc                   	int3   
   14001390b:	cc                   	int3   
   14001390c:	cc                   	int3   
   14001390d:	cc                   	int3   
   14001390e:	cc                   	int3   
   14001390f:	cc                   	int3   
   140013910:	88 4c 24 08          	mov    BYTE PTR [rsp+0x8],cl
   140013914:	48 83 ec 28          	sub    rsp,0x28
   140013918:	e8 7c d9 ff ff       	call   0x140011299
   14001391d:	85 c0                	test   eax,eax
   14001391f:	75 02                	jne    0x140013923
   140013921:	eb 17                	jmp    0x14001393a
   140013923:	0f b6 44 24 30       	movzx  eax,BYTE PTR [rsp+0x30]
   140013928:	85 c0                	test   eax,eax
   14001392a:	74 02                	je     0x14001392e
   14001392c:	eb 0c                	jmp    0x14001393a
   14001392e:	33 c0                	xor    eax,eax
   140013930:	48 8d 0d f9 8e 00 00 	lea    rcx,[rip+0x8ef9]        # 0x14001c830
   140013937:	48 87 01             	xchg   QWORD PTR [rcx],rax
   14001393a:	48 83 c4 28          	add    rsp,0x28
   14001393e:	c3                   	ret    
   14001393f:	cc                   	int3   
   140013940:	cc                   	int3   
   140013941:	cc                   	int3   
   140013942:	cc                   	int3   
   140013943:	cc                   	int3   
   140013944:	cc                   	int3   
   140013945:	cc                   	int3   
   140013946:	cc                   	int3   
   140013947:	cc                   	int3   
   140013948:	cc                   	int3   
   140013949:	cc                   	int3   
   14001394a:	cc                   	int3   
   14001394b:	cc                   	int3   
   14001394c:	cc                   	int3   
   14001394d:	cc                   	int3   
   14001394e:	cc                   	int3   
   14001394f:	cc                   	int3   
   140013950:	88 54 24 10          	mov    BYTE PTR [rsp+0x10],dl
   140013954:	88 4c 24 08          	mov    BYTE PTR [rsp+0x8],cl
   140013958:	48 83 ec 28          	sub    rsp,0x28
   14001395c:	0f b6 05 d5 8e 00 00 	movzx  eax,BYTE PTR [rip+0x8ed5]        # 0x14001c838
   140013963:	85 c0                	test   eax,eax
   140013965:	74 0d                	je     0x140013974
   140013967:	0f b6 44 24 38       	movzx  eax,BYTE PTR [rsp+0x38]
   14001396c:	85 c0                	test   eax,eax
   14001396e:	74 04                	je     0x140013974
   140013970:	b0 01                	mov    al,0x1
   140013972:	eb 16                	jmp    0x14001398a
   140013974:	0f b6 4c 24 30       	movzx  ecx,BYTE PTR [rsp+0x30]
   140013979:	e8 43 d9 ff ff       	call   0x1400112c1
   14001397e:	0f b6 4c 24 30       	movzx  ecx,BYTE PTR [rsp+0x30]
   140013983:	e8 43 d9 ff ff       	call   0x1400112cb
   140013988:	b0 01                	mov    al,0x1
   14001398a:	48 83 c4 28          	add    rsp,0x28
   14001398e:	c3                   	ret    
   14001398f:	cc                   	int3   
   140013990:	cc                   	int3   
   140013991:	cc                   	int3   
   140013992:	cc                   	int3   
   140013993:	cc                   	int3   
   140013994:	cc                   	int3   
   140013995:	cc                   	int3   
   140013996:	cc                   	int3   
   140013997:	cc                   	int3   
   140013998:	cc                   	int3   
   140013999:	cc                   	int3   
   14001399a:	cc                   	int3   
   14001399b:	cc                   	int3   
   14001399c:	cc                   	int3   
   14001399d:	cc                   	int3   
   14001399e:	cc                   	int3   
   14001399f:	cc                   	int3   
   1400139a0:	48 89 4c 24 08       	mov    QWORD PTR [rsp+0x8],rcx
   1400139a5:	48 83 ec 48          	sub    rsp,0x48
   1400139a9:	48 8b 05 90 8e 00 00 	mov    rax,QWORD PTR [rip+0x8e90]        # 0x14001c840
   1400139b0:	48 89 44 24 30       	mov    QWORD PTR [rsp+0x30],rax
   1400139b5:	48 83 7c 24 30 ff    	cmp    QWORD PTR [rsp+0x30],0xffffffffffffffff
   1400139bb:	75 2c                	jne    0x1400139e9
   1400139bd:	48 8b 4c 24 50       	mov    rcx,QWORD PTR [rsp+0x50]
   1400139c2:	e8 06 d7 ff ff       	call   0x1400110cd
   1400139c7:	85 c0                	test   eax,eax
   1400139c9:	75 0c                	jne    0x1400139d7
   1400139cb:	48 8b 44 24 50       	mov    rax,QWORD PTR [rsp+0x50]
   1400139d0:	48 89 44 24 20       	mov    QWORD PTR [rsp+0x20],rax
   1400139d5:	eb 09                	jmp    0x1400139e0
   1400139d7:	48 c7 44 24 20 00 00 	mov    QWORD PTR [rsp+0x20],0x0
   1400139de:	00 00 
   1400139e0:	48 8b 44 24 20       	mov    rax,QWORD PTR [rsp+0x20]
   1400139e5:	eb 31                	jmp    0x140013a18
   1400139e7:	eb 2f                	jmp    0x140013a18
   1400139e9:	48 8b 54 24 50       	mov    rdx,QWORD PTR [rsp+0x50]
   1400139ee:	48 8d 0d 4b 8e 00 00 	lea    rcx,[rip+0x8e4b]        # 0x14001c840
   1400139f5:	e8 53 d9 ff ff       	call   0x14001134d
   1400139fa:	85 c0                	test   eax,eax
   1400139fc:	75 0c                	jne    0x140013a0a
   1400139fe:	48 8b 44 24 50       	mov    rax,QWORD PTR [rsp+0x50]
   140013a03:	48 89 44 24 28       	mov    QWORD PTR [rsp+0x28],rax
   140013a08:	eb 09                	jmp    0x140013a13
   140013a0a:	48 c7 44 24 28 00 00 	mov    QWORD PTR [rsp+0x28],0x0
   140013a11:	00 00 
   140013a13:	48 8b 44 24 28       	mov    rax,QWORD PTR [rsp+0x28]
   140013a18:	48 83 c4 48          	add    rsp,0x48
   140013a1c:	c3                   	ret    
   140013a1d:	cc                   	int3   
   140013a1e:	cc                   	int3   
   140013a1f:	cc                   	int3   
   140013a20:	cc                   	int3   
   140013a21:	cc                   	int3   
   140013a22:	cc                   	int3   
   140013a23:	cc                   	int3   
   140013a24:	cc                   	int3   
   140013a25:	cc                   	int3   
   140013a26:	cc                   	int3   
   140013a27:	cc                   	int3   
   140013a28:	cc                   	int3   
   140013a29:	cc                   	int3   
   140013a2a:	cc                   	int3   
   140013a2b:	cc                   	int3   
   140013a2c:	cc                   	int3   
   140013a2d:	cc                   	int3   
   140013a2e:	cc                   	int3   
   140013a2f:	cc                   	int3   
   140013a30:	cc                   	int3   
   140013a31:	cc                   	int3   
   140013a32:	cc                   	int3   
   140013a33:	cc                   	int3   
   140013a34:	cc                   	int3   
   140013a35:	cc                   	int3   
   140013a36:	cc                   	int3   
   140013a37:	cc                   	int3   
   140013a38:	cc                   	int3   
   140013a39:	cc                   	int3   
   140013a3a:	cc                   	int3   
   140013a3b:	cc                   	int3   
   140013a3c:	cc                   	int3   
   140013a3d:	cc                   	int3   
   140013a3e:	cc                   	int3   
   140013a3f:	cc                   	int3   
   140013a40:	48 89 4c 24 08       	mov    QWORD PTR [rsp+0x8],rcx
   140013a45:	48 83 ec 38          	sub    rsp,0x38
   140013a49:	48 8b 05 08 8e 00 00 	mov    rax,QWORD PTR [rip+0x8e08]        # 0x14001c858
   140013a50:	48 89 44 24 20       	mov    QWORD PTR [rsp+0x20],rax
   140013a55:	48 83 7c 24 20 ff    	cmp    QWORD PTR [rsp+0x20],0xffffffffffffffff
   140013a5b:	75 0e                	jne    0x140013a6b
   140013a5d:	48 8b 4c 24 40       	mov    rcx,QWORD PTR [rsp+0x40]
   140013a62:	e8 da d5 ff ff       	call   0x140011041
   140013a67:	eb 1d                	jmp    0x140013a86
   140013a69:	eb 1b                	jmp    0x140013a86
   140013a6b:	48 8b 44 24 40       	mov    rax,QWORD PTR [rsp+0x40]
   140013a70:	48 89 44 24 28       	mov    QWORD PTR [rsp+0x28],rax
   140013a75:	48 8b 54 24 28       	mov    rdx,QWORD PTR [rsp+0x28]
   140013a7a:	48 8d 0d d7 8d 00 00 	lea    rcx,[rip+0x8dd7]        # 0x14001c858
   140013a81:	e8 c7 d8 ff ff       	call   0x14001134d
   140013a86:	48 83 c4 38          	add    rsp,0x38
   140013a8a:	c3                   	ret    
   140013a8b:	cc                   	int3   
   140013a8c:	cc                   	int3   
   140013a8d:	cc                   	int3   
   140013a8e:	cc                   	int3   
   140013a8f:	cc                   	int3   
   140013a90:	cc                   	int3   
   140013a91:	cc                   	int3   
   140013a92:	cc                   	int3   
   140013a93:	cc                   	int3   
   140013a94:	cc                   	int3   
   140013a95:	cc                   	int3   
   140013a96:	cc                   	int3   
   140013a97:	cc                   	int3   
   140013a98:	cc                   	int3   
   140013a99:	cc                   	int3   
   140013a9a:	cc                   	int3   
   140013a9b:	cc                   	int3   
   140013a9c:	cc                   	int3   
   140013a9d:	cc                   	int3   
   140013a9e:	cc                   	int3   
   140013a9f:	cc                   	int3   
   140013aa0:	48 89 4c 24 08       	mov    QWORD PTR [rsp+0x8],rcx
   140013aa5:	48 83 ec 38          	sub    rsp,0x38
   140013aa9:	48 8b 4c 24 40       	mov    rcx,QWORD PTR [rsp+0x40]
   140013aae:	e8 40 d8 ff ff       	call   0x1400112f3
   140013ab3:	48 85 c0             	test   rax,rax
   140013ab6:	74 0a                	je     0x140013ac2
   140013ab8:	c7 44 24 20 00 00 00 	mov    DWORD PTR [rsp+0x20],0x0
   140013abf:	00 
   140013ac0:	eb 08                	jmp    0x140013aca
   140013ac2:	c7 44 24 20 ff ff ff 	mov    DWORD PTR [rsp+0x20],0xffffffff
   140013ac9:	ff 
   140013aca:	8b 44 24 20          	mov    eax,DWORD PTR [rsp+0x20]
   140013ace:	48 83 c4 38          	add    rsp,0x38
   140013ad2:	c3                   	ret    
   140013ad3:	cc                   	int3   
   140013ad4:	cc                   	int3   
   140013ad5:	cc                   	int3   
   140013ad6:	cc                   	int3   
   140013ad7:	cc                   	int3   
   140013ad8:	cc                   	int3   
   140013ad9:	cc                   	int3   
   140013ada:	cc                   	int3   
   140013adb:	cc                   	int3   
   140013adc:	cc                   	int3   
   140013add:	cc                   	int3   
   140013ade:	cc                   	int3   
   140013adf:	cc                   	int3   
   140013ae0:	40 57                	rex push rdi
   140013ae2:	48 83 ec 40          	sub    rsp,0x40
   140013ae6:	48 8d 44 24 28       	lea    rax,[rsp+0x28]
   140013aeb:	48 8b f8             	mov    rdi,rax
   140013aee:	33 c0                	xor    eax,eax
   140013af0:	b9 08 00 00 00       	mov    ecx,0x8
   140013af5:	f3 aa                	rep stos BYTE PTR es:[rdi],al
   140013af7:	48 8d 4c 24 28       	lea    rcx,[rsp+0x28]
   140013afc:	ff 15 fe c4 00 00    	call   QWORD PTR [rip+0xc4fe]        # 0x140020000
   140013b02:	48 8b 44 24 28       	mov    rax,QWORD PTR [rsp+0x28]
   140013b07:	48 89 44 24 20       	mov    QWORD PTR [rsp+0x20],rax
   140013b0c:	ff 15 6e c5 00 00    	call   QWORD PTR [rip+0xc56e]        # 0x140020080
   140013b12:	8b c0                	mov    eax,eax
   140013b14:	48 8b 4c 24 20       	mov    rcx,QWORD PTR [rsp+0x20]
   140013b19:	48 33 c8             	xor    rcx,rax
   140013b1c:	48 8b c1             	mov    rax,rcx
   140013b1f:	48 89 44 24 20       	mov    QWORD PTR [rsp+0x20],rax
   140013b24:	ff 15 5e c5 00 00    	call   QWORD PTR [rip+0xc55e]        # 0x140020088
   140013b2a:	8b c0                	mov    eax,eax
   140013b2c:	48 8b 4c 24 20       	mov    rcx,QWORD PTR [rsp+0x20]
   140013b31:	48 33 c8             	xor    rcx,rax
   140013b34:	48 8b c1             	mov    rax,rcx
   140013b37:	48 89 44 24 20       	mov    QWORD PTR [rsp+0x20],rax
   140013b3c:	48 8d 4c 24 30       	lea    rcx,[rsp+0x30]
   140013b41:	ff 15 49 c5 00 00    	call   QWORD PTR [rip+0xc549]        # 0x140020090
   140013b47:	8b 44 24 30          	mov    eax,DWORD PTR [rsp+0x30]
   140013b4b:	48 c1 e0 20          	shl    rax,0x20
   140013b4f:	48 33 44 24 30       	xor    rax,QWORD PTR [rsp+0x30]
   140013b54:	48 8b 4c 24 20       	mov    rcx,QWORD PTR [rsp+0x20]
   140013b59:	48 33 c8             	xor    rcx,rax
   140013b5c:	48 8b c1             	mov    rax,rcx
   140013b5f:	48 89 44 24 20       	mov    QWORD PTR [rsp+0x20],rax
   140013b64:	48 8d 44 24 20       	lea    rax,[rsp+0x20]
   140013b69:	48 8b 4c 24 20       	mov    rcx,QWORD PTR [rsp+0x20]
   140013b6e:	48 33 c8             	xor    rcx,rax
   140013b71:	48 8b c1             	mov    rax,rcx
   140013b74:	48 89 44 24 20       	mov    QWORD PTR [rsp+0x20],rax
   140013b79:	48 b8 ff ff ff ff ff 	movabs rax,0xffffffffffff
   140013b80:	ff 00 00 
   140013b83:	48 8b 4c 24 20       	mov    rcx,QWORD PTR [rsp+0x20]
   140013b88:	48 23 c8             	and    rcx,rax
   140013b8b:	48 8b c1             	mov    rax,rcx
   140013b8e:	48 89 44 24 20       	mov    QWORD PTR [rsp+0x20],rax
   140013b93:	48 8b 44 24 20       	mov    rax,QWORD PTR [rsp+0x20]
   140013b98:	48 83 c4 40          	add    rsp,0x40
   140013b9c:	5f                   	pop    rdi
   140013b9d:	c3                   	ret    
   140013b9e:	cc                   	int3   
   140013b9f:	cc                   	int3   
   140013ba0:	cc                   	int3   
   140013ba1:	cc                   	int3   
   140013ba2:	cc                   	int3   
   140013ba3:	cc                   	int3   
   140013ba4:	cc                   	int3   
   140013ba5:	cc                   	int3   
   140013ba6:	cc                   	int3   
   140013ba7:	cc                   	int3   
   140013ba8:	cc                   	int3   
   140013ba9:	cc                   	int3   
   140013baa:	cc                   	int3   
   140013bab:	cc                   	int3   
   140013bac:	cc                   	int3   
   140013bad:	cc                   	int3   
   140013bae:	cc                   	int3   
   140013baf:	cc                   	int3   
   140013bb0:	cc                   	int3   
   140013bb1:	cc                   	int3   
   140013bb2:	cc                   	int3   
   140013bb3:	cc                   	int3   
   140013bb4:	cc                   	int3   
   140013bb5:	cc                   	int3   
   140013bb6:	cc                   	int3   
   140013bb7:	cc                   	int3   
   140013bb8:	cc                   	int3   
   140013bb9:	cc                   	int3   
   140013bba:	cc                   	int3   
   140013bbb:	cc                   	int3   
   140013bbc:	cc                   	int3   
   140013bbd:	cc                   	int3   
   140013bbe:	cc                   	int3   
   140013bbf:	cc                   	int3   
   140013bc0:	cc                   	int3   
   140013bc1:	cc                   	int3   
   140013bc2:	cc                   	int3   
   140013bc3:	cc                   	int3   
   140013bc4:	cc                   	int3   
   140013bc5:	cc                   	int3   
   140013bc6:	cc                   	int3   
   140013bc7:	cc                   	int3   
   140013bc8:	cc                   	int3   
   140013bc9:	cc                   	int3   
   140013bca:	cc                   	int3   
   140013bcb:	cc                   	int3   
   140013bcc:	cc                   	int3   
   140013bcd:	cc                   	int3   
   140013bce:	cc                   	int3   
   140013bcf:	cc                   	int3   
   140013bd0:	48 83 ec 38          	sub    rsp,0x38
   140013bd4:	48 b8 32 a2 df 2d 99 	movabs rax,0x2b992ddfa232
   140013bdb:	2b 00 00 
   140013bde:	48 39 05 23 84 00 00 	cmp    QWORD PTR [rip+0x8423],rax        # 0x14001c008
   140013be5:	74 13                	je     0x140013bfa
   140013be7:	48 8b 05 1a 84 00 00 	mov    rax,QWORD PTR [rip+0x841a]        # 0x14001c008
   140013bee:	48 f7 d0             	not    rax
   140013bf1:	48 89 05 08 84 00 00 	mov    QWORD PTR [rip+0x8408],rax        # 0x14001c000
   140013bf8:	eb 45                	jmp    0x140013c3f
   140013bfa:	e8 e1 fe ff ff       	call   0x140013ae0
   140013bff:	48 89 44 24 20       	mov    QWORD PTR [rsp+0x20],rax
   140013c04:	48 b8 32 a2 df 2d 99 	movabs rax,0x2b992ddfa232
   140013c0b:	2b 00 00 
   140013c0e:	48 39 44 24 20       	cmp    QWORD PTR [rsp+0x20],rax
   140013c13:	75 0f                	jne    0x140013c24
   140013c15:	48 b8 33 a2 df 2d 99 	movabs rax,0x2b992ddfa233
   140013c1c:	2b 00 00 
   140013c1f:	48 89 44 24 20       	mov    QWORD PTR [rsp+0x20],rax
   140013c24:	48 8b 44 24 20       	mov    rax,QWORD PTR [rsp+0x20]
   140013c29:	48 89 05 d8 83 00 00 	mov    QWORD PTR [rip+0x83d8],rax        # 0x14001c008
   140013c30:	48 8b 44 24 20       	mov    rax,QWORD PTR [rsp+0x20]
   140013c35:	48 f7 d0             	not    rax
   140013c38:	48 89 05 c1 83 00 00 	mov    QWORD PTR [rip+0x83c1],rax        # 0x14001c000
   140013c3f:	48 83 c4 38          	add    rsp,0x38
   140013c43:	c3                   	ret    
   140013c44:	cc                   	int3   
   140013c45:	cc                   	int3   
   140013c46:	cc                   	int3   
   140013c47:	cc                   	int3   
   140013c48:	cc                   	int3   
   140013c49:	cc                   	int3   
   140013c4a:	cc                   	int3   
   140013c4b:	cc                   	int3   
   140013c4c:	cc                   	int3   
   140013c4d:	cc                   	int3   
   140013c4e:	cc                   	int3   
   140013c4f:	cc                   	int3   
   140013c50:	cc                   	int3   
   140013c51:	cc                   	int3   
   140013c52:	cc                   	int3   
   140013c53:	cc                   	int3   
   140013c54:	cc                   	int3   
   140013c55:	cc                   	int3   
   140013c56:	cc                   	int3   
   140013c57:	cc                   	int3   
   140013c58:	cc                   	int3   
   140013c59:	cc                   	int3   
   140013c5a:	cc                   	int3   
   140013c5b:	cc                   	int3   
   140013c5c:	cc                   	int3   
   140013c5d:	cc                   	int3   
   140013c5e:	cc                   	int3   
   140013c5f:	cc                   	int3   
   140013c60:	cc                   	int3   
   140013c61:	cc                   	int3   
   140013c62:	cc                   	int3   
   140013c63:	cc                   	int3   
   140013c64:	cc                   	int3   
   140013c65:	cc                   	int3   
   140013c66:	cc                   	int3   
   140013c67:	cc                   	int3   
   140013c68:	cc                   	int3   
   140013c69:	cc                   	int3   
   140013c6a:	cc                   	int3   
   140013c6b:	cc                   	int3   
   140013c6c:	cc                   	int3   
   140013c6d:	cc                   	int3   
   140013c6e:	cc                   	int3   
   140013c6f:	cc                   	int3   
   140013c70:	48 89 4c 24 08       	mov    QWORD PTR [rsp+0x8],rcx
   140013c75:	33 c0                	xor    eax,eax
   140013c77:	c3                   	ret    
   140013c78:	cc                   	int3   
   140013c79:	cc                   	int3   
   140013c7a:	cc                   	int3   
   140013c7b:	cc                   	int3   
   140013c7c:	cc                   	int3   
   140013c7d:	cc                   	int3   
   140013c7e:	cc                   	int3   
   140013c7f:	cc                   	int3   
   140013c80:	b8 01 00 00 00       	mov    eax,0x1
   140013c85:	c3                   	ret    
   140013c86:	cc                   	int3   
   140013c87:	cc                   	int3   
   140013c88:	cc                   	int3   
   140013c89:	cc                   	int3   
   140013c8a:	cc                   	int3   
   140013c8b:	cc                   	int3   
   140013c8c:	cc                   	int3   
   140013c8d:	cc                   	int3   
   140013c8e:	cc                   	int3   
   140013c8f:	cc                   	int3   
   140013c90:	33 c0                	xor    eax,eax
   140013c92:	c3                   	ret    
   140013c93:	cc                   	int3   
   140013c94:	cc                   	int3   
   140013c95:	cc                   	int3   
   140013c96:	cc                   	int3   
   140013c97:	cc                   	int3   
   140013c98:	cc                   	int3   
   140013c99:	cc                   	int3   
   140013c9a:	cc                   	int3   
   140013c9b:	cc                   	int3   
   140013c9c:	cc                   	int3   
   140013c9d:	cc                   	int3   
   140013c9e:	cc                   	int3   
   140013c9f:	cc                   	int3   
   140013ca0:	b8 00 40 00 00       	mov    eax,0x4000
   140013ca5:	c3                   	ret    
   140013ca6:	cc                   	int3   
   140013ca7:	cc                   	int3   
   140013ca8:	cc                   	int3   
   140013ca9:	cc                   	int3   
   140013caa:	cc                   	int3   
   140013cab:	cc                   	int3   
   140013cac:	cc                   	int3   
   140013cad:	cc                   	int3   
   140013cae:	cc                   	int3   
   140013caf:	cc                   	int3   
   140013cb0:	33 c0                	xor    eax,eax
   140013cb2:	c3                   	ret    
   140013cb3:	cc                   	int3   
   140013cb4:	cc                   	int3   
   140013cb5:	cc                   	int3   
   140013cb6:	cc                   	int3   
   140013cb7:	cc                   	int3   
   140013cb8:	cc                   	int3   
   140013cb9:	cc                   	int3   
   140013cba:	cc                   	int3   
   140013cbb:	cc                   	int3   
   140013cbc:	cc                   	int3   
   140013cbd:	cc                   	int3   
   140013cbe:	cc                   	int3   
   140013cbf:	cc                   	int3   
   140013cc0:	33 c0                	xor    eax,eax
   140013cc2:	c3                   	ret    
   140013cc3:	cc                   	int3   
   140013cc4:	cc                   	int3   
   140013cc5:	cc                   	int3   
   140013cc6:	cc                   	int3   
   140013cc7:	cc                   	int3   
   140013cc8:	cc                   	int3   
   140013cc9:	cc                   	int3   
   140013cca:	cc                   	int3   
   140013ccb:	cc                   	int3   
   140013ccc:	cc                   	int3   
   140013ccd:	cc                   	int3   
   140013cce:	cc                   	int3   
   140013ccf:	cc                   	int3   
   140013cd0:	48 83 ec 28          	sub    rsp,0x28
   140013cd4:	48 8d 0d a5 8b 00 00 	lea    rcx,[rip+0x8ba5]        # 0x14001c880
   140013cdb:	ff 15 97 c3 00 00    	call   QWORD PTR [rip+0xc397]        # 0x140020078
   140013ce1:	48 83 c4 28          	add    rsp,0x28
   140013ce5:	c3                   	ret    
   140013ce6:	cc                   	int3   
   140013ce7:	cc                   	int3   
   140013ce8:	cc                   	int3   
   140013ce9:	cc                   	int3   
   140013cea:	cc                   	int3   
   140013ceb:	cc                   	int3   
   140013cec:	cc                   	int3   
   140013ced:	cc                   	int3   
   140013cee:	cc                   	int3   
   140013cef:	cc                   	int3   
   140013cf0:	48 83 ec 28          	sub    rsp,0x28
   140013cf4:	48 8d 0d 85 8b 00 00 	lea    rcx,[rip+0x8b85]        # 0x14001c880
   140013cfb:	e8 19 d3 ff ff       	call   0x140011019
   140013d00:	48 83 c4 28          	add    rsp,0x28
   140013d04:	c3                   	ret    
   140013d05:	cc                   	int3   
   140013d06:	cc                   	int3   
   140013d07:	cc                   	int3   
   140013d08:	cc                   	int3   
   140013d09:	cc                   	int3   
   140013d0a:	cc                   	int3   
   140013d0b:	cc                   	int3   
   140013d0c:	cc                   	int3   
   140013d0d:	cc                   	int3   
   140013d0e:	cc                   	int3   
   140013d0f:	cc                   	int3   
   140013d10:	b0 01                	mov    al,0x1
   140013d12:	c3                   	ret    
   140013d13:	cc                   	int3   
   140013d14:	cc                   	int3   
   140013d15:	cc                   	int3   
   140013d16:	cc                   	int3   
   140013d17:	cc                   	int3   
   140013d18:	cc                   	int3   
   140013d19:	cc                   	int3   
   140013d1a:	cc                   	int3   
   140013d1b:	cc                   	int3   
   140013d1c:	cc                   	int3   
   140013d1d:	cc                   	int3   
   140013d1e:	cc                   	int3   
   140013d1f:	cc                   	int3   
   140013d20:	c2 00 00             	ret    0x0
   140013d23:	cc                   	int3   
   140013d24:	cc                   	int3   
   140013d25:	cc                   	int3   
   140013d26:	cc                   	int3   
   140013d27:	cc                   	int3   
   140013d28:	cc                   	int3   
   140013d29:	cc                   	int3   
   140013d2a:	cc                   	int3   
   140013d2b:	cc                   	int3   
   140013d2c:	cc                   	int3   
   140013d2d:	cc                   	int3   
   140013d2e:	cc                   	int3   
   140013d2f:	cc                   	int3   
   140013d30:	c2 00 00             	ret    0x0
   140013d33:	cc                   	int3   
   140013d34:	cc                   	int3   
   140013d35:	cc                   	int3   
   140013d36:	cc                   	int3   
   140013d37:	cc                   	int3   
   140013d38:	cc                   	int3   
   140013d39:	cc                   	int3   
   140013d3a:	cc                   	int3   
   140013d3b:	cc                   	int3   
   140013d3c:	cc                   	int3   
   140013d3d:	cc                   	int3   
   140013d3e:	cc                   	int3   
   140013d3f:	cc                   	int3   
   140013d40:	48 8d 05 51 8b 00 00 	lea    rax,[rip+0x8b51]        # 0x14001c898
   140013d47:	c3                   	ret    
   140013d48:	cc                   	int3   
   140013d49:	cc                   	int3   
   140013d4a:	cc                   	int3   
   140013d4b:	cc                   	int3   
   140013d4c:	cc                   	int3   
   140013d4d:	cc                   	int3   
   140013d4e:	cc                   	int3   
   140013d4f:	cc                   	int3   
   140013d50:	48 83 ec 38          	sub    rsp,0x38
   140013d54:	e8 b8 d5 ff ff       	call   0x140011311
   140013d59:	48 89 44 24 20       	mov    QWORD PTR [rsp+0x20],rax
   140013d5e:	48 8b 44 24 20       	mov    rax,QWORD PTR [rsp+0x20]
   140013d63:	48 8b 00             	mov    rax,QWORD PTR [rax]
   140013d66:	48 83 c8 24          	or     rax,0x24
   140013d6a:	48 8b 4c 24 20       	mov    rcx,QWORD PTR [rsp+0x20]
   140013d6f:	48 89 01             	mov    QWORD PTR [rcx],rax
   140013d72:	e8 6a d3 ff ff       	call   0x1400110e1
   140013d77:	48 89 44 24 28       	mov    QWORD PTR [rsp+0x28],rax
   140013d7c:	48 8b 44 24 28       	mov    rax,QWORD PTR [rsp+0x28]
   140013d81:	48 8b 00             	mov    rax,QWORD PTR [rax]
   140013d84:	48 83 c8 02          	or     rax,0x2
   140013d88:	48 8b 4c 24 28       	mov    rcx,QWORD PTR [rsp+0x28]
   140013d8d:	48 89 01             	mov    QWORD PTR [rcx],rax
   140013d90:	48 83 c4 38          	add    rsp,0x38
   140013d94:	c3                   	ret    
   140013d95:	cc                   	int3   
   140013d96:	cc                   	int3   
   140013d97:	cc                   	int3   
   140013d98:	cc                   	int3   
   140013d99:	cc                   	int3   
   140013d9a:	cc                   	int3   
   140013d9b:	cc                   	int3   
   140013d9c:	cc                   	int3   
   140013d9d:	cc                   	int3   
   140013d9e:	cc                   	int3   
   140013d9f:	cc                   	int3   
   140013da0:	cc                   	int3   
   140013da1:	cc                   	int3   
   140013da2:	cc                   	int3   
   140013da3:	cc                   	int3   
   140013da4:	cc                   	int3   
   140013da5:	cc                   	int3   
   140013da6:	cc                   	int3   
   140013da7:	cc                   	int3   
   140013da8:	cc                   	int3   
   140013da9:	cc                   	int3   
   140013daa:	cc                   	int3   
   140013dab:	cc                   	int3   
   140013dac:	cc                   	int3   
   140013dad:	cc                   	int3   
   140013dae:	cc                   	int3   
   140013daf:	cc                   	int3   
   140013db0:	48 83 ec 18          	sub    rsp,0x18
   140013db4:	83 3d 79 82 00 00 00 	cmp    DWORD PTR [rip+0x8279],0x0        # 0x14001c034
   140013dbb:	75 09                	jne    0x140013dc6
   140013dbd:	c7 04 24 01 00 00 00 	mov    DWORD PTR [rsp],0x1
   140013dc4:	eb 07                	jmp    0x140013dcd
   140013dc6:	c7 04 24 00 00 00 00 	mov    DWORD PTR [rsp],0x0
   140013dcd:	8b 04 24             	mov    eax,DWORD PTR [rsp]
   140013dd0:	48 83 c4 18          	add    rsp,0x18
   140013dd4:	c3                   	ret    
   140013dd5:	cc                   	int3   
   140013dd6:	cc                   	int3   
   140013dd7:	cc                   	int3   
   140013dd8:	cc                   	int3   
   140013dd9:	cc                   	int3   
   140013dda:	cc                   	int3   
   140013ddb:	cc                   	int3   
   140013ddc:	cc                   	int3   
   140013ddd:	cc                   	int3   
   140013dde:	cc                   	int3   
   140013ddf:	cc                   	int3   
   140013de0:	48 8d 05 01 8b 00 00 	lea    rax,[rip+0x8b01]        # 0x14001c8e8
   140013de7:	c3                   	ret    
   140013de8:	cc                   	int3   
   140013de9:	cc                   	int3   
   140013dea:	cc                   	int3   
   140013deb:	cc                   	int3   
   140013dec:	cc                   	int3   
   140013ded:	cc                   	int3   
   140013dee:	cc                   	int3   
   140013def:	cc                   	int3   
   140013df0:	48 8d 05 d9 8a 00 00 	lea    rax,[rip+0x8ad9]        # 0x14001c8d0
   140013df7:	c3                   	ret    
   140013df8:	cc                   	int3   
   140013df9:	cc                   	int3   
   140013dfa:	cc                   	int3   
   140013dfb:	cc                   	int3   
   140013dfc:	cc                   	int3   
   140013dfd:	cc                   	int3   
   140013dfe:	cc                   	int3   
   140013dff:	cc                   	int3   
   140013e00:	89 4c 24 08          	mov    DWORD PTR [rsp+0x8],ecx
   140013e04:	c7 05 96 8a 00 00 00 	mov    DWORD PTR [rip+0x8a96],0x0        # 0x14001c8a4
   140013e0b:	00 00 00 
   140013e0e:	c3                   	ret    
   140013e0f:	cc                   	int3   
   140013e10:	cc                   	int3   
   140013e11:	cc                   	int3   
   140013e12:	cc                   	int3   
   140013e13:	cc                   	int3   
   140013e14:	cc                   	int3   
   140013e15:	cc                   	int3   
   140013e16:	cc                   	int3   
   140013e17:	cc                   	int3   
   140013e18:	cc                   	int3   
   140013e19:	cc                   	int3   
   140013e1a:	cc                   	int3   
   140013e1b:	cc                   	int3   
   140013e1c:	cc                   	int3   
   140013e1d:	cc                   	int3   
   140013e1e:	cc                   	int3   
   140013e1f:	cc                   	int3   
   140013e20:	89 4c 24 08          	mov    DWORD PTR [rsp+0x8],ecx
   140013e24:	57                   	push   rdi
   140013e25:	48 81 ec f0 05 00 00 	sub    rsp,0x5f0
   140013e2c:	b9 17 00 00 00       	mov    ecx,0x17
   140013e31:	e8 28 d3 ff ff       	call   0x14001115e
   140013e36:	85 c0                	test   eax,eax
   140013e38:	74 0b                	je     0x140013e45
   140013e3a:	8b 84 24 00 06 00 00 	mov    eax,DWORD PTR [rsp+0x600]
   140013e41:	8b c8                	mov    ecx,eax
   140013e43:	cd 29                	int    0x29
   140013e45:	b9 03 00 00 00       	mov    ecx,0x3
   140013e4a:	e8 dd d2 ff ff       	call   0x14001112c
   140013e4f:	48 8d 84 24 20 01 00 	lea    rax,[rsp+0x120]
   140013e56:	00 
   140013e57:	48 8b f8             	mov    rdi,rax
   140013e5a:	33 c0                	xor    eax,eax
   140013e5c:	b9 d0 04 00 00       	mov    ecx,0x4d0
   140013e61:	f3 aa                	rep stos BYTE PTR es:[rdi],al
   140013e63:	48 8d 8c 24 20 01 00 	lea    rcx,[rsp+0x120]
   140013e6a:	00 
   140013e6b:	ff 15 b7 c1 00 00    	call   QWORD PTR [rip+0xc1b7]        # 0x140020028
   140013e71:	48 8b 84 24 18 02 00 	mov    rax,QWORD PTR [rsp+0x218]
   140013e78:	00 
   140013e79:	48 89 44 24 50       	mov    QWORD PTR [rsp+0x50],rax
   140013e7e:	45 33 c0             	xor    r8d,r8d
   140013e81:	48 8d 54 24 58       	lea    rdx,[rsp+0x58]
   140013e86:	48 8b 4c 24 50       	mov    rcx,QWORD PTR [rsp+0x50]
   140013e8b:	ff 15 37 c2 00 00    	call   QWORD PTR [rip+0xc237]        # 0x1400200c8
   140013e91:	48 89 44 24 48       	mov    QWORD PTR [rsp+0x48],rax
   140013e96:	48 83 7c 24 48 00    	cmp    QWORD PTR [rsp+0x48],0x0
   140013e9c:	74 41                	je     0x140013edf
   140013e9e:	48 c7 44 24 38 00 00 	mov    QWORD PTR [rsp+0x38],0x0
   140013ea5:	00 00 
   140013ea7:	48 8d 44 24 70       	lea    rax,[rsp+0x70]
   140013eac:	48 89 44 24 30       	mov    QWORD PTR [rsp+0x30],rax
   140013eb1:	48 8d 44 24 78       	lea    rax,[rsp+0x78]
   140013eb6:	48 89 44 24 28       	mov    QWORD PTR [rsp+0x28],rax
   140013ebb:	48 8d 84 24 20 01 00 	lea    rax,[rsp+0x120]
   140013ec2:	00 
   140013ec3:	48 89 44 24 20       	mov    QWORD PTR [rsp+0x20],rax
   140013ec8:	4c 8b 4c 24 48       	mov    r9,QWORD PTR [rsp+0x48]
   140013ecd:	4c 8b 44 24 50       	mov    r8,QWORD PTR [rsp+0x50]
   140013ed2:	48 8b 54 24 58       	mov    rdx,QWORD PTR [rsp+0x58]
   140013ed7:	33 c9                	xor    ecx,ecx
   140013ed9:	ff 15 e1 c1 00 00    	call   QWORD PTR [rip+0xc1e1]        # 0x1400200c0
   140013edf:	48 8b 84 24 f8 05 00 	mov    rax,QWORD PTR [rsp+0x5f8]
   140013ee6:	00 
   140013ee7:	48 89 84 24 18 02 00 	mov    QWORD PTR [rsp+0x218],rax
   140013eee:	00 
   140013eef:	48 8d 84 24 f8 05 00 	lea    rax,[rsp+0x5f8]
   140013ef6:	00 
   140013ef7:	48 83 c0 08          	add    rax,0x8
   140013efb:	48 89 84 24 b8 01 00 	mov    QWORD PTR [rsp+0x1b8],rax
   140013f02:	00 
   140013f03:	48 8d 84 24 80 00 00 	lea    rax,[rsp+0x80]
   140013f0a:	00 
   140013f0b:	48 8b f8             	mov    rdi,rax
   140013f0e:	33 c0                	xor    eax,eax
   140013f10:	b9 98 00 00 00       	mov    ecx,0x98
   140013f15:	f3 aa                	rep stos BYTE PTR es:[rdi],al
   140013f17:	c7 84 24 80 00 00 00 	mov    DWORD PTR [rsp+0x80],0x40000015
   140013f1e:	15 00 00 40 
   140013f22:	c7 84 24 84 00 00 00 	mov    DWORD PTR [rsp+0x84],0x1
   140013f29:	01 00 00 00 
   140013f2d:	48 8b 84 24 f8 05 00 	mov    rax,QWORD PTR [rsp+0x5f8]
   140013f34:	00 
   140013f35:	48 89 84 24 90 00 00 	mov    QWORD PTR [rsp+0x90],rax
   140013f3c:	00 
   140013f3d:	ff 15 c5 c0 00 00    	call   QWORD PTR [rip+0xc0c5]        # 0x140020008
   140013f43:	83 f8 01             	cmp    eax,0x1
   140013f46:	75 07                	jne    0x140013f4f
   140013f48:	c6 44 24 40 01       	mov    BYTE PTR [rsp+0x40],0x1
   140013f4d:	eb 05                	jmp    0x140013f54
   140013f4f:	c6 44 24 40 00       	mov    BYTE PTR [rsp+0x40],0x0
   140013f54:	0f b6 44 24 40       	movzx  eax,BYTE PTR [rsp+0x40]
   140013f59:	88 44 24 41          	mov    BYTE PTR [rsp+0x41],al
   140013f5d:	48 8d 84 24 80 00 00 	lea    rax,[rsp+0x80]
   140013f64:	00 
   140013f65:	48 89 44 24 60       	mov    QWORD PTR [rsp+0x60],rax
   140013f6a:	48 8d 84 24 20 01 00 	lea    rax,[rsp+0x120]
   140013f71:	00 
   140013f72:	48 89 44 24 68       	mov    QWORD PTR [rsp+0x68],rax
   140013f77:	33 c9                	xor    ecx,ecx
   140013f79:	ff 15 31 c1 00 00    	call   QWORD PTR [rip+0xc131]        # 0x1400200b0
   140013f7f:	48 8d 4c 24 60       	lea    rcx,[rsp+0x60]
   140013f84:	ff 15 2e c1 00 00    	call   QWORD PTR [rip+0xc12e]        # 0x1400200b8
   140013f8a:	89 44 24 44          	mov    DWORD PTR [rsp+0x44],eax
   140013f8e:	83 7c 24 44 00       	cmp    DWORD PTR [rsp+0x44],0x0
   140013f93:	75 13                	jne    0x140013fa8
   140013f95:	0f b6 44 24 41       	movzx  eax,BYTE PTR [rsp+0x41]
   140013f9a:	85 c0                	test   eax,eax
   140013f9c:	75 0a                	jne    0x140013fa8
   140013f9e:	b9 03 00 00 00       	mov    ecx,0x3
   140013fa3:	e8 84 d1 ff ff       	call   0x14001112c
   140013fa8:	48 81 c4 f0 05 00 00 	add    rsp,0x5f0
   140013faf:	5f                   	pop    rdi
   140013fb0:	c3                   	ret    
   140013fb1:	cc                   	int3   
   140013fb2:	cc                   	int3   
   140013fb3:	cc                   	int3   
   140013fb4:	cc                   	int3   
   140013fb5:	cc                   	int3   
   140013fb6:	cc                   	int3   
   140013fb7:	cc                   	int3   
   140013fb8:	cc                   	int3   
   140013fb9:	cc                   	int3   
   140013fba:	cc                   	int3   
   140013fbb:	cc                   	int3   
   140013fbc:	cc                   	int3   
   140013fbd:	cc                   	int3   
   140013fbe:	cc                   	int3   
   140013fbf:	cc                   	int3   
   140013fc0:	cc                   	int3   
   140013fc1:	cc                   	int3   
   140013fc2:	cc                   	int3   
   140013fc3:	cc                   	int3   
   140013fc4:	cc                   	int3   
   140013fc5:	cc                   	int3   
   140013fc6:	cc                   	int3   
   140013fc7:	cc                   	int3   
   140013fc8:	cc                   	int3   
   140013fc9:	cc                   	int3   
   140013fca:	cc                   	int3   
   140013fcb:	cc                   	int3   
   140013fcc:	cc                   	int3   
   140013fcd:	cc                   	int3   
   140013fce:	cc                   	int3   
   140013fcf:	cc                   	int3   
   140013fd0:	cc                   	int3   
   140013fd1:	cc                   	int3   
   140013fd2:	cc                   	int3   
   140013fd3:	cc                   	int3   
   140013fd4:	cc                   	int3   
   140013fd5:	cc                   	int3   
   140013fd6:	cc                   	int3   
   140013fd7:	cc                   	int3   
   140013fd8:	cc                   	int3   
   140013fd9:	cc                   	int3   
   140013fda:	cc                   	int3   
   140013fdb:	cc                   	int3   
   140013fdc:	cc                   	int3   
   140013fdd:	cc                   	int3   
   140013fde:	cc                   	int3   
   140013fdf:	cc                   	int3   
   140013fe0:	cc                   	int3   
   140013fe1:	cc                   	int3   
   140013fe2:	cc                   	int3   
   140013fe3:	cc                   	int3   
   140013fe4:	cc                   	int3   
   140013fe5:	cc                   	int3   
   140013fe6:	cc                   	int3   
   140013fe7:	cc                   	int3   
   140013fe8:	cc                   	int3   
   140013fe9:	cc                   	int3   
   140013fea:	cc                   	int3   
   140013feb:	cc                   	int3   
   140013fec:	cc                   	int3   
   140013fed:	cc                   	int3   
   140013fee:	cc                   	int3   
   140013fef:	cc                   	int3   
   140013ff0:	cc                   	int3   
   140013ff1:	cc                   	int3   
   140013ff2:	cc                   	int3   
   140013ff3:	cc                   	int3   
   140013ff4:	cc                   	int3   
   140013ff5:	cc                   	int3   
   140013ff6:	cc                   	int3   
   140013ff7:	cc                   	int3   
   140013ff8:	cc                   	int3   
   140013ff9:	cc                   	int3   
   140013ffa:	cc                   	int3   
   140013ffb:	cc                   	int3   
   140013ffc:	cc                   	int3   
   140013ffd:	cc                   	int3   
   140013ffe:	cc                   	int3   
   140013fff:	cc                   	int3   
   140014000:	cc                   	int3   
   140014001:	cc                   	int3   
   140014002:	cc                   	int3   
   140014003:	cc                   	int3   
   140014004:	cc                   	int3   
   140014005:	cc                   	int3   
   140014006:	cc                   	int3   
   140014007:	cc                   	int3   
   140014008:	cc                   	int3   
   140014009:	cc                   	int3   
   14001400a:	cc                   	int3   
   14001400b:	cc                   	int3   
   14001400c:	cc                   	int3   
   14001400d:	cc                   	int3   
   14001400e:	cc                   	int3   
   14001400f:	cc                   	int3   
   140014010:	cc                   	int3   
   140014011:	cc                   	int3   
   140014012:	cc                   	int3   
   140014013:	cc                   	int3   
   140014014:	cc                   	int3   
   140014015:	cc                   	int3   
   140014016:	cc                   	int3   
   140014017:	cc                   	int3   
   140014018:	cc                   	int3   
   140014019:	cc                   	int3   
   14001401a:	cc                   	int3   
   14001401b:	cc                   	int3   
   14001401c:	cc                   	int3   
   14001401d:	cc                   	int3   
   14001401e:	cc                   	int3   
   14001401f:	cc                   	int3   
   140014020:	40 57                	rex push rdi
   140014022:	48 81 ec a0 00 00 00 	sub    rsp,0xa0
   140014029:	48 8d 44 24 30       	lea    rax,[rsp+0x30]
   14001402e:	48 8b f8             	mov    rdi,rax
   140014031:	33 c0                	xor    eax,eax
   140014033:	b9 68 00 00 00       	mov    ecx,0x68
   140014038:	f3 aa                	rep stos BYTE PTR es:[rdi],al
   14001403a:	48 8d 4c 24 30       	lea    rcx,[rsp+0x30]
   14001403f:	ff 15 2b c0 00 00    	call   QWORD PTR [rip+0xc02b]        # 0x140020070
   140014045:	8b 44 24 6c          	mov    eax,DWORD PTR [rsp+0x6c]
   140014049:	83 e0 01             	and    eax,0x1
   14001404c:	85 c0                	test   eax,eax
   14001404e:	74 0b                	je     0x14001405b
   140014050:	0f b7 44 24 70       	movzx  eax,WORD PTR [rsp+0x70]
   140014055:	89 44 24 20          	mov    DWORD PTR [rsp+0x20],eax
   140014059:	eb 08                	jmp    0x140014063
   14001405b:	c7 44 24 20 0a 00 00 	mov    DWORD PTR [rsp+0x20],0xa
   140014062:	00 
   140014063:	0f b7 44 24 20       	movzx  eax,WORD PTR [rsp+0x20]
   140014068:	48 81 c4 a0 00 00 00 	add    rsp,0xa0
   14001406f:	5f                   	pop    rdi
   140014070:	c3                   	ret    
   140014071:	cc                   	int3   
   140014072:	cc                   	int3   
   140014073:	cc                   	int3   
   140014074:	cc                   	int3   
   140014075:	cc                   	int3   
   140014076:	cc                   	int3   
   140014077:	cc                   	int3   
   140014078:	cc                   	int3   
   140014079:	cc                   	int3   
   14001407a:	cc                   	int3   
   14001407b:	cc                   	int3   
   14001407c:	cc                   	int3   
   14001407d:	cc                   	int3   
   14001407e:	cc                   	int3   
   14001407f:	cc                   	int3   
   140014080:	cc                   	int3   
   140014081:	cc                   	int3   
   140014082:	cc                   	int3   
   140014083:	cc                   	int3   
   140014084:	cc                   	int3   
   140014085:	cc                   	int3   
   140014086:	cc                   	int3   
   140014087:	cc                   	int3   
   140014088:	cc                   	int3   
   140014089:	cc                   	int3   
   14001408a:	cc                   	int3   
   14001408b:	cc                   	int3   
   14001408c:	cc                   	int3   
   14001408d:	cc                   	int3   
   14001408e:	cc                   	int3   
   14001408f:	cc                   	int3   
   140014090:	48 83 ec 28          	sub    rsp,0x28
   140014094:	e8 7e d1 ff ff       	call   0x140011217
   140014099:	48 83 c4 28          	add    rsp,0x28
   14001409d:	c3                   	ret    
   14001409e:	cc                   	int3   
   14001409f:	cc                   	int3   
   1400140a0:	cc                   	int3   
   1400140a1:	cc                   	int3   
   1400140a2:	cc                   	int3   
   1400140a3:	cc                   	int3   
   1400140a4:	cc                   	int3   
   1400140a5:	cc                   	int3   
   1400140a6:	cc                   	int3   
   1400140a7:	cc                   	int3   
   1400140a8:	cc                   	int3   
   1400140a9:	cc                   	int3   
   1400140aa:	cc                   	int3   
   1400140ab:	cc                   	int3   
   1400140ac:	cc                   	int3   
   1400140ad:	cc                   	int3   
   1400140ae:	cc                   	int3   
   1400140af:	cc                   	int3   
   1400140b0:	33 c0                	xor    eax,eax
   1400140b2:	c3                   	ret    
   1400140b3:	cc                   	int3   
   1400140b4:	cc                   	int3   
   1400140b5:	cc                   	int3   
   1400140b6:	cc                   	int3   
   1400140b7:	cc                   	int3   
   1400140b8:	cc                   	int3   
   1400140b9:	cc                   	int3   
   1400140ba:	cc                   	int3   
   1400140bb:	cc                   	int3   
   1400140bc:	cc                   	int3   
   1400140bd:	cc                   	int3   
   1400140be:	cc                   	int3   
   1400140bf:	cc                   	int3   
   1400140c0:	48 83 ec 38          	sub    rsp,0x38
   1400140c4:	33 c9                	xor    ecx,ecx
   1400140c6:	ff 15 9c bf 00 00    	call   QWORD PTR [rip+0xbf9c]        # 0x140020068
   1400140cc:	48 89 44 24 20       	mov    QWORD PTR [rsp+0x20],rax
   1400140d1:	48 83 7c 24 20 00    	cmp    QWORD PTR [rsp+0x20],0x0
   1400140d7:	75 07                	jne    0x1400140e0
   1400140d9:	32 c0                	xor    al,al
   1400140db:	e9 81 00 00 00       	jmp    0x140014161
   1400140e0:	48 8b 44 24 20       	mov    rax,QWORD PTR [rsp+0x20]
   1400140e5:	0f b7 00             	movzx  eax,WORD PTR [rax]
   1400140e8:	3d 4d 5a 00 00       	cmp    eax,0x5a4d
   1400140ed:	74 04                	je     0x1400140f3
   1400140ef:	32 c0                	xor    al,al
   1400140f1:	eb 6e                	jmp    0x140014161
   1400140f3:	48 8b 44 24 20       	mov    rax,QWORD PTR [rsp+0x20]
   1400140f8:	48 63 40 3c          	movsxd rax,DWORD PTR [rax+0x3c]
   1400140fc:	48 8b 4c 24 20       	mov    rcx,QWORD PTR [rsp+0x20]
   140014101:	48 03 c8             	add    rcx,rax
   140014104:	48 8b c1             	mov    rax,rcx
   140014107:	48 89 44 24 28       	mov    QWORD PTR [rsp+0x28],rax
   14001410c:	48 8b 44 24 28       	mov    rax,QWORD PTR [rsp+0x28]
   140014111:	81 38 50 45 00 00    	cmp    DWORD PTR [rax],0x4550
   140014117:	74 04                	je     0x14001411d
   140014119:	32 c0                	xor    al,al
   14001411b:	eb 44                	jmp    0x140014161
   14001411d:	48 8b 44 24 28       	mov    rax,QWORD PTR [rsp+0x28]
   140014122:	0f b7 40 18          	movzx  eax,WORD PTR [rax+0x18]
   140014126:	3d 0b 02 00 00       	cmp    eax,0x20b
   14001412b:	74 04                	je     0x140014131
   14001412d:	32 c0                	xor    al,al
   14001412f:	eb 30                	jmp    0x140014161
   140014131:	48 8b 44 24 28       	mov    rax,QWORD PTR [rsp+0x28]
   140014136:	83 b8 84 00 00 00 0e 	cmp    DWORD PTR [rax+0x84],0xe
   14001413d:	77 04                	ja     0x140014143
   14001413f:	32 c0                	xor    al,al
   140014141:	eb 1e                	jmp    0x140014161
   140014143:	b8 08 00 00 00       	mov    eax,0x8
   140014148:	48 6b c0 0e          	imul   rax,rax,0xe
   14001414c:	48 8b 4c 24 28       	mov    rcx,QWORD PTR [rsp+0x28]
   140014151:	83 bc 01 88 00 00 00 	cmp    DWORD PTR [rcx+rax*1+0x88],0x0
   140014158:	00 
   140014159:	75 04                	jne    0x14001415f
   14001415b:	32 c0                	xor    al,al
   14001415d:	eb 02                	jmp    0x140014161
   14001415f:	b0 01                	mov    al,0x1
   140014161:	48 83 c4 38          	add    rsp,0x38
   140014165:	c3                   	ret    
   140014166:	cc                   	int3   
   140014167:	cc                   	int3   
   140014168:	cc                   	int3   
   140014169:	cc                   	int3   
   14001416a:	cc                   	int3   
   14001416b:	cc                   	int3   
   14001416c:	cc                   	int3   
   14001416d:	cc                   	int3   
   14001416e:	cc                   	int3   
   14001416f:	cc                   	int3   
   140014170:	cc                   	int3   
   140014171:	cc                   	int3   
   140014172:	cc                   	int3   
   140014173:	cc                   	int3   
   140014174:	cc                   	int3   
   140014175:	cc                   	int3   
   140014176:	cc                   	int3   
   140014177:	cc                   	int3   
   140014178:	cc                   	int3   
   140014179:	cc                   	int3   
   14001417a:	cc                   	int3   
   14001417b:	cc                   	int3   
   14001417c:	cc                   	int3   
   14001417d:	cc                   	int3   
   14001417e:	cc                   	int3   
   14001417f:	cc                   	int3   
   140014180:	cc                   	int3   
   140014181:	cc                   	int3   
   140014182:	cc                   	int3   
   140014183:	cc                   	int3   
   140014184:	cc                   	int3   
   140014185:	cc                   	int3   
   140014186:	cc                   	int3   
   140014187:	cc                   	int3   
   140014188:	cc                   	int3   
   140014189:	cc                   	int3   
   14001418a:	cc                   	int3   
   14001418b:	cc                   	int3   
   14001418c:	cc                   	int3   
   14001418d:	cc                   	int3   
   14001418e:	cc                   	int3   
   14001418f:	cc                   	int3   
   140014190:	48 83 ec 28          	sub    rsp,0x28
   140014194:	48 8d 0d c7 d0 ff ff 	lea    rcx,[rip+0xffffffffffffd0c7]        # 0x140011262
   14001419b:	ff 15 0f bf 00 00    	call   QWORD PTR [rip+0xbf0f]        # 0x1400200b0
   1400141a1:	48 83 c4 28          	add    rsp,0x28
   1400141a5:	c3                   	ret    
   1400141a6:	cc                   	int3   
   1400141a7:	cc                   	int3   
   1400141a8:	cc                   	int3   
   1400141a9:	cc                   	int3   
   1400141aa:	cc                   	int3   
   1400141ab:	cc                   	int3   
   1400141ac:	cc                   	int3   
   1400141ad:	cc                   	int3   
   1400141ae:	cc                   	int3   
   1400141af:	cc                   	int3   
   1400141b0:	33 c0                	xor    eax,eax
   1400141b2:	c3                   	ret    
   1400141b3:	cc                   	int3   
   1400141b4:	cc                   	int3   
   1400141b5:	cc                   	int3   
   1400141b6:	cc                   	int3   
   1400141b7:	cc                   	int3   
   1400141b8:	cc                   	int3   
   1400141b9:	cc                   	int3   
   1400141ba:	cc                   	int3   
   1400141bb:	cc                   	int3   
   1400141bc:	cc                   	int3   
   1400141bd:	cc                   	int3   
   1400141be:	cc                   	int3   
   1400141bf:	cc                   	int3   
   1400141c0:	48 89 4c 24 08       	mov    QWORD PTR [rsp+0x8],rcx
   1400141c5:	48 83 ec 38          	sub    rsp,0x38
   1400141c9:	48 8b 44 24 40       	mov    rax,QWORD PTR [rsp+0x40]
   1400141ce:	48 8b 00             	mov    rax,QWORD PTR [rax]
   1400141d1:	48 89 44 24 20       	mov    QWORD PTR [rsp+0x20],rax
   1400141d6:	48 8b 44 24 20       	mov    rax,QWORD PTR [rsp+0x20]
   1400141db:	81 38 63 73 6d e0    	cmp    DWORD PTR [rax],0xe06d7363
   1400141e1:	75 48                	jne    0x14001422b
   1400141e3:	48 8b 44 24 20       	mov    rax,QWORD PTR [rsp+0x20]
   1400141e8:	83 78 18 04          	cmp    DWORD PTR [rax+0x18],0x4
   1400141ec:	75 3d                	jne    0x14001422b
   1400141ee:	48 8b 44 24 20       	mov    rax,QWORD PTR [rsp+0x20]
   1400141f3:	81 78 20 20 05 93 19 	cmp    DWORD PTR [rax+0x20],0x19930520
   1400141fa:	74 2a                	je     0x140014226
   1400141fc:	48 8b 44 24 20       	mov    rax,QWORD PTR [rsp+0x20]
   140014201:	81 78 20 21 05 93 19 	cmp    DWORD PTR [rax+0x20],0x19930521
   140014208:	74 1c                	je     0x140014226
   14001420a:	48 8b 44 24 20       	mov    rax,QWORD PTR [rsp+0x20]
   14001420f:	81 78 20 22 05 93 19 	cmp    DWORD PTR [rax+0x20],0x19930522
   140014216:	74 0e                	je     0x140014226
   140014218:	48 8b 44 24 20       	mov    rax,QWORD PTR [rsp+0x20]
   14001421d:	81 78 20 00 40 99 01 	cmp    DWORD PTR [rax+0x20],0x1994000
   140014224:	75 05                	jne    0x14001422b
   140014226:	e8 1b ce ff ff       	call   0x140011046
   14001422b:	33 c0                	xor    eax,eax
   14001422d:	48 83 c4 38          	add    rsp,0x38
   140014231:	c3                   	ret    
   140014232:	cc                   	int3   
   140014233:	cc                   	int3   
   140014234:	cc                   	int3   
   140014235:	cc                   	int3   
   140014236:	cc                   	int3   
   140014237:	cc                   	int3   
   140014238:	cc                   	int3   
   140014239:	cc                   	int3   
   14001423a:	cc                   	int3   
   14001423b:	cc                   	int3   
   14001423c:	cc                   	int3   
   14001423d:	cc                   	int3   
   14001423e:	cc                   	int3   
   14001423f:	cc                   	int3   
   140014240:	cc                   	int3   
   140014241:	cc                   	int3   
   140014242:	cc                   	int3   
   140014243:	cc                   	int3   
   140014244:	cc                   	int3   
   140014245:	cc                   	int3   
   140014246:	cc                   	int3   
   140014247:	cc                   	int3   
   140014248:	cc                   	int3   
   140014249:	cc                   	int3   
   14001424a:	cc                   	int3   
   14001424b:	cc                   	int3   
   14001424c:	cc                   	int3   
   14001424d:	cc                   	int3   
   14001424e:	cc                   	int3   
   14001424f:	cc                   	int3   
   140014250:	48 89 5c 24 08       	mov    QWORD PTR [rsp+0x8],rbx
   140014255:	57                   	push   rdi
   140014256:	48 83 ec 20          	sub    rsp,0x20
   14001425a:	48 8d 1d 7f 68 00 00 	lea    rbx,[rip+0x687f]        # 0x14001aae0
   140014261:	48 8d 3d 90 6a 00 00 	lea    rdi,[rip+0x6a90]        # 0x14001acf8
   140014268:	48 3b df             	cmp    rbx,rdi
   14001426b:	73 1a                	jae    0x140014287
   14001426d:	0f 1f 00             	nop    DWORD PTR [rax]
   140014270:	48 8b 03             	mov    rax,QWORD PTR [rbx]
   140014273:	48 85 c0             	test   rax,rax
   140014276:	74 06                	je     0x14001427e
   140014278:	ff 15 92 dd 00 00    	call   QWORD PTR [rip+0xdd92]        # 0x140022010
   14001427e:	48 83 c3 08          	add    rbx,0x8
   140014282:	48 3b df             	cmp    rbx,rdi
   140014285:	72 e9                	jb     0x140014270
   140014287:	48 8b 5c 24 30       	mov    rbx,QWORD PTR [rsp+0x30]
   14001428c:	48 83 c4 20          	add    rsp,0x20
   140014290:	5f                   	pop    rdi
   140014291:	c3                   	ret    
   140014292:	cc                   	int3   
   140014293:	cc                   	int3   
   140014294:	cc                   	int3   
   140014295:	cc                   	int3   
   140014296:	cc                   	int3   
   140014297:	cc                   	int3   
   140014298:	cc                   	int3   
   140014299:	cc                   	int3   
   14001429a:	cc                   	int3   
   14001429b:	cc                   	int3   
   14001429c:	cc                   	int3   
   14001429d:	cc                   	int3   
   14001429e:	cc                   	int3   
   14001429f:	cc                   	int3   
   1400142a0:	cc                   	int3   
   1400142a1:	cc                   	int3   
   1400142a2:	cc                   	int3   
   1400142a3:	cc                   	int3   
   1400142a4:	cc                   	int3   
   1400142a5:	cc                   	int3   
   1400142a6:	cc                   	int3   
   1400142a7:	cc                   	int3   
   1400142a8:	cc                   	int3   
   1400142a9:	cc                   	int3   
   1400142aa:	cc                   	int3   
   1400142ab:	cc                   	int3   
   1400142ac:	cc                   	int3   
   1400142ad:	cc                   	int3   
   1400142ae:	cc                   	int3   
   1400142af:	cc                   	int3   
   1400142b0:	48 89 5c 24 08       	mov    QWORD PTR [rsp+0x8],rbx
   1400142b5:	57                   	push   rdi
   1400142b6:	48 83 ec 20          	sub    rsp,0x20
   1400142ba:	48 8d 1d 4f 6b 00 00 	lea    rbx,[rip+0x6b4f]        # 0x14001ae10
   1400142c1:	48 8d 3d 60 6d 00 00 	lea    rdi,[rip+0x6d60]        # 0x14001b028
   1400142c8:	48 3b df             	cmp    rbx,rdi
   1400142cb:	73 1a                	jae    0x1400142e7
   1400142cd:	0f 1f 00             	nop    DWORD PTR [rax]
   1400142d0:	48 8b 03             	mov    rax,QWORD PTR [rbx]
   1400142d3:	48 85 c0             	test   rax,rax
   1400142d6:	74 06                	je     0x1400142de
   1400142d8:	ff 15 32 dd 00 00    	call   QWORD PTR [rip+0xdd32]        # 0x140022010
   1400142de:	48 83 c3 08          	add    rbx,0x8
   1400142e2:	48 3b df             	cmp    rbx,rdi
   1400142e5:	72 e9                	jb     0x1400142d0
   1400142e7:	48 8b 5c 24 30       	mov    rbx,QWORD PTR [rsp+0x30]
   1400142ec:	48 83 c4 20          	add    rsp,0x20
   1400142f0:	5f                   	pop    rdi
   1400142f1:	c3                   	ret    
   1400142f2:	cc                   	int3   
   1400142f3:	cc                   	int3   
   1400142f4:	cc                   	int3   
   1400142f5:	cc                   	int3   
   1400142f6:	cc                   	int3   
   1400142f7:	cc                   	int3   
   1400142f8:	cc                   	int3   
   1400142f9:	cc                   	int3   
   1400142fa:	cc                   	int3   
   1400142fb:	cc                   	int3   
   1400142fc:	cc                   	int3   
   1400142fd:	cc                   	int3   
   1400142fe:	cc                   	int3   
   1400142ff:	cc                   	int3   
   140014300:	cc                   	int3   
   140014301:	cc                   	int3   
   140014302:	cc                   	int3   
   140014303:	cc                   	int3   
   140014304:	cc                   	int3   
   140014305:	cc                   	int3   
   140014306:	cc                   	int3   
   140014307:	cc                   	int3   
   140014308:	cc                   	int3   
   140014309:	cc                   	int3   
   14001430a:	cc                   	int3   
   14001430b:	cc                   	int3   
   14001430c:	cc                   	int3   
   14001430d:	cc                   	int3   
   14001430e:	cc                   	int3   
   14001430f:	cc                   	int3   
   140014310:	48 89 4c 24 08       	mov    QWORD PTR [rsp+0x8],rcx
   140014315:	c3                   	ret    
   140014316:	cc                   	int3   
   140014317:	cc                   	int3   
   140014318:	cc                   	int3   
   140014319:	cc                   	int3   
   14001431a:	cc                   	int3   
   14001431b:	cc                   	int3   
   14001431c:	cc                   	int3   
   14001431d:	cc                   	int3   
   14001431e:	cc                   	int3   
   14001431f:	cc                   	int3   
   140014320:	48 89 4c 24 08       	mov    QWORD PTR [rsp+0x8],rcx
   140014325:	48 83 ec 18          	sub    rsp,0x18
   140014329:	48 8b 44 24 20       	mov    rax,QWORD PTR [rsp+0x20]
   14001432e:	48 8b 00             	mov    rax,QWORD PTR [rax]
   140014331:	48 89 04 24          	mov    QWORD PTR [rsp],rax
   140014335:	48 8b 04 24          	mov    rax,QWORD PTR [rsp]
   140014339:	48 83 c4 18          	add    rsp,0x18
   14001433d:	c3                   	ret    
   14001433e:	cc                   	int3   
   14001433f:	cc                   	int3   
   140014340:	cc                   	int3   
   140014341:	cc                   	int3   
   140014342:	cc                   	int3   
   140014343:	cc                   	int3   
   140014344:	cc                   	int3   
   140014345:	cc                   	int3   
   140014346:	cc                   	int3   
   140014347:	cc                   	int3   
   140014348:	cc                   	int3   
   140014349:	cc                   	int3   
   14001434a:	cc                   	int3   
   14001434b:	cc                   	int3   
   14001434c:	cc                   	int3   
   14001434d:	cc                   	int3   
   14001434e:	cc                   	int3   
   14001434f:	cc                   	int3   
   140014350:	48 89 4c 24 08       	mov    QWORD PTR [rsp+0x8],rcx
   140014355:	48 83 ec 28          	sub    rsp,0x28
   140014359:	48 8b 4c 24 30       	mov    rcx,QWORD PTR [rsp+0x30]
   14001435e:	e8 d2 ce ff ff       	call   0x140011235
   140014363:	48 83 c4 28          	add    rsp,0x28
   140014367:	c3                   	ret    
   140014368:	cc                   	int3   
   140014369:	cc                   	int3   
   14001436a:	cc                   	int3   
   14001436b:	cc                   	int3   
   14001436c:	cc                   	int3   
   14001436d:	cc                   	int3   
   14001436e:	cc                   	int3   
   14001436f:	cc                   	int3   
   140014370:	48 83 ec 38          	sub    rsp,0x38
   140014374:	48 8d 0d 85 dc 00 00 	lea    rcx,[rip+0xdc85]        # 0x140022000
   14001437b:	e8 ce ce ff ff       	call   0x14001124e
   140014380:	48 8d 0d 40 ce ff ff 	lea    rcx,[rip+0xffffffffffffce40]        # 0x1400111c7
   140014387:	48 3b c1             	cmp    rax,rcx
   14001438a:	74 0a                	je     0x140014396
   14001438c:	c7 44 24 20 01 00 00 	mov    DWORD PTR [rsp+0x20],0x1
   140014393:	00 
   140014394:	eb 08                	jmp    0x14001439e
   140014396:	c7 44 24 20 00 00 00 	mov    DWORD PTR [rsp+0x20],0x0
   14001439d:	00 
   14001439e:	8b 44 24 20          	mov    eax,DWORD PTR [rsp+0x20]
   1400143a2:	48 83 c4 38          	add    rsp,0x38
   1400143a6:	c3                   	ret    
   1400143a7:	cc                   	int3   
   1400143a8:	cc                   	int3   
   1400143a9:	cc                   	int3   
   1400143aa:	cc                   	int3   
   1400143ab:	cc                   	int3   
   1400143ac:	cc                   	int3   
   1400143ad:	cc                   	int3   
   1400143ae:	cc                   	int3   
   1400143af:	cc                   	int3   
   1400143b0:	cc                   	int3   
   1400143b1:	cc                   	int3   
   1400143b2:	cc                   	int3   
   1400143b3:	cc                   	int3   
   1400143b4:	cc                   	int3   
   1400143b5:	cc                   	int3   
   1400143b6:	cc                   	int3   
   1400143b7:	cc                   	int3   
   1400143b8:	cc                   	int3   
   1400143b9:	cc                   	int3   
   1400143ba:	cc                   	int3   
   1400143bb:	cc                   	int3   
   1400143bc:	cc                   	int3   
   1400143bd:	cc                   	int3   
   1400143be:	cc                   	int3   
   1400143bf:	cc                   	int3   
   1400143c0:	33 c0                	xor    eax,eax
   1400143c2:	c3                   	ret    
   1400143c3:	cc                   	int3   
   1400143c4:	cc                   	int3   
   1400143c5:	cc                   	int3   
   1400143c6:	cc                   	int3   
   1400143c7:	cc                   	int3   
   1400143c8:	cc                   	int3   
   1400143c9:	cc                   	int3   
   1400143ca:	cc                   	int3   
   1400143cb:	cc                   	int3   
   1400143cc:	cc                   	int3   
   1400143cd:	cc                   	int3   
   1400143ce:	cc                   	int3   
   1400143cf:	cc                   	int3   
   1400143d0:	48 81 ec 58 04 00 00 	sub    rsp,0x458
   1400143d7:	48 8b 05 2a 7c 00 00 	mov    rax,QWORD PTR [rip+0x7c2a]        # 0x14001c008
   1400143de:	48 33 c4             	xor    rax,rsp
   1400143e1:	48 89 84 24 40 04 00 	mov    QWORD PTR [rsp+0x440],rax
   1400143e8:	00 
   1400143e9:	80 3d c1 84 00 00 00 	cmp    BYTE PTR [rip+0x84c1],0x0        # 0x14001c8b1
   1400143f0:	0f 85 05 01 00 00    	jne    0x1400144fb
   1400143f6:	c6 05 b4 84 00 00 01 	mov    BYTE PTR [rip+0x84b4],0x1        # 0x14001c8b1
   1400143fd:	e8 6e 01 00 00       	call   0x140014570
   140014402:	48 85 c0             	test   rax,rax
   140014405:	0f 85 f2 00 00 00    	jne    0x1400144fd
   14001440b:	48 8d 0d 86 60 00 00 	lea    rcx,[rip+0x6086]        # 0x14001a498
   140014412:	e8 39 cc ff ff       	call   0x140011050
   140014417:	48 85 c0             	test   rax,rax
   14001441a:	74 71                	je     0x14001448d
   14001441c:	41 b8 04 01 00 00    	mov    r8d,0x104
   140014422:	48 8d 94 24 30 02 00 	lea    rdx,[rsp+0x230]
   140014429:	00 
   14001442a:	48 8b c8             	mov    rcx,rax
   14001442d:	e8 e6 cc ff ff       	call   0x140011118
   140014432:	85 c0                	test   eax,eax
   140014434:	74 57                	je     0x14001448d
   140014436:	41 b8 04 01 00 00    	mov    r8d,0x104
   14001443c:	48 8d 54 24 20       	lea    rdx,[rsp+0x20]
   140014441:	48 8d 8c 24 30 02 00 	lea    rcx,[rsp+0x230]
   140014448:	00 
   140014449:	e8 82 04 00 00       	call   0x1400148d0
   14001444e:	85 c0                	test   eax,eax
   140014450:	74 3b                	je     0x14001448d
   140014452:	33 d2                	xor    edx,edx
   140014454:	48 8d 4c 24 20       	lea    rcx,[rsp+0x20]
   140014459:	41 b8 00 09 00 00    	mov    r8d,0x900
   14001445f:	e8 09 cd ff ff       	call   0x14001116d
   140014464:	48 85 c0             	test   rax,rax
   140014467:	0f 85 90 00 00 00    	jne    0x1400144fd
   14001446d:	ff 15 ed bb 00 00    	call   QWORD PTR [rip+0xbbed]        # 0x140020060
   140014473:	83 f8 57             	cmp    eax,0x57
   140014476:	75 15                	jne    0x14001448d
   140014478:	33 d2                	xor    edx,edx
   14001447a:	44 8d 40 b1          	lea    r8d,[rax-0x4f]
   14001447e:	48 8d 4c 24 20       	lea    rcx,[rsp+0x20]
   140014483:	e8 e5 cc ff ff       	call   0x14001116d
   140014488:	48 85 c0             	test   rax,rax
   14001448b:	75 70                	jne    0x1400144fd
   14001448d:	33 d2                	xor    edx,edx
   14001448f:	48 8d 0d c2 61 00 00 	lea    rcx,[rip+0x61c2]        # 0x14001a658
   140014496:	41 b8 00 0a 00 00    	mov    r8d,0xa00
   14001449c:	e8 cc cc ff ff       	call   0x14001116d
   1400144a1:	48 85 c0             	test   rax,rax
   1400144a4:	75 57                	jne    0x1400144fd
   1400144a6:	ff 15 b4 bb 00 00    	call   QWORD PTR [rip+0xbbb4]        # 0x140020060
   1400144ac:	83 f8 57             	cmp    eax,0x57
   1400144af:	75 4a                	jne    0x1400144fb
   1400144b1:	41 b8 04 01 00 00    	mov    r8d,0x104
   1400144b7:	48 8d 94 24 30 02 00 	lea    rdx,[rsp+0x230]
   1400144be:	00 
   1400144bf:	33 c9                	xor    ecx,ecx
   1400144c1:	e8 52 cc ff ff       	call   0x140011118
   1400144c6:	85 c0                	test   eax,eax
   1400144c8:	74 31                	je     0x1400144fb
   1400144ca:	41 b8 04 01 00 00    	mov    r8d,0x104
   1400144d0:	48 8d 54 24 20       	lea    rdx,[rsp+0x20]
   1400144d5:	48 8d 8c 24 30 02 00 	lea    rcx,[rsp+0x230]
   1400144dc:	00 
   1400144dd:	e8 ee 03 00 00       	call   0x1400148d0
   1400144e2:	85 c0                	test   eax,eax
   1400144e4:	74 15                	je     0x1400144fb
   1400144e6:	33 d2                	xor    edx,edx
   1400144e8:	48 8d 4c 24 20       	lea    rcx,[rsp+0x20]
   1400144ed:	44 8d 42 08          	lea    r8d,[rdx+0x8]
   1400144f1:	e8 77 cc ff ff       	call   0x14001116d
   1400144f6:	48 85 c0             	test   rax,rax
   1400144f9:	75 02                	jne    0x1400144fd
   1400144fb:	33 c0                	xor    eax,eax
   1400144fd:	48 8b 8c 24 40 04 00 	mov    rcx,QWORD PTR [rsp+0x440]
   140014504:	00 
   140014505:	48 33 cc             	xor    rcx,rsp
   140014508:	e8 c5 cb ff ff       	call   0x1400110d2
   14001450d:	48 81 c4 58 04 00 00 	add    rsp,0x458
   140014514:	c3                   	ret    
   140014515:	cc                   	int3   
   140014516:	cc                   	int3   
   140014517:	cc                   	int3   
   140014518:	cc                   	int3   
   140014519:	cc                   	int3   
   14001451a:	cc                   	int3   
   14001451b:	cc                   	int3   
   14001451c:	cc                   	int3   
   14001451d:	cc                   	int3   
   14001451e:	cc                   	int3   
   14001451f:	cc                   	int3   
   140014520:	cc                   	int3   
   140014521:	cc                   	int3   
   140014522:	cc                   	int3   
   140014523:	cc                   	int3   
   140014524:	cc                   	int3   
   140014525:	cc                   	int3   
   140014526:	cc                   	int3   
   140014527:	cc                   	int3   
   140014528:	cc                   	int3   
   140014529:	cc                   	int3   
   14001452a:	cc                   	int3   
   14001452b:	cc                   	int3   
   14001452c:	cc                   	int3   
   14001452d:	cc                   	int3   
   14001452e:	cc                   	int3   
   14001452f:	cc                   	int3   
   140014530:	cc                   	int3   
   140014531:	cc                   	int3   
   140014532:	cc                   	int3   
   140014533:	cc                   	int3   
   140014534:	cc                   	int3   
   140014535:	cc                   	int3   
   140014536:	cc                   	int3   
   140014537:	cc                   	int3   
   140014538:	cc                   	int3   
   140014539:	cc                   	int3   
   14001453a:	cc                   	int3   
   14001453b:	cc                   	int3   
   14001453c:	cc                   	int3   
   14001453d:	cc                   	int3   
   14001453e:	cc                   	int3   
   14001453f:	cc                   	int3   
   140014540:	cc                   	int3   
   140014541:	cc                   	int3   
   140014542:	cc                   	int3   
   140014543:	cc                   	int3   
   140014544:	cc                   	int3   
   140014545:	cc                   	int3   
   140014546:	cc                   	int3   
   140014547:	cc                   	int3   
   140014548:	cc                   	int3   
   140014549:	cc                   	int3   
   14001454a:	cc                   	int3   
   14001454b:	cc                   	int3   
   14001454c:	cc                   	int3   
   14001454d:	cc                   	int3   
   14001454e:	cc                   	int3   
   14001454f:	cc                   	int3   
   140014550:	cc                   	int3   
   140014551:	cc                   	int3   
   140014552:	cc                   	int3   
   140014553:	cc                   	int3   
   140014554:	cc                   	int3   
   140014555:	cc                   	int3   
   140014556:	cc                   	int3   
   140014557:	cc                   	int3   
   140014558:	cc                   	int3   
   140014559:	cc                   	int3   
   14001455a:	cc                   	int3   
   14001455b:	cc                   	int3   
   14001455c:	cc                   	int3   
   14001455d:	cc                   	int3   
   14001455e:	cc                   	int3   
   14001455f:	cc                   	int3   
   140014560:	cc                   	int3   
   140014561:	cc                   	int3   
   140014562:	cc                   	int3   
   140014563:	cc                   	int3   
   140014564:	cc                   	int3   
   140014565:	cc                   	int3   
   140014566:	cc                   	int3   
   140014567:	cc                   	int3   
   140014568:	cc                   	int3   
   140014569:	cc                   	int3   
   14001456a:	cc                   	int3   
   14001456b:	cc                   	int3   
   14001456c:	cc                   	int3   
   14001456d:	cc                   	int3   
   14001456e:	cc                   	int3   
   14001456f:	cc                   	int3   
   140014570:	48 89 5c 24 08       	mov    QWORD PTR [rsp+0x8],rbx
   140014575:	48 89 74 24 10       	mov    QWORD PTR [rsp+0x10],rsi
   14001457a:	48 89 7c 24 18       	mov    QWORD PTR [rsp+0x18],rdi
   14001457f:	4c 89 74 24 20       	mov    QWORD PTR [rsp+0x20],r14
   140014584:	55                   	push   rbp
   140014585:	48 8d ac 24 90 fe ff 	lea    rbp,[rsp-0x170]
   14001458c:	ff 
   14001458d:	48 81 ec 70 02 00 00 	sub    rsp,0x270
   140014594:	48 8b 05 6d 7a 00 00 	mov    rax,QWORD PTR [rip+0x7a6d]        # 0x14001c008
   14001459b:	48 33 c4             	xor    rax,rsp
   14001459e:	48 89 85 60 01 00 00 	mov    QWORD PTR [rbp+0x160],rax
   1400145a5:	33 d2                	xor    edx,edx
   1400145a7:	48 8d 0d 22 5f 00 00 	lea    rcx,[rip+0x5f22]        # 0x14001a4d0
   1400145ae:	41 b8 00 08 00 00    	mov    r8d,0x800
   1400145b4:	e8 b4 cb ff ff       	call   0x14001116d
   1400145b9:	48 8b f8             	mov    rdi,rax
   1400145bc:	48 85 c0             	test   rax,rax
   1400145bf:	75 44                	jne    0x140014605
   1400145c1:	33 d2                	xor    edx,edx
   1400145c3:	48 8d 0d 5e 5f 00 00 	lea    rcx,[rip+0x5f5e]        # 0x14001a528
   1400145ca:	41 b8 00 08 00 00    	mov    r8d,0x800
   1400145d0:	e8 98 cb ff ff       	call   0x14001116d
   1400145d5:	48 8b f8             	mov    rdi,rax
   1400145d8:	48 85 c0             	test   rax,rax
   1400145db:	75 28                	jne    0x140014605
   1400145dd:	ff 15 7d ba 00 00    	call   QWORD PTR [rip+0xba7d]        # 0x140020060
   1400145e3:	83 f8 57             	cmp    eax,0x57
   1400145e6:	0f 85 98 00 00 00    	jne    0x140014684
   1400145ec:	45 33 c0             	xor    r8d,r8d
   1400145ef:	48 8d 0d 32 5f 00 00 	lea    rcx,[rip+0x5f32]        # 0x14001a528
   1400145f6:	33 d2                	xor    edx,edx
   1400145f8:	e8 70 cb ff ff       	call   0x14001116d
   1400145fd:	48 8b f8             	mov    rdi,rax
   140014600:	48 85 c0             	test   rax,rax
   140014603:	74 7f                	je     0x140014684
   140014605:	48 8d 15 3c 5f 00 00 	lea    rdx,[rip+0x5f3c]        # 0x14001a548
   14001460c:	48 8b cf             	mov    rcx,rdi
   14001460f:	ff 15 1b ba 00 00    	call   QWORD PTR [rip+0xba1b]        # 0x140020030
   140014615:	48 8b d8             	mov    rbx,rax
   140014618:	48 85 c0             	test   rax,rax
   14001461b:	74 67                	je     0x140014684
   14001461d:	48 8d 15 34 5f 00 00 	lea    rdx,[rip+0x5f34]        # 0x14001a558
   140014624:	48 8b cf             	mov    rcx,rdi
   140014627:	ff 15 03 ba 00 00    	call   QWORD PTR [rip+0xba03]        # 0x140020030
   14001462d:	48 8b f0             	mov    rsi,rax
   140014630:	48 85 c0             	test   rax,rax
   140014633:	74 4f                	je     0x140014684
   140014635:	48 8d 15 34 5f 00 00 	lea    rdx,[rip+0x5f34]        # 0x14001a570
   14001463c:	48 8b cf             	mov    rcx,rdi
   14001463f:	ff 15 eb b9 00 00    	call   QWORD PTR [rip+0xb9eb]        # 0x140020030
   140014645:	4c 8b f0             	mov    r14,rax
   140014648:	48 85 c0             	test   rax,rax
   14001464b:	74 37                	je     0x140014684
   14001464d:	48 8d 44 24 48       	lea    rax,[rsp+0x48]
   140014652:	41 b9 01 00 00 00    	mov    r9d,0x1
   140014658:	48 89 44 24 20       	mov    QWORD PTR [rsp+0x20],rax
   14001465d:	48 8d 15 1c 5f 00 00 	lea    rdx,[rip+0x5f1c]        # 0x14001a580
   140014664:	48 8b c3             	mov    rax,rbx
   140014667:	45 33 c0             	xor    r8d,r8d
   14001466a:	48 c7 c1 02 00 00 80 	mov    rcx,0xffffffff80000002
   140014671:	ff 15 99 d9 00 00    	call   QWORD PTR [rip+0xd999]        # 0x140022010
   140014677:	85 c0                	test   eax,eax
   140014679:	74 37                	je     0x1400146b2
   14001467b:	48 8b cf             	mov    rcx,rdi
   14001467e:	ff 15 b4 b9 00 00    	call   QWORD PTR [rip+0xb9b4]        # 0x140020038
   140014684:	33 c0                	xor    eax,eax
   140014686:	48 8b 8d 60 01 00 00 	mov    rcx,QWORD PTR [rbp+0x160]
   14001468d:	48 33 cc             	xor    rcx,rsp
   140014690:	e8 3d ca ff ff       	call   0x1400110d2
   140014695:	4c 8d 9c 24 70 02 00 	lea    r11,[rsp+0x270]
   14001469c:	00 
   14001469d:	49 8b 5b 10          	mov    rbx,QWORD PTR [r11+0x10]
   1400146a1:	49 8b 73 18          	mov    rsi,QWORD PTR [r11+0x18]
   1400146a5:	49 8b 7b 20          	mov    rdi,QWORD PTR [r11+0x20]
   1400146a9:	4d 8b 73 28          	mov    r14,QWORD PTR [r11+0x28]
   1400146ad:	49 8b e3             	mov    rsp,r11
   1400146b0:	5d                   	pop    rbp
   1400146b1:	c3                   	ret    
   1400146b2:	48 8b 4c 24 48       	mov    rcx,QWORD PTR [rsp+0x48]
   1400146b7:	48 8d 44 24 40       	lea    rax,[rsp+0x40]
   1400146bc:	48 89 44 24 28       	mov    QWORD PTR [rsp+0x28],rax
   1400146c1:	4c 8d 4c 24 44       	lea    r9,[rsp+0x44]
   1400146c6:	48 8d 44 24 50       	lea    rax,[rsp+0x50]
   1400146cb:	c7 44 24 40 08 02 00 	mov    DWORD PTR [rsp+0x40],0x208
   1400146d2:	00 
   1400146d3:	48 89 44 24 20       	mov    QWORD PTR [rsp+0x20],rax
   1400146d8:	48 8d 15 31 5f 00 00 	lea    rdx,[rip+0x5f31]        # 0x14001a610
   1400146df:	48 8b c6             	mov    rax,rsi
   1400146e2:	45 33 c0             	xor    r8d,r8d
   1400146e5:	ff 15 25 d9 00 00    	call   QWORD PTR [rip+0xd925]        # 0x140022010
   1400146eb:	48 8b 4c 24 48       	mov    rcx,QWORD PTR [rsp+0x48]
   1400146f0:	8b d8                	mov    ebx,eax
   1400146f2:	49 8b c6             	mov    rax,r14
   1400146f5:	ff 15 15 d9 00 00    	call   QWORD PTR [rip+0xd915]        # 0x140022010
   1400146fb:	48 8b cf             	mov    rcx,rdi
   1400146fe:	ff 15 34 b9 00 00    	call   QWORD PTR [rip+0xb934]        # 0x140020038
   140014704:	85 db                	test   ebx,ebx
   140014706:	0f 85 78 ff ff ff    	jne    0x140014684
   14001470c:	83 7c 24 44 01       	cmp    DWORD PTR [rsp+0x44],0x1
   140014711:	0f 85 6d ff ff ff    	jne    0x140014684
   140014717:	8b 54 24 40          	mov    edx,DWORD PTR [rsp+0x40]
   14001471b:	f6 c2 01             	test   dl,0x1
   14001471e:	0f 85 60 ff ff ff    	jne    0x140014684
   140014724:	d1 ea                	shr    edx,1
   140014726:	44 8b ca             	mov    r9d,edx
   140014729:	83 fa 02             	cmp    edx,0x2
   14001472c:	0f 82 52 ff ff ff    	jb     0x140014684
   140014732:	ff ca                	dec    edx
   140014734:	4c 8d 44 24 50       	lea    r8,[rsp+0x50]
   140014739:	66 41 39 1c 50       	cmp    WORD PTR [r8+rdx*2],bx
   14001473e:	4d 8d 04 50          	lea    r8,[r8+rdx*2]
   140014742:	0f 85 3c ff ff ff    	jne    0x140014684
   140014748:	8d 42 ff             	lea    eax,[rdx-0x1]
   14001474b:	41 ba 5c 00 00 00    	mov    r10d,0x5c
   140014751:	66 44 39 54 44 50    	cmp    WORD PTR [rsp+rax*2+0x50],r10w
   140014757:	74 07                	je     0x140014760
   140014759:	66 45 89 10          	mov    WORD PTR [r8],r10w
   14001475d:	41 8b d1             	mov    edx,r9d
   140014760:	8b c2                	mov    eax,edx
   140014762:	f7 d0                	not    eax
   140014764:	83 f8 18             	cmp    eax,0x18
   140014767:	0f 82 17 ff ff ff    	jb     0x140014684
   14001476d:	8b ca                	mov    ecx,edx
   14001476f:	48 8d 41 17          	lea    rax,[rcx+0x17]
   140014773:	48 3d 04 01 00 00    	cmp    rax,0x104
   140014779:	0f 87 05 ff ff ff    	ja     0x140014684
   14001477f:	c7 44 4c 50 62 00 69 	mov    DWORD PTR [rsp+rcx*2+0x50],0x690062
   140014786:	00 
   140014787:	33 c0                	xor    eax,eax
   140014789:	c7 44 4c 54 6e 00 5c 	mov    DWORD PTR [rsp+rcx*2+0x54],0x5c006e
   140014790:	00 
   140014791:	33 d2                	xor    edx,edx
   140014793:	c7 44 4c 58 61 00 6d 	mov    DWORD PTR [rsp+rcx*2+0x58],0x6d0061
   14001479a:	00 
   14001479b:	41 b8 00 09 00 00    	mov    r8d,0x900
   1400147a1:	c7 44 4c 5c 64 00 36 	mov    DWORD PTR [rsp+rcx*2+0x5c],0x360064
   1400147a8:	00 
   1400147a9:	c7 44 4c 60 34 00 5c 	mov    DWORD PTR [rsp+rcx*2+0x60],0x5c0034
   1400147b0:	00 
   1400147b1:	c7 44 4c 64 4d 00 53 	mov    DWORD PTR [rsp+rcx*2+0x64],0x53004d
   1400147b8:	00 
   1400147b9:	c7 44 4c 68 50 00 44 	mov    DWORD PTR [rsp+rcx*2+0x68],0x440050
   1400147c0:	00 
   1400147c1:	c7 44 4c 6c 42 00 31 	mov    DWORD PTR [rsp+rcx*2+0x6c],0x310042
   1400147c8:	00 
   1400147c9:	c7 44 4c 70 34 00 30 	mov    DWORD PTR [rsp+rcx*2+0x70],0x300034
   1400147d0:	00 
   1400147d1:	c7 44 4c 74 2e 00 44 	mov    DWORD PTR [rsp+rcx*2+0x74],0x44002e
   1400147d8:	00 
   1400147d9:	c7 44 4c 78 4c 00 4c 	mov    DWORD PTR [rsp+rcx*2+0x78],0x4c004c
   1400147e0:	00 
   1400147e1:	66 89 44 4c 7c       	mov    WORD PTR [rsp+rcx*2+0x7c],ax
   1400147e6:	48 8d 4c 24 50       	lea    rcx,[rsp+0x50]
   1400147eb:	e8 7d c9 ff ff       	call   0x14001116d
   1400147f0:	48 8b d8             	mov    rbx,rax
   1400147f3:	48 85 c0             	test   rax,rax
   1400147f6:	75 1e                	jne    0x140014816
   1400147f8:	ff 15 62 b8 00 00    	call   QWORD PTR [rip+0xb862]        # 0x140020060
   1400147fe:	83 f8 57             	cmp    eax,0x57
   140014801:	75 13                	jne    0x140014816
   140014803:	33 d2                	xor    edx,edx
   140014805:	44 8d 43 08          	lea    r8d,[rbx+0x8]
   140014809:	48 8d 4c 24 50       	lea    rcx,[rsp+0x50]
   14001480e:	e8 5a c9 ff ff       	call   0x14001116d
   140014813:	48 8b d8             	mov    rbx,rax
   140014816:	48 8b c3             	mov    rax,rbx
   140014819:	e9 68 fe ff ff       	jmp    0x140014686
   14001481e:	cc                   	int3   
   14001481f:	cc                   	int3   
   140014820:	cc                   	int3   
   140014821:	cc                   	int3   
   140014822:	cc                   	int3   
   140014823:	cc                   	int3   
   140014824:	cc                   	int3   
   140014825:	cc                   	int3   
   140014826:	cc                   	int3   
   140014827:	cc                   	int3   
   140014828:	cc                   	int3   
   140014829:	cc                   	int3   
   14001482a:	cc                   	int3   
   14001482b:	cc                   	int3   
   14001482c:	cc                   	int3   
   14001482d:	cc                   	int3   
   14001482e:	cc                   	int3   
   14001482f:	cc                   	int3   
   140014830:	cc                   	int3   
   140014831:	cc                   	int3   
   140014832:	cc                   	int3   
   140014833:	cc                   	int3   
   140014834:	cc                   	int3   
   140014835:	cc                   	int3   
   140014836:	cc                   	int3   
   140014837:	cc                   	int3   
   140014838:	cc                   	int3   
   140014839:	cc                   	int3   
   14001483a:	cc                   	int3   
   14001483b:	cc                   	int3   
   14001483c:	cc                   	int3   
   14001483d:	cc                   	int3   
   14001483e:	cc                   	int3   
   14001483f:	cc                   	int3   
   140014840:	cc                   	int3   
   140014841:	cc                   	int3   
   140014842:	cc                   	int3   
   140014843:	cc                   	int3   
   140014844:	cc                   	int3   
   140014845:	cc                   	int3   
   140014846:	cc                   	int3   
   140014847:	cc                   	int3   
   140014848:	cc                   	int3   
   140014849:	cc                   	int3   
   14001484a:	cc                   	int3   
   14001484b:	cc                   	int3   
   14001484c:	cc                   	int3   
   14001484d:	cc                   	int3   
   14001484e:	cc                   	int3   
   14001484f:	cc                   	int3   
   140014850:	cc                   	int3   
   140014851:	cc                   	int3   
   140014852:	cc                   	int3   
   140014853:	cc                   	int3   
   140014854:	cc                   	int3   
   140014855:	cc                   	int3   
   140014856:	cc                   	int3   
   140014857:	cc                   	int3   
   140014858:	cc                   	int3   
   140014859:	cc                   	int3   
   14001485a:	cc                   	int3   
   14001485b:	cc                   	int3   
   14001485c:	cc                   	int3   
   14001485d:	cc                   	int3   
   14001485e:	cc                   	int3   
   14001485f:	cc                   	int3   
   140014860:	cc                   	int3   
   140014861:	cc                   	int3   
   140014862:	cc                   	int3   
   140014863:	cc                   	int3   
   140014864:	cc                   	int3   
   140014865:	cc                   	int3   
   140014866:	cc                   	int3   
   140014867:	cc                   	int3   
   140014868:	cc                   	int3   
   140014869:	cc                   	int3   
   14001486a:	cc                   	int3   
   14001486b:	cc                   	int3   
   14001486c:	cc                   	int3   
   14001486d:	cc                   	int3   
   14001486e:	cc                   	int3   
   14001486f:	cc                   	int3   
   140014870:	cc                   	int3   
   140014871:	cc                   	int3   
   140014872:	cc                   	int3   
   140014873:	cc                   	int3   
   140014874:	cc                   	int3   
   140014875:	cc                   	int3   
   140014876:	cc                   	int3   
   140014877:	cc                   	int3   
   140014878:	cc                   	int3   
   140014879:	cc                   	int3   
   14001487a:	cc                   	int3   
   14001487b:	cc                   	int3   
   14001487c:	cc                   	int3   
   14001487d:	cc                   	int3   
   14001487e:	cc                   	int3   
   14001487f:	cc                   	int3   
   140014880:	cc                   	int3   
   140014881:	cc                   	int3   
   140014882:	cc                   	int3   
   140014883:	cc                   	int3   
   140014884:	cc                   	int3   
   140014885:	cc                   	int3   
   140014886:	cc                   	int3   
   140014887:	cc                   	int3   
   140014888:	cc                   	int3   
   140014889:	cc                   	int3   
   14001488a:	cc                   	int3   
   14001488b:	cc                   	int3   
   14001488c:	cc                   	int3   
   14001488d:	cc                   	int3   
   14001488e:	cc                   	int3   
   14001488f:	cc                   	int3   
   140014890:	cc                   	int3   
   140014891:	cc                   	int3   
   140014892:	cc                   	int3   
   140014893:	cc                   	int3   
   140014894:	cc                   	int3   
   140014895:	cc                   	int3   
   140014896:	cc                   	int3   
   140014897:	cc                   	int3   
   140014898:	cc                   	int3   
   140014899:	cc                   	int3   
   14001489a:	cc                   	int3   
   14001489b:	cc                   	int3   
   14001489c:	cc                   	int3   
   14001489d:	cc                   	int3   
   14001489e:	cc                   	int3   
   14001489f:	cc                   	int3   
   1400148a0:	cc                   	int3   
   1400148a1:	cc                   	int3   
   1400148a2:	cc                   	int3   
   1400148a3:	cc                   	int3   
   1400148a4:	cc                   	int3   
   1400148a5:	cc                   	int3   
   1400148a6:	cc                   	int3   
   1400148a7:	cc                   	int3   
   1400148a8:	cc                   	int3   
   1400148a9:	cc                   	int3   
   1400148aa:	cc                   	int3   
   1400148ab:	cc                   	int3   
   1400148ac:	cc                   	int3   
   1400148ad:	cc                   	int3   
   1400148ae:	cc                   	int3   
   1400148af:	cc                   	int3   
   1400148b0:	cc                   	int3   
   1400148b1:	cc                   	int3   
   1400148b2:	cc                   	int3   
   1400148b3:	cc                   	int3   
   1400148b4:	cc                   	int3   
   1400148b5:	cc                   	int3   
   1400148b6:	cc                   	int3   
   1400148b7:	cc                   	int3   
   1400148b8:	cc                   	int3   
   1400148b9:	cc                   	int3   
   1400148ba:	cc                   	int3   
   1400148bb:	cc                   	int3   
   1400148bc:	cc                   	int3   
   1400148bd:	cc                   	int3   
   1400148be:	cc                   	int3   
   1400148bf:	cc                   	int3   
   1400148c0:	cc                   	int3   
   1400148c1:	cc                   	int3   
   1400148c2:	cc                   	int3   
   1400148c3:	cc                   	int3   
   1400148c4:	cc                   	int3   
   1400148c5:	cc                   	int3   
   1400148c6:	cc                   	int3   
   1400148c7:	cc                   	int3   
   1400148c8:	cc                   	int3   
   1400148c9:	cc                   	int3   
   1400148ca:	cc                   	int3   
   1400148cb:	cc                   	int3   
   1400148cc:	cc                   	int3   
   1400148cd:	cc                   	int3   
   1400148ce:	cc                   	int3   
   1400148cf:	cc                   	int3   
   1400148d0:	48 89 5c 24 20       	mov    QWORD PTR [rsp+0x20],rbx
   1400148d5:	57                   	push   rdi
   1400148d6:	48 81 ec 70 06 00 00 	sub    rsp,0x670
   1400148dd:	48 8b 05 24 77 00 00 	mov    rax,QWORD PTR [rip+0x7724]        # 0x14001c008
   1400148e4:	48 33 c4             	xor    rax,rsp
   1400148e7:	48 89 84 24 60 06 00 	mov    QWORD PTR [rsp+0x660],rax
   1400148ee:	00 
   1400148ef:	48 c7 44 24 40 00 01 	mov    QWORD PTR [rsp+0x40],0x100
   1400148f6:	00 00 
   1400148f8:	48 8d 44 24 60       	lea    rax,[rsp+0x60]
   1400148fd:	48 89 44 24 38       	mov    QWORD PTR [rsp+0x38],rax
   140014902:	4c 8d 8c 24 60 04 00 	lea    r9,[rsp+0x460]
   140014909:	00 
   14001490a:	48 8d 84 24 60 02 00 	lea    rax,[rsp+0x260]
   140014911:	00 
   140014912:	48 c7 44 24 30 00 01 	mov    QWORD PTR [rsp+0x30],0x100
   140014919:	00 00 
   14001491b:	49 8b f8             	mov    rdi,r8
   14001491e:	48 89 44 24 28       	mov    QWORD PTR [rsp+0x28],rax
   140014923:	48 8b da             	mov    rbx,rdx
   140014926:	48 c7 44 24 20 00 01 	mov    QWORD PTR [rsp+0x20],0x100
   14001492d:	00 00 
   14001492f:	41 b8 03 00 00 00    	mov    r8d,0x3
   140014935:	48 8d 54 24 50       	lea    rdx,[rsp+0x50]
   14001493a:	e8 13 ca ff ff       	call   0x140011352
   14001493f:	85 c0                	test   eax,eax
   140014941:	75 6d                	jne    0x1400149b0
   140014943:	4c 8d 05 f6 5c 00 00 	lea    r8,[rip+0x5cf6]        # 0x14001a640
   14001494a:	8d 50 09             	lea    edx,[rax+0x9]
   14001494d:	48 8d 8c 24 60 02 00 	lea    rcx,[rsp+0x260]
   140014954:	00 
   140014955:	e8 8c c7 ff ff       	call   0x1400110e6
   14001495a:	85 c0                	test   eax,eax
   14001495c:	75 52                	jne    0x1400149b0
   14001495e:	4c 8d 05 cb 5c 00 00 	lea    r8,[rip+0x5ccb]        # 0x14001a630
   140014965:	8d 50 04             	lea    edx,[rax+0x4]
   140014968:	48 8d 4c 24 60       	lea    rcx,[rsp+0x60]
   14001496d:	e8 74 c7 ff ff       	call   0x1400110e6
   140014972:	85 c0                	test   eax,eax
   140014974:	75 3a                	jne    0x1400149b0
   140014976:	48 8d 44 24 60       	lea    rax,[rsp+0x60]
   14001497b:	48 8b d7             	mov    rdx,rdi
   14001497e:	48 89 44 24 28       	mov    QWORD PTR [rsp+0x28],rax
   140014983:	4c 8d 8c 24 60 04 00 	lea    r9,[rsp+0x460]
   14001498a:	00 
   14001498b:	48 8d 84 24 60 02 00 	lea    rax,[rsp+0x260]
   140014992:	00 
   140014993:	48 8b cb             	mov    rcx,rbx
   140014996:	4c 8d 44 24 50       	lea    r8,[rsp+0x50]
   14001499b:	48 89 44 24 20       	mov    QWORD PTR [rsp+0x20],rax
   1400149a0:	e8 e5 c8 ff ff       	call   0x14001128a
   1400149a5:	85 c0                	test   eax,eax
   1400149a7:	75 07                	jne    0x1400149b0
   1400149a9:	b8 01 00 00 00       	mov    eax,0x1
   1400149ae:	eb 02                	jmp    0x1400149b2
   1400149b0:	33 c0                	xor    eax,eax
   1400149b2:	48 8b 8c 24 60 06 00 	mov    rcx,QWORD PTR [rsp+0x660]
   1400149b9:	00 
   1400149ba:	48 33 cc             	xor    rcx,rsp
   1400149bd:	e8 10 c7 ff ff       	call   0x1400110d2
   1400149c2:	48 8b 9c 24 98 06 00 	mov    rbx,QWORD PTR [rsp+0x698]
   1400149c9:	00 
   1400149ca:	48 81 c4 70 06 00 00 	add    rsp,0x670
   1400149d1:	5f                   	pop    rdi
   1400149d2:	c3                   	ret    
   1400149d3:	cc                   	int3   
   1400149d4:	cc                   	int3   
   1400149d5:	cc                   	int3   
   1400149d6:	cc                   	int3   
   1400149d7:	cc                   	int3   
   1400149d8:	cc                   	int3   
   1400149d9:	cc                   	int3   
   1400149da:	cc                   	int3   
   1400149db:	cc                   	int3   
   1400149dc:	cc                   	int3   
   1400149dd:	cc                   	int3   
   1400149de:	cc                   	int3   
   1400149df:	cc                   	int3   
   1400149e0:	cc                   	int3   
   1400149e1:	cc                   	int3   
   1400149e2:	cc                   	int3   
   1400149e3:	cc                   	int3   
   1400149e4:	cc                   	int3   
   1400149e5:	cc                   	int3   
   1400149e6:	cc                   	int3   
   1400149e7:	cc                   	int3   
   1400149e8:	cc                   	int3   
   1400149e9:	cc                   	int3   
   1400149ea:	cc                   	int3   
   1400149eb:	cc                   	int3   
   1400149ec:	cc                   	int3   
   1400149ed:	cc                   	int3   
   1400149ee:	cc                   	int3   
   1400149ef:	cc                   	int3   
   1400149f0:	cc                   	int3   
   1400149f1:	cc                   	int3   
   1400149f2:	cc                   	int3   
   1400149f3:	cc                   	int3   
   1400149f4:	cc                   	int3   
   1400149f5:	cc                   	int3   
   1400149f6:	cc                   	int3   
   1400149f7:	cc                   	int3   
   1400149f8:	cc                   	int3   
   1400149f9:	cc                   	int3   
   1400149fa:	cc                   	int3   
   1400149fb:	cc                   	int3   
   1400149fc:	cc                   	int3   
   1400149fd:	cc                   	int3   
   1400149fe:	cc                   	int3   
   1400149ff:	cc                   	int3   
   140014a00:	cc                   	int3   
   140014a01:	cc                   	int3   
   140014a02:	cc                   	int3   
   140014a03:	cc                   	int3   
   140014a04:	cc                   	int3   
   140014a05:	cc                   	int3   
   140014a06:	cc                   	int3   
   140014a07:	cc                   	int3   
   140014a08:	cc                   	int3   
   140014a09:	cc                   	int3   
   140014a0a:	cc                   	int3   
   140014a0b:	cc                   	int3   
   140014a0c:	cc                   	int3   
   140014a0d:	cc                   	int3   
   140014a0e:	cc                   	int3   
   140014a0f:	cc                   	int3   
   140014a10:	cc                   	int3   
   140014a11:	cc                   	int3   
   140014a12:	cc                   	int3   
   140014a13:	cc                   	int3   
   140014a14:	cc                   	int3   
   140014a15:	cc                   	int3   
   140014a16:	cc                   	int3   
   140014a17:	cc                   	int3   
   140014a18:	cc                   	int3   
   140014a19:	cc                   	int3   
   140014a1a:	cc                   	int3   
   140014a1b:	cc                   	int3   
   140014a1c:	cc                   	int3   
   140014a1d:	cc                   	int3   
   140014a1e:	cc                   	int3   
   140014a1f:	cc                   	int3   
   140014a20:	44 89 44 24 18       	mov    DWORD PTR [rsp+0x18],r8d
   140014a25:	55                   	push   rbp
   140014a26:	53                   	push   rbx
   140014a27:	56                   	push   rsi
   140014a28:	57                   	push   rdi
   140014a29:	41 54                	push   r12
   140014a2b:	41 55                	push   r13
   140014a2d:	41 56                	push   r14
   140014a2f:	48 8d 6c 24 e9       	lea    rbp,[rsp-0x17]
   140014a34:	48 81 ec b0 00 00 00 	sub    rsp,0xb0
   140014a3b:	45 33 f6             	xor    r14d,r14d
   140014a3e:	48 8d 71 ff          	lea    rsi,[rcx-0x1]
   140014a42:	45 89 31             	mov    DWORD PTR [r9],r14d
   140014a45:	4c 8b ea             	mov    r13,rdx
   140014a48:	66 44 89 32          	mov    WORD PTR [rdx],r14w
   140014a4c:	48 8b ce             	mov    rcx,rsi
   140014a4f:	48 8d 55 e7          	lea    rdx,[rbp-0x19]
   140014a53:	4d 8b e1             	mov    r12,r9
   140014a56:	45 8d 46 30          	lea    r8d,[r14+0x30]
   140014a5a:	ff 15 e0 b5 00 00    	call   QWORD PTR [rip+0xb5e0]        # 0x140020040
   140014a60:	48 85 c0             	test   rax,rax
   140014a63:	0f 84 68 03 00 00    	je     0x140014dd1
   140014a69:	44 8b 45 7f          	mov    r8d,DWORD PTR [rbp+0x7f]
   140014a6d:	48 8b 55 77          	mov    rdx,QWORD PTR [rbp+0x77]
   140014a71:	48 8b 4d ef          	mov    rcx,QWORD PTR [rbp-0x11]
   140014a75:	e8 9e c6 ff ff       	call   0x140011118
   140014a7a:	85 c0                	test   eax,eax
   140014a7c:	0f 84 4f 03 00 00    	je     0x140014dd1
   140014a82:	48 8b 4d ef          	mov    rcx,QWORD PTR [rbp-0x11]
   140014a86:	b8 4d 5a 00 00       	mov    eax,0x5a4d
   140014a8b:	66 39 01             	cmp    WORD PTR [rcx],ax
   140014a8e:	0f 85 3d 03 00 00    	jne    0x140014dd1
   140014a94:	48 63 41 3c          	movsxd rax,DWORD PTR [rcx+0x3c]
   140014a98:	85 c0                	test   eax,eax
   140014a9a:	0f 8e 31 03 00 00    	jle    0x140014dd1
   140014aa0:	48 03 c1             	add    rax,rcx
   140014aa3:	81 38 50 45 00 00    	cmp    DWORD PTR [rax],0x4550
   140014aa9:	0f 85 22 03 00 00    	jne    0x140014dd1
   140014aaf:	0f b7 50 14          	movzx  edx,WORD PTR [rax+0x14]
   140014ab3:	2b f1                	sub    esi,ecx
   140014ab5:	44 0f b7 40 06       	movzx  r8d,WORD PTR [rax+0x6]
   140014aba:	48 03 d0             	add    rdx,rax
   140014abd:	41 8b fe             	mov    edi,r14d
   140014ac0:	41 8b de             	mov    ebx,r14d
   140014ac3:	45 85 c0             	test   r8d,r8d
   140014ac6:	74 27                	je     0x140014aef
   140014ac8:	0f 1f 84 00 00 00 00 	nop    DWORD PTR [rax+rax*1+0x0]
   140014acf:	00 
   140014ad0:	8b c3                	mov    eax,ebx
   140014ad2:	48 8d 0c 80          	lea    rcx,[rax+rax*4]
   140014ad6:	8b 44 ca 24          	mov    eax,DWORD PTR [rdx+rcx*8+0x24]
   140014ada:	3b f0                	cmp    esi,eax
   140014adc:	72 0a                	jb     0x140014ae8
   140014ade:	8b fe                	mov    edi,esi
   140014ae0:	2b f8                	sub    edi,eax
   140014ae2:	3b 74 ca 20          	cmp    esi,DWORD PTR [rdx+rcx*8+0x20]
   140014ae6:	72 07                	jb     0x140014aef
   140014ae8:	ff c3                	inc    ebx
   140014aea:	41 3b d8             	cmp    ebx,r8d
   140014aed:	72 e1                	jb     0x140014ad0
   140014aef:	41 3b d8             	cmp    ebx,r8d
   140014af2:	0f 84 d9 02 00 00    	je     0x140014dd1
   140014af8:	ff c3                	inc    ebx
   140014afa:	44 38 35 b1 7d 00 00 	cmp    BYTE PTR [rip+0x7db1],r14b        # 0x14001c8b2
   140014b01:	75 2b                	jne    0x140014b2e
   140014b03:	4c 39 35 9e 7d 00 00 	cmp    QWORD PTR [rip+0x7d9e],r14        # 0x14001c8a8
   140014b0a:	0f 85 c1 02 00 00    	jne    0x140014dd1
   140014b10:	e8 bb f8 ff ff       	call   0x1400143d0
   140014b15:	48 89 05 8c 7d 00 00 	mov    QWORD PTR [rip+0x7d8c],rax        # 0x14001c8a8
   140014b1c:	48 85 c0             	test   rax,rax
   140014b1f:	0f 84 ac 02 00 00    	je     0x140014dd1
   140014b25:	c6 05 86 7d 00 00 01 	mov    BYTE PTR [rip+0x7d86],0x1        # 0x14001c8b2
   140014b2c:	eb 07                	jmp    0x140014b35
   140014b2e:	48 8b 05 73 7d 00 00 	mov    rax,QWORD PTR [rip+0x7d73]        # 0x14001c8a8
   140014b35:	48 8d 15 34 5b 00 00 	lea    rdx,[rip+0x5b34]        # 0x14001a670
   140014b3c:	48 8b c8             	mov    rcx,rax
   140014b3f:	ff 15 eb b4 00 00    	call   QWORD PTR [rip+0xb4eb]        # 0x140020030
   140014b45:	48 85 c0             	test   rax,rax
   140014b48:	0f 84 83 02 00 00    	je     0x140014dd1
   140014b4e:	48 8d 4d cf          	lea    rcx,[rbp-0x31]
   140014b52:	45 33 c9             	xor    r9d,r9d
   140014b55:	48 89 4c 24 38       	mov    QWORD PTR [rsp+0x38],rcx
   140014b5a:	45 33 c0             	xor    r8d,r8d
   140014b5d:	4c 89 74 24 30       	mov    QWORD PTR [rsp+0x30],r14
   140014b62:	48 8d 4d df          	lea    rcx,[rbp-0x21]
   140014b66:	4c 89 74 24 28       	mov    QWORD PTR [rsp+0x28],r14
   140014b6b:	33 d2                	xor    edx,edx
   140014b6d:	48 89 4c 24 20       	mov    QWORD PTR [rsp+0x20],rcx
   140014b72:	48 8b 4d 77          	mov    rcx,QWORD PTR [rbp+0x77]
   140014b76:	ff 15 94 d4 00 00    	call   QWORD PTR [rip+0xd494]        # 0x140022010
   140014b7c:	85 c0                	test   eax,eax
   140014b7e:	0f 84 4d 02 00 00    	je     0x140014dd1
   140014b84:	48 8b 4d cf          	mov    rcx,QWORD PTR [rbp-0x31]
   140014b88:	48 8b 01             	mov    rax,QWORD PTR [rcx]
   140014b8b:	48 8b 00             	mov    rax,QWORD PTR [rax]
   140014b8e:	ff 15 7c d4 00 00    	call   QWORD PTR [rip+0xd47c]        # 0x140022010
   140014b94:	3d 41 91 32 01       	cmp    eax,0x1329141
   140014b99:	0f 85 1c 02 00 00    	jne    0x140014dbb
   140014b9f:	48 8b 4d cf          	mov    rcx,QWORD PTR [rbp-0x31]
   140014ba3:	4c 8d 4d d7          	lea    r9,[rbp-0x29]
   140014ba7:	4c 8d 05 d6 5a 00 00 	lea    r8,[rip+0x5ad6]        # 0x14001a684
   140014bae:	33 d2                	xor    edx,edx
   140014bb0:	48 8b 01             	mov    rax,QWORD PTR [rcx]
   140014bb3:	48 8b 40 38          	mov    rax,QWORD PTR [rax+0x38]
   140014bb7:	ff 15 53 d4 00 00    	call   QWORD PTR [rip+0xd453]        # 0x140022010
   140014bbd:	85 c0                	test   eax,eax
   140014bbf:	0f 84 f6 01 00 00    	je     0x140014dbb
   140014bc5:	48 8b 4d d7          	mov    rcx,QWORD PTR [rbp-0x29]
   140014bc9:	4c 8d 4d c7          	lea    r9,[rbp-0x39]
   140014bcd:	4c 89 74 24 30       	mov    QWORD PTR [rsp+0x30],r14
   140014bd2:	44 8b c7             	mov    r8d,edi
   140014bd5:	4c 89 74 24 28       	mov    QWORD PTR [rsp+0x28],r14
   140014bda:	0f b7 d3             	movzx  edx,bx
   140014bdd:	4c 89 74 24 20       	mov    QWORD PTR [rsp+0x20],r14
   140014be2:	48 8b 01             	mov    rax,QWORD PTR [rcx]
   140014be5:	48 8b 40 40          	mov    rax,QWORD PTR [rax+0x40]
   140014be9:	ff 15 21 d4 00 00    	call   QWORD PTR [rip+0xd421]        # 0x140022010
   140014bef:	85 c0                	test   eax,eax
   140014bf1:	0f 84 b3 01 00 00    	je     0x140014daa
   140014bf7:	48 8b 4d c7          	mov    rcx,QWORD PTR [rbp-0x39]
   140014bfb:	48 8d 55 b7          	lea    rdx,[rbp-0x49]
   140014bff:	4c 89 75 b7          	mov    QWORD PTR [rbp-0x49],r14
   140014c03:	48 8b 01             	mov    rax,QWORD PTR [rcx]
   140014c06:	48 8b 80 d0 00 00 00 	mov    rax,QWORD PTR [rax+0xd0]
   140014c0d:	ff 15 fd d3 00 00    	call   QWORD PTR [rip+0xd3fd]        # 0x140022010
   140014c13:	84 c0                	test   al,al
   140014c15:	0f 84 7b 01 00 00    	je     0x140014d96
   140014c1b:	48 8b 4d b7          	mov    rcx,QWORD PTR [rbp-0x49]
   140014c1f:	48 85 c9             	test   rcx,rcx
   140014c22:	0f 84 6e 01 00 00    	je     0x140014d96
   140014c28:	48 8b 01             	mov    rax,QWORD PTR [rcx]
   140014c2b:	49 8b f6             	mov    rsi,r14
   140014c2e:	48 8b 40 10          	mov    rax,QWORD PTR [rax+0x10]
   140014c32:	ff 15 d8 d3 00 00    	call   QWORD PTR [rip+0xd3d8]        # 0x140022010
   140014c38:	85 c0                	test   eax,eax
   140014c3a:	0f 84 32 01 00 00    	je     0x140014d72
   140014c40:	48 8b 4d b7          	mov    rcx,QWORD PTR [rbp-0x49]
   140014c44:	48 8d 55 5f          	lea    rdx,[rbp+0x5f]
   140014c48:	4c 89 74 24 30       	mov    QWORD PTR [rsp+0x30],r14
   140014c4d:	4c 8d 4d 57          	lea    r9,[rbp+0x57]
   140014c51:	48 89 54 24 28       	mov    QWORD PTR [rsp+0x28],rdx
   140014c56:	4c 8d 45 6f          	lea    r8,[rbp+0x6f]
   140014c5a:	48 8d 55 bf          	lea    rdx,[rbp-0x41]
   140014c5e:	48 8b 01             	mov    rax,QWORD PTR [rcx]
   140014c61:	48 89 54 24 20       	mov    QWORD PTR [rsp+0x20],rdx
   140014c66:	33 d2                	xor    edx,edx
   140014c68:	48 8b 40 18          	mov    rax,QWORD PTR [rax+0x18]
   140014c6c:	ff 15 9e d3 00 00    	call   QWORD PTR [rip+0xd39e]        # 0x140022010
   140014c72:	84 c0                	test   al,al
   140014c74:	0f 84 0c 01 00 00    	je     0x140014d86
   140014c7a:	0f b7 45 57          	movzx  eax,WORD PTR [rbp+0x57]
   140014c7e:	3b c3                	cmp    eax,ebx
   140014c80:	75 0e                	jne    0x140014c90
   140014c82:	8b 4d 6f             	mov    ecx,DWORD PTR [rbp+0x6f]
   140014c85:	3b cf                	cmp    ecx,edi
   140014c87:	77 07                	ja     0x140014c90
   140014c89:	03 4d bf             	add    ecx,DWORD PTR [rbp-0x41]
   140014c8c:	3b f9                	cmp    edi,ecx
   140014c8e:	72 1a                	jb     0x140014caa
   140014c90:	48 8b 4d b7          	mov    rcx,QWORD PTR [rbp-0x49]
   140014c94:	48 8b 01             	mov    rax,QWORD PTR [rcx]
   140014c97:	48 8b 40 10          	mov    rax,QWORD PTR [rax+0x10]
   140014c9b:	ff 15 6f d3 00 00    	call   QWORD PTR [rip+0xd36f]        # 0x140022010
   140014ca1:	85 c0                	test   eax,eax
   140014ca3:	75 9b                	jne    0x140014c40
   140014ca5:	e9 c8 00 00 00       	jmp    0x140014d72
   140014caa:	8b 45 5f             	mov    eax,DWORD PTR [rbp+0x5f]
   140014cad:	85 c0                	test   eax,eax
   140014caf:	0f 84 d1 00 00 00    	je     0x140014d86
   140014cb5:	8b d8                	mov    ebx,eax
   140014cb7:	48 c1 e3 03          	shl    rbx,0x3
   140014cbb:	ff 15 87 b3 00 00    	call   QWORD PTR [rip+0xb387]        # 0x140020048
   140014cc1:	4c 8b c3             	mov    r8,rbx
   140014cc4:	33 d2                	xor    edx,edx
   140014cc6:	48 8b c8             	mov    rcx,rax
   140014cc9:	ff 15 89 b3 00 00    	call   QWORD PTR [rip+0xb389]        # 0x140020058
   140014ccf:	48 8b f0             	mov    rsi,rax
   140014cd2:	48 85 c0             	test   rax,rax
   140014cd5:	0f 84 ab 00 00 00    	je     0x140014d86
   140014cdb:	48 8b 4d b7          	mov    rcx,QWORD PTR [rbp-0x49]
   140014cdf:	45 33 c9             	xor    r9d,r9d
   140014ce2:	48 89 74 24 30       	mov    QWORD PTR [rsp+0x30],rsi
   140014ce7:	45 33 c0             	xor    r8d,r8d
   140014cea:	48 8b 11             	mov    rdx,QWORD PTR [rcx]
   140014ced:	48 8b 42 18          	mov    rax,QWORD PTR [rdx+0x18]
   140014cf1:	48 8d 55 5f          	lea    rdx,[rbp+0x5f]
   140014cf5:	48 89 54 24 28       	mov    QWORD PTR [rsp+0x28],rdx
   140014cfa:	48 8d 55 c3          	lea    rdx,[rbp-0x3d]
   140014cfe:	4c 89 74 24 20       	mov    QWORD PTR [rsp+0x20],r14
   140014d03:	ff 15 07 d3 00 00    	call   QWORD PTR [rip+0xd307]        # 0x140022010
   140014d09:	84 c0                	test   al,al
   140014d0b:	74 65                	je     0x140014d72
   140014d0d:	2b 7d 6f             	sub    edi,DWORD PTR [rbp+0x6f]
   140014d10:	3b 3e                	cmp    edi,DWORD PTR [rsi]
   140014d12:	72 5e                	jb     0x140014d72
   140014d14:	8b 55 5f             	mov    edx,DWORD PTR [rbp+0x5f]
   140014d17:	bb 01 00 00 00       	mov    ebx,0x1
   140014d1c:	8b cb                	mov    ecx,ebx
   140014d1e:	3b d3                	cmp    edx,ebx
   140014d20:	76 0d                	jbe    0x140014d2f
   140014d22:	8b c1                	mov    eax,ecx
   140014d24:	3b 3c c6             	cmp    edi,DWORD PTR [rsi+rax*8]
   140014d27:	72 06                	jb     0x140014d2f
   140014d29:	ff c1                	inc    ecx
   140014d2b:	3b ca                	cmp    ecx,edx
   140014d2d:	72 f3                	jb     0x140014d22
   140014d2f:	8b 55 c3             	mov    edx,DWORD PTR [rbp-0x3d]
   140014d32:	8d 41 ff             	lea    eax,[rcx-0x1]
   140014d35:	8b 44 c6 04          	mov    eax,DWORD PTR [rsi+rax*8+0x4]
   140014d39:	4c 8d 4d 67          	lea    r9,[rbp+0x67]
   140014d3d:	48 8b 4d c7          	mov    rcx,QWORD PTR [rbp-0x39]
   140014d41:	25 ff ff ff 00       	and    eax,0xffffff
   140014d46:	41 89 04 24          	mov    DWORD PTR [r12],eax
   140014d4a:	4d 8b c5             	mov    r8,r13
   140014d4d:	4c 89 74 24 30       	mov    QWORD PTR [rsp+0x30],r14
   140014d52:	4c 89 74 24 28       	mov    QWORD PTR [rsp+0x28],r14
   140014d57:	48 8b 01             	mov    rax,QWORD PTR [rcx]
   140014d5a:	4c 89 74 24 20       	mov    QWORD PTR [rsp+0x20],r14
   140014d5f:	48 8b 80 e0 00 00 00 	mov    rax,QWORD PTR [rax+0xe0]
   140014d66:	ff 15 a4 d2 00 00    	call   QWORD PTR [rip+0xd2a4]        # 0x140022010
   140014d6c:	84 c0                	test   al,al
   140014d6e:	44 0f 45 f3          	cmovne r14d,ebx
   140014d72:	ff 15 d0 b2 00 00    	call   QWORD PTR [rip+0xb2d0]        # 0x140020048
   140014d78:	4c 8b c6             	mov    r8,rsi
   140014d7b:	33 d2                	xor    edx,edx
   140014d7d:	48 8b c8             	mov    rcx,rax
   140014d80:	ff 15 ca b2 00 00    	call   QWORD PTR [rip+0xb2ca]        # 0x140020050
   140014d86:	48 8b 4d b7          	mov    rcx,QWORD PTR [rbp-0x49]
   140014d8a:	48 8b 01             	mov    rax,QWORD PTR [rcx]
   140014d8d:	48 8b 00             	mov    rax,QWORD PTR [rax]
   140014d90:	ff 15 7a d2 00 00    	call   QWORD PTR [rip+0xd27a]        # 0x140022010
   140014d96:	48 8b 4d c7          	mov    rcx,QWORD PTR [rbp-0x39]
   140014d9a:	48 8b 01             	mov    rax,QWORD PTR [rcx]
   140014d9d:	48 8b 80 80 00 00 00 	mov    rax,QWORD PTR [rax+0x80]
   140014da4:	ff 15 66 d2 00 00    	call   QWORD PTR [rip+0xd266]        # 0x140022010
   140014daa:	48 8b 4d d7          	mov    rcx,QWORD PTR [rbp-0x29]
   140014dae:	48 8b 11             	mov    rdx,QWORD PTR [rcx]
   140014db1:	48 8b 42 70          	mov    rax,QWORD PTR [rdx+0x70]
   140014db5:	ff 15 55 d2 00 00    	call   QWORD PTR [rip+0xd255]        # 0x140022010
   140014dbb:	48 8b 4d cf          	mov    rcx,QWORD PTR [rbp-0x31]
   140014dbf:	48 8b 11             	mov    rdx,QWORD PTR [rcx]
   140014dc2:	48 8b 42 58          	mov    rax,QWORD PTR [rdx+0x58]
   140014dc6:	ff 15 44 d2 00 00    	call   QWORD PTR [rip+0xd244]        # 0x140022010
   140014dcc:	41 8b c6             	mov    eax,r14d
   140014dcf:	eb 02                	jmp    0x140014dd3
   140014dd1:	33 c0                	xor    eax,eax
   140014dd3:	48 81 c4 b0 00 00 00 	add    rsp,0xb0
   140014dda:	41 5e                	pop    r14
   140014ddc:	41 5d                	pop    r13
   140014dde:	41 5c                	pop    r12
   140014de0:	5f                   	pop    rdi
   140014de1:	5e                   	pop    rsi
   140014de2:	5b                   	pop    rbx
   140014de3:	5d                   	pop    rbp
   140014de4:	c3                   	ret    
   140014de5:	cc                   	int3   
   140014de6:	cc                   	int3   
   140014de7:	cc                   	int3   
   140014de8:	cc                   	int3   
   140014de9:	cc                   	int3   
   140014dea:	cc                   	int3   
   140014deb:	cc                   	int3   
   140014dec:	cc                   	int3   
   140014ded:	cc                   	int3   
   140014dee:	cc                   	int3   
   140014def:	cc                   	int3   
   140014df0:	cc                   	int3   
   140014df1:	cc                   	int3   
   140014df2:	cc                   	int3   
   140014df3:	cc                   	int3   
   140014df4:	cc                   	int3   
   140014df5:	cc                   	int3   
   140014df6:	cc                   	int3   
   140014df7:	cc                   	int3   
   140014df8:	cc                   	int3   
   140014df9:	cc                   	int3   
   140014dfa:	cc                   	int3   
   140014dfb:	cc                   	int3   
   140014dfc:	cc                   	int3   
   140014dfd:	cc                   	int3   
   140014dfe:	cc                   	int3   
   140014dff:	cc                   	int3   
   140014e00:	cc                   	int3   
   140014e01:	cc                   	int3   
   140014e02:	cc                   	int3   
   140014e03:	cc                   	int3   
   140014e04:	cc                   	int3   
   140014e05:	cc                   	int3   
   140014e06:	cc                   	int3   
   140014e07:	cc                   	int3   
   140014e08:	cc                   	int3   
   140014e09:	cc                   	int3   
   140014e0a:	cc                   	int3   
   140014e0b:	cc                   	int3   
   140014e0c:	cc                   	int3   
   140014e0d:	cc                   	int3   
   140014e0e:	cc                   	int3   
   140014e0f:	cc                   	int3   
   140014e10:	cc                   	int3   
   140014e11:	cc                   	int3   
   140014e12:	cc                   	int3   
   140014e13:	cc                   	int3   
   140014e14:	cc                   	int3   
   140014e15:	cc                   	int3   
   140014e16:	cc                   	int3   
   140014e17:	cc                   	int3   
   140014e18:	cc                   	int3   
   140014e19:	cc                   	int3   
   140014e1a:	cc                   	int3   
   140014e1b:	cc                   	int3   
   140014e1c:	cc                   	int3   
   140014e1d:	cc                   	int3   
   140014e1e:	cc                   	int3   
   140014e1f:	cc                   	int3   
   140014e20:	cc                   	int3   
   140014e21:	cc                   	int3   
   140014e22:	cc                   	int3   
   140014e23:	cc                   	int3   
   140014e24:	cc                   	int3   
   140014e25:	cc                   	int3   
   140014e26:	cc                   	int3   
   140014e27:	cc                   	int3   
   140014e28:	cc                   	int3   
   140014e29:	cc                   	int3   
   140014e2a:	cc                   	int3   
   140014e2b:	cc                   	int3   
   140014e2c:	cc                   	int3   
   140014e2d:	cc                   	int3   
   140014e2e:	cc                   	int3   
   140014e2f:	cc                   	int3   
   140014e30:	cc                   	int3   
   140014e31:	cc                   	int3   
   140014e32:	cc                   	int3   
   140014e33:	cc                   	int3   
   140014e34:	cc                   	int3   
   140014e35:	cc                   	int3   
   140014e36:	cc                   	int3   
   140014e37:	cc                   	int3   
   140014e38:	cc                   	int3   
   140014e39:	cc                   	int3   
   140014e3a:	cc                   	int3   
   140014e3b:	cc                   	int3   
   140014e3c:	cc                   	int3   
   140014e3d:	cc                   	int3   
   140014e3e:	cc                   	int3   
   140014e3f:	cc                   	int3   
   140014e40:	cc                   	int3   
   140014e41:	cc                   	int3   
   140014e42:	cc                   	int3   
   140014e43:	cc                   	int3   
   140014e44:	cc                   	int3   
   140014e45:	cc                   	int3   
   140014e46:	cc                   	int3   
   140014e47:	cc                   	int3   
   140014e48:	cc                   	int3   
   140014e49:	cc                   	int3   
   140014e4a:	cc                   	int3   
   140014e4b:	cc                   	int3   
   140014e4c:	cc                   	int3   
   140014e4d:	cc                   	int3   
   140014e4e:	cc                   	int3   
   140014e4f:	cc                   	int3   
   140014e50:	cc                   	int3   
   140014e51:	cc                   	int3   
   140014e52:	cc                   	int3   
   140014e53:	cc                   	int3   
   140014e54:	cc                   	int3   
   140014e55:	cc                   	int3   
   140014e56:	cc                   	int3   
   140014e57:	cc                   	int3   
   140014e58:	cc                   	int3   
   140014e59:	cc                   	int3   
   140014e5a:	cc                   	int3   
   140014e5b:	cc                   	int3   
   140014e5c:	cc                   	int3   
   140014e5d:	cc                   	int3   
   140014e5e:	cc                   	int3   
   140014e5f:	cc                   	int3   
   140014e60:	cc                   	int3   
   140014e61:	cc                   	int3   
   140014e62:	cc                   	int3   
   140014e63:	cc                   	int3   
   140014e64:	cc                   	int3   
   140014e65:	cc                   	int3   
   140014e66:	cc                   	int3   
   140014e67:	cc                   	int3   
   140014e68:	cc                   	int3   
   140014e69:	cc                   	int3   
   140014e6a:	cc                   	int3   
   140014e6b:	cc                   	int3   
   140014e6c:	cc                   	int3   
   140014e6d:	cc                   	int3   
   140014e6e:	cc                   	int3   
   140014e6f:	cc                   	int3   
   140014e70:	cc                   	int3   
   140014e71:	cc                   	int3   
   140014e72:	cc                   	int3   
   140014e73:	cc                   	int3   
   140014e74:	cc                   	int3   
   140014e75:	cc                   	int3   
   140014e76:	cc                   	int3   
   140014e77:	cc                   	int3   
   140014e78:	cc                   	int3   
   140014e79:	cc                   	int3   
   140014e7a:	cc                   	int3   
   140014e7b:	cc                   	int3   
   140014e7c:	cc                   	int3   
   140014e7d:	cc                   	int3   
   140014e7e:	cc                   	int3   
   140014e7f:	cc                   	int3   
   140014e80:	cc                   	int3   
   140014e81:	cc                   	int3   
   140014e82:	cc                   	int3   
   140014e83:	cc                   	int3   
   140014e84:	cc                   	int3   
   140014e85:	cc                   	int3   
   140014e86:	cc                   	int3   
   140014e87:	cc                   	int3   
   140014e88:	cc                   	int3   
   140014e89:	cc                   	int3   
   140014e8a:	cc                   	int3   
   140014e8b:	cc                   	int3   
   140014e8c:	cc                   	int3   
   140014e8d:	cc                   	int3   
   140014e8e:	cc                   	int3   
   140014e8f:	cc                   	int3   
   140014e90:	cc                   	int3   
   140014e91:	cc                   	int3   
   140014e92:	cc                   	int3   
   140014e93:	cc                   	int3   
   140014e94:	cc                   	int3   
   140014e95:	cc                   	int3   
   140014e96:	cc                   	int3   
   140014e97:	cc                   	int3   
   140014e98:	cc                   	int3   
   140014e99:	cc                   	int3   
   140014e9a:	cc                   	int3   
   140014e9b:	cc                   	int3   
   140014e9c:	cc                   	int3   
   140014e9d:	cc                   	int3   
   140014e9e:	cc                   	int3   
   140014e9f:	cc                   	int3   
   140014ea0:	cc                   	int3   
   140014ea1:	cc                   	int3   
   140014ea2:	cc                   	int3   
   140014ea3:	cc                   	int3   
   140014ea4:	cc                   	int3   
   140014ea5:	cc                   	int3   
   140014ea6:	cc                   	int3   
   140014ea7:	cc                   	int3   
   140014ea8:	cc                   	int3   
   140014ea9:	cc                   	int3   
   140014eaa:	cc                   	int3   
   140014eab:	cc                   	int3   
   140014eac:	cc                   	int3   
   140014ead:	cc                   	int3   
   140014eae:	cc                   	int3   
   140014eaf:	cc                   	int3   
   140014eb0:	cc                   	int3   
   140014eb1:	cc                   	int3   
   140014eb2:	cc                   	int3   
   140014eb3:	cc                   	int3   
   140014eb4:	cc                   	int3   
   140014eb5:	cc                   	int3   
   140014eb6:	cc                   	int3   
   140014eb7:	cc                   	int3   
   140014eb8:	cc                   	int3   
   140014eb9:	cc                   	int3   
   140014eba:	cc                   	int3   
   140014ebb:	cc                   	int3   
   140014ebc:	cc                   	int3   
   140014ebd:	cc                   	int3   
   140014ebe:	cc                   	int3   
   140014ebf:	cc                   	int3   
   140014ec0:	cc                   	int3   
   140014ec1:	cc                   	int3   
   140014ec2:	cc                   	int3   
   140014ec3:	cc                   	int3   
   140014ec4:	cc                   	int3   
   140014ec5:	cc                   	int3   
   140014ec6:	cc                   	int3   
   140014ec7:	cc                   	int3   
   140014ec8:	cc                   	int3   
   140014ec9:	cc                   	int3   
   140014eca:	cc                   	int3   
   140014ecb:	cc                   	int3   
   140014ecc:	cc                   	int3   
   140014ecd:	cc                   	int3   
   140014ece:	cc                   	int3   
   140014ecf:	cc                   	int3   
   140014ed0:	cc                   	int3   
   140014ed1:	cc                   	int3   
   140014ed2:	cc                   	int3   
   140014ed3:	cc                   	int3   
   140014ed4:	cc                   	int3   
   140014ed5:	cc                   	int3   
   140014ed6:	cc                   	int3   
   140014ed7:	cc                   	int3   
   140014ed8:	cc                   	int3   
   140014ed9:	cc                   	int3   
   140014eda:	cc                   	int3   
   140014edb:	cc                   	int3   
   140014edc:	cc                   	int3   
   140014edd:	cc                   	int3   
   140014ede:	cc                   	int3   
   140014edf:	cc                   	int3   
   140014ee0:	40 53                	rex push rbx
   140014ee2:	48 83 ec 50          	sub    rsp,0x50
   140014ee6:	48 8b 05 1b 71 00 00 	mov    rax,QWORD PTR [rip+0x711b]        # 0x14001c008
   140014eed:	48 33 c4             	xor    rax,rsp
   140014ef0:	48 89 44 24 40       	mov    QWORD PTR [rsp+0x40],rax
   140014ef5:	c7 44 24 30 00 00 00 	mov    DWORD PTR [rsp+0x30],0x0
   140014efc:	00 
   140014efd:	c7 44 24 34 00 00 00 	mov    DWORD PTR [rsp+0x34],0x0
   140014f04:	00 
   140014f05:	c7 44 24 38 00 00 00 	mov    DWORD PTR [rsp+0x38],0x0
   140014f0c:	00 
   140014f0d:	c7 05 25 71 00 00 02 	mov    DWORD PTR [rip+0x7125],0x2        # 0x14001c03c
   140014f14:	00 00 00 
   140014f17:	c7 05 17 71 00 00 01 	mov    DWORD PTR [rip+0x7117],0x1        # 0x14001c038
   140014f1e:	00 00 00 
   140014f21:	33 c0                	xor    eax,eax
   140014f23:	33 c9                	xor    ecx,ecx
   140014f25:	0f a2                	cpuid  
   140014f27:	4c 8d 44 24 20       	lea    r8,[rsp+0x20]
   140014f2c:	41 89 00             	mov    DWORD PTR [r8],eax
   140014f2f:	41 89 58 04          	mov    DWORD PTR [r8+0x4],ebx
   140014f33:	41 89 48 08          	mov    DWORD PTR [r8+0x8],ecx
   140014f37:	41 89 50 0c          	mov    DWORD PTR [r8+0xc],edx
   140014f3b:	b8 04 00 00 00       	mov    eax,0x4
   140014f40:	48 6b c0 00          	imul   rax,rax,0x0
   140014f44:	8b 44 04 20          	mov    eax,DWORD PTR [rsp+rax*1+0x20]
   140014f48:	89 44 24 14          	mov    DWORD PTR [rsp+0x14],eax
   140014f4c:	b8 04 00 00 00       	mov    eax,0x4
   140014f51:	48 6b c0 01          	imul   rax,rax,0x1
   140014f55:	8b 44 04 20          	mov    eax,DWORD PTR [rsp+rax*1+0x20]
   140014f59:	35 47 65 6e 75       	xor    eax,0x756e6547
   140014f5e:	b9 04 00 00 00       	mov    ecx,0x4
   140014f63:	48 6b c9 03          	imul   rcx,rcx,0x3
   140014f67:	8b 4c 0c 20          	mov    ecx,DWORD PTR [rsp+rcx*1+0x20]
   140014f6b:	81 f1 69 6e 65 49    	xor    ecx,0x49656e69
   140014f71:	0b c1                	or     eax,ecx
   140014f73:	b9 04 00 00 00       	mov    ecx,0x4
   140014f78:	48 6b c9 02          	imul   rcx,rcx,0x2
   140014f7c:	8b 4c 0c 20          	mov    ecx,DWORD PTR [rsp+rcx*1+0x20]
   140014f80:	81 f1 6e 74 65 6c    	xor    ecx,0x6c65746e
   140014f86:	0b c1                	or     eax,ecx
   140014f88:	85 c0                	test   eax,eax
   140014f8a:	75 0a                	jne    0x140014f96
   140014f8c:	c7 44 24 0c 01 00 00 	mov    DWORD PTR [rsp+0xc],0x1
   140014f93:	00 
   140014f94:	eb 08                	jmp    0x140014f9e
   140014f96:	c7 44 24 0c 00 00 00 	mov    DWORD PTR [rsp+0xc],0x0
   140014f9d:	00 
   140014f9e:	0f b6 44 24 0c       	movzx  eax,BYTE PTR [rsp+0xc]
   140014fa3:	88 04 24             	mov    BYTE PTR [rsp],al
   140014fa6:	b8 04 00 00 00       	mov    eax,0x4
   140014fab:	48 6b c0 01          	imul   rax,rax,0x1
   140014faf:	8b 44 04 20          	mov    eax,DWORD PTR [rsp+rax*1+0x20]
   140014fb3:	35 41 75 74 68       	xor    eax,0x68747541
   140014fb8:	b9 04 00 00 00       	mov    ecx,0x4
   140014fbd:	48 6b c9 03          	imul   rcx,rcx,0x3
   140014fc1:	8b 4c 0c 20          	mov    ecx,DWORD PTR [rsp+rcx*1+0x20]
   140014fc5:	81 f1 65 6e 74 69    	xor    ecx,0x69746e65
   140014fcb:	0b c1                	or     eax,ecx
   140014fcd:	b9 04 00 00 00       	mov    ecx,0x4
   140014fd2:	48 6b c9 02          	imul   rcx,rcx,0x2
   140014fd6:	8b 4c 0c 20          	mov    ecx,DWORD PTR [rsp+rcx*1+0x20]
   140014fda:	81 f1 63 41 4d 44    	xor    ecx,0x444d4163
   140014fe0:	0b c1                	or     eax,ecx
   140014fe2:	85 c0                	test   eax,eax
   140014fe4:	75 0a                	jne    0x140014ff0
   140014fe6:	c7 44 24 10 01 00 00 	mov    DWORD PTR [rsp+0x10],0x1
   140014fed:	00 
   140014fee:	eb 08                	jmp    0x140014ff8
   140014ff0:	c7 44 24 10 00 00 00 	mov    DWORD PTR [rsp+0x10],0x0
   140014ff7:	00 
   140014ff8:	0f b6 44 24 10       	movzx  eax,BYTE PTR [rsp+0x10]
   140014ffd:	88 44 24 08          	mov    BYTE PTR [rsp+0x8],al
   140015001:	b8 01 00 00 00       	mov    eax,0x1
   140015006:	33 c9                	xor    ecx,ecx
   140015008:	0f a2                	cpuid  
   14001500a:	4c 8d 44 24 20       	lea    r8,[rsp+0x20]
   14001500f:	41 89 00             	mov    DWORD PTR [r8],eax
   140015012:	41 89 58 04          	mov    DWORD PTR [r8+0x4],ebx
   140015016:	41 89 48 08          	mov    DWORD PTR [r8+0x8],ecx
   14001501a:	41 89 50 0c          	mov    DWORD PTR [r8+0xc],edx
   14001501e:	b8 04 00 00 00       	mov    eax,0x4
   140015023:	48 6b c0 00          	imul   rax,rax,0x0
   140015027:	8b 44 04 20          	mov    eax,DWORD PTR [rsp+rax*1+0x20]
   14001502b:	89 44 24 04          	mov    DWORD PTR [rsp+0x4],eax
   14001502f:	0f b6 04 24          	movzx  eax,BYTE PTR [rsp]
   140015033:	85 c0                	test   eax,eax
   140015035:	74 7a                	je     0x1400150b1
   140015037:	48 c7 05 fe 6f 00 00 	mov    QWORD PTR [rip+0x6ffe],0xffffffffffffffff        # 0x14001c040
   14001503e:	ff ff ff ff 
   140015042:	8b 44 24 04          	mov    eax,DWORD PTR [rsp+0x4]
   140015046:	25 f0 3f ff 0f       	and    eax,0xfff3ff0
   14001504b:	3d c0 06 01 00       	cmp    eax,0x106c0
   140015050:	74 50                	je     0x1400150a2
   140015052:	8b 44 24 04          	mov    eax,DWORD PTR [rsp+0x4]
   140015056:	25 f0 3f ff 0f       	and    eax,0xfff3ff0
   14001505b:	3d 60 06 02 00       	cmp    eax,0x20660
   140015060:	74 40                	je     0x1400150a2
   140015062:	8b 44 24 04          	mov    eax,DWORD PTR [rsp+0x4]
   140015066:	25 f0 3f ff 0f       	and    eax,0xfff3ff0
   14001506b:	3d 70 06 02 00       	cmp    eax,0x20670
   140015070:	74 30                	je     0x1400150a2
   140015072:	8b 44 24 04          	mov    eax,DWORD PTR [rsp+0x4]
   140015076:	25 f0 3f ff 0f       	and    eax,0xfff3ff0
   14001507b:	3d 50 06 03 00       	cmp    eax,0x30650
   140015080:	74 20                	je     0x1400150a2
   140015082:	8b 44 24 04          	mov    eax,DWORD PTR [rsp+0x4]
   140015086:	25 f0 3f ff 0f       	and    eax,0xfff3ff0
   14001508b:	3d 60 06 03 00       	cmp    eax,0x30660
   140015090:	74 10                	je     0x1400150a2
   140015092:	8b 44 24 04          	mov    eax,DWORD PTR [rsp+0x4]
   140015096:	25 f0 3f ff 0f       	and    eax,0xfff3ff0
   14001509b:	3d 70 06 03 00       	cmp    eax,0x30670
   1400150a0:	75 0f                	jne    0x1400150b1
   1400150a2:	8b 05 0c 78 00 00    	mov    eax,DWORD PTR [rip+0x780c]        # 0x14001c8b4
   1400150a8:	83 c8 01             	or     eax,0x1
   1400150ab:	89 05 03 78 00 00    	mov    DWORD PTR [rip+0x7803],eax        # 0x14001c8b4
   1400150b1:	b8 04 00 00 00       	mov    eax,0x4
   1400150b6:	48 6b c0 03          	imul   rax,rax,0x3
   1400150ba:	b9 04 00 00 00       	mov    ecx,0x4
   1400150bf:	48 6b c9 00          	imul   rcx,rcx,0x0
   1400150c3:	8b 44 04 20          	mov    eax,DWORD PTR [rsp+rax*1+0x20]
   1400150c7:	89 44 0c 30          	mov    DWORD PTR [rsp+rcx*1+0x30],eax
   1400150cb:	b8 04 00 00 00       	mov    eax,0x4
   1400150d0:	48 6b c0 02          	imul   rax,rax,0x2
   1400150d4:	b9 04 00 00 00       	mov    ecx,0x4
   1400150d9:	48 6b c9 01          	imul   rcx,rcx,0x1
   1400150dd:	8b 44 04 20          	mov    eax,DWORD PTR [rsp+rax*1+0x20]
   1400150e1:	89 44 0c 30          	mov    DWORD PTR [rsp+rcx*1+0x30],eax
   1400150e5:	83 7c 24 14 07       	cmp    DWORD PTR [rsp+0x14],0x7
   1400150ea:	7c 5c                	jl     0x140015148
   1400150ec:	b8 07 00 00 00       	mov    eax,0x7
   1400150f1:	33 c9                	xor    ecx,ecx
   1400150f3:	0f a2                	cpuid  
   1400150f5:	4c 8d 44 24 20       	lea    r8,[rsp+0x20]
   1400150fa:	41 89 00             	mov    DWORD PTR [r8],eax
   1400150fd:	41 89 58 04          	mov    DWORD PTR [r8+0x4],ebx
   140015101:	41 89 48 08          	mov    DWORD PTR [r8+0x8],ecx
   140015105:	41 89 50 0c          	mov    DWORD PTR [r8+0xc],edx
   140015109:	b8 04 00 00 00       	mov    eax,0x4
   14001510e:	48 6b c0 01          	imul   rax,rax,0x1
   140015112:	b9 04 00 00 00       	mov    ecx,0x4
   140015117:	48 6b c9 02          	imul   rcx,rcx,0x2
   14001511b:	8b 44 04 20          	mov    eax,DWORD PTR [rsp+rax*1+0x20]
   14001511f:	89 44 0c 30          	mov    DWORD PTR [rsp+rcx*1+0x30],eax
   140015123:	b8 04 00 00 00       	mov    eax,0x4
   140015128:	48 6b c0 01          	imul   rax,rax,0x1
   14001512c:	8b 44 04 20          	mov    eax,DWORD PTR [rsp+rax*1+0x20]
   140015130:	25 00 02 00 00       	and    eax,0x200
   140015135:	85 c0                	test   eax,eax
   140015137:	74 0f                	je     0x140015148
   140015139:	8b 05 75 77 00 00    	mov    eax,DWORD PTR [rip+0x7775]        # 0x14001c8b4
   14001513f:	83 c8 02             	or     eax,0x2
   140015142:	89 05 6c 77 00 00    	mov    DWORD PTR [rip+0x776c],eax        # 0x14001c8b4
   140015148:	b8 04 00 00 00       	mov    eax,0x4
   14001514d:	48 6b c0 01          	imul   rax,rax,0x1
   140015151:	8b 44 04 30          	mov    eax,DWORD PTR [rsp+rax*1+0x30]
   140015155:	25 00 00 10 00       	and    eax,0x100000
   14001515a:	85 c0                	test   eax,eax
   14001515c:	0f 84 ae 00 00 00    	je     0x140015210
   140015162:	c7 05 cc 6e 00 00 02 	mov    DWORD PTR [rip+0x6ecc],0x2        # 0x14001c038
   140015169:	00 00 00 
   14001516c:	8b 05 ca 6e 00 00    	mov    eax,DWORD PTR [rip+0x6eca]        # 0x14001c03c
   140015172:	83 c8 04             	or     eax,0x4
   140015175:	89 05 c1 6e 00 00    	mov    DWORD PTR [rip+0x6ec1],eax        # 0x14001c03c
   14001517b:	b8 04 00 00 00       	mov    eax,0x4
   140015180:	48 6b c0 01          	imul   rax,rax,0x1
   140015184:	8b 44 04 30          	mov    eax,DWORD PTR [rsp+rax*1+0x30]
   140015188:	25 00 00 00 08       	and    eax,0x8000000
   14001518d:	85 c0                	test   eax,eax
   14001518f:	74 7f                	je     0x140015210
   140015191:	b8 04 00 00 00       	mov    eax,0x4
   140015196:	48 6b c0 01          	imul   rax,rax,0x1
   14001519a:	8b 44 04 30          	mov    eax,DWORD PTR [rsp+rax*1+0x30]
   14001519e:	25 00 00 00 10       	and    eax,0x10000000
   1400151a3:	85 c0                	test   eax,eax
   1400151a5:	74 69                	je     0x140015210
   1400151a7:	33 c9                	xor    ecx,ecx
   1400151a9:	0f 01 d0             	xgetbv 
   1400151ac:	48 c1 e2 20          	shl    rdx,0x20
   1400151b0:	48 0b d0             	or     rdx,rax
   1400151b3:	48 8b c2             	mov    rax,rdx
   1400151b6:	48 89 44 24 18       	mov    QWORD PTR [rsp+0x18],rax
   1400151bb:	48 8b 44 24 18       	mov    rax,QWORD PTR [rsp+0x18]
   1400151c0:	48 83 e0 06          	and    rax,0x6
   1400151c4:	48 83 f8 06          	cmp    rax,0x6
   1400151c8:	75 46                	jne    0x140015210
   1400151ca:	c7 05 64 6e 00 00 03 	mov    DWORD PTR [rip+0x6e64],0x3        # 0x14001c038
   1400151d1:	00 00 00 
   1400151d4:	8b 05 62 6e 00 00    	mov    eax,DWORD PTR [rip+0x6e62]        # 0x14001c03c
   1400151da:	83 c8 08             	or     eax,0x8
   1400151dd:	89 05 59 6e 00 00    	mov    DWORD PTR [rip+0x6e59],eax        # 0x14001c03c
   1400151e3:	b8 04 00 00 00       	mov    eax,0x4
   1400151e8:	48 6b c0 02          	imul   rax,rax,0x2
   1400151ec:	8b 44 04 30          	mov    eax,DWORD PTR [rsp+rax*1+0x30]
   1400151f0:	83 e0 20             	and    eax,0x20
   1400151f3:	85 c0                	test   eax,eax
   1400151f5:	74 19                	je     0x140015210
   1400151f7:	c7 05 37 6e 00 00 05 	mov    DWORD PTR [rip+0x6e37],0x5        # 0x14001c038
   1400151fe:	00 00 00 
   140015201:	8b 05 35 6e 00 00    	mov    eax,DWORD PTR [rip+0x6e35]        # 0x14001c03c
   140015207:	83 c8 20             	or     eax,0x20
   14001520a:	89 05 2c 6e 00 00    	mov    DWORD PTR [rip+0x6e2c],eax        # 0x14001c03c
   140015210:	33 c0                	xor    eax,eax
   140015212:	48 8b 4c 24 40       	mov    rcx,QWORD PTR [rsp+0x40]
   140015217:	48 33 cc             	xor    rcx,rsp
   14001521a:	e8 b3 be ff ff       	call   0x1400110d2
   14001521f:	48 83 c4 50          	add    rsp,0x50
   140015223:	5b                   	pop    rbx
   140015224:	c3                   	ret    
   140015225:	cc                   	int3   
   140015226:	cc                   	int3   
   140015227:	cc                   	int3   
   140015228:	cc                   	int3   
   140015229:	cc                   	int3   
   14001522a:	cc                   	int3   
   14001522b:	cc                   	int3   
   14001522c:	cc                   	int3   
   14001522d:	cc                   	int3   
   14001522e:	cc                   	int3   
   14001522f:	cc                   	int3   
   140015230:	cc                   	int3   
   140015231:	cc                   	int3   
   140015232:	cc                   	int3   
   140015233:	cc                   	int3   
   140015234:	cc                   	int3   
   140015235:	cc                   	int3   
   140015236:	cc                   	int3   
   140015237:	cc                   	int3   
   140015238:	cc                   	int3   
   140015239:	cc                   	int3   
   14001523a:	cc                   	int3   
   14001523b:	cc                   	int3   
   14001523c:	cc                   	int3   
   14001523d:	cc                   	int3   
   14001523e:	cc                   	int3   
   14001523f:	cc                   	int3   
   140015240:	cc                   	int3   
   140015241:	cc                   	int3   
   140015242:	cc                   	int3   
   140015243:	cc                   	int3   
   140015244:	cc                   	int3   
   140015245:	cc                   	int3   
   140015246:	cc                   	int3   
   140015247:	cc                   	int3   
   140015248:	cc                   	int3   
   140015249:	cc                   	int3   
   14001524a:	cc                   	int3   
   14001524b:	cc                   	int3   
   14001524c:	cc                   	int3   
   14001524d:	cc                   	int3   
   14001524e:	cc                   	int3   
   14001524f:	cc                   	int3   
   140015250:	cc                   	int3   
   140015251:	cc                   	int3   
   140015252:	cc                   	int3   
   140015253:	cc                   	int3   
   140015254:	cc                   	int3   
   140015255:	cc                   	int3   
   140015256:	cc                   	int3   
   140015257:	cc                   	int3   
   140015258:	cc                   	int3   
   140015259:	cc                   	int3   
   14001525a:	cc                   	int3   
   14001525b:	cc                   	int3   
   14001525c:	cc                   	int3   
   14001525d:	cc                   	int3   
   14001525e:	cc                   	int3   
   14001525f:	cc                   	int3   
   140015260:	cc                   	int3   
   140015261:	cc                   	int3   
   140015262:	cc                   	int3   
   140015263:	cc                   	int3   
   140015264:	cc                   	int3   
   140015265:	cc                   	int3   
   140015266:	cc                   	int3   
   140015267:	cc                   	int3   
   140015268:	cc                   	int3   
   140015269:	cc                   	int3   
   14001526a:	cc                   	int3   
   14001526b:	cc                   	int3   
   14001526c:	cc                   	int3   
   14001526d:	cc                   	int3   
   14001526e:	cc                   	int3   
   14001526f:	cc                   	int3   
   140015270:	cc                   	int3   
   140015271:	cc                   	int3   
   140015272:	cc                   	int3   
   140015273:	cc                   	int3   
   140015274:	cc                   	int3   
   140015275:	cc                   	int3   
   140015276:	cc                   	int3   
   140015277:	cc                   	int3   
   140015278:	cc                   	int3   
   140015279:	cc                   	int3   
   14001527a:	cc                   	int3   
   14001527b:	cc                   	int3   
   14001527c:	cc                   	int3   
   14001527d:	cc                   	int3   
   14001527e:	cc                   	int3   
   14001527f:	cc                   	int3   
   140015280:	cc                   	int3   
   140015281:	cc                   	int3   
   140015282:	cc                   	int3   
   140015283:	cc                   	int3   
   140015284:	cc                   	int3   
   140015285:	cc                   	int3   
   140015286:	cc                   	int3   
   140015287:	cc                   	int3   
   140015288:	cc                   	int3   
   140015289:	cc                   	int3   
   14001528a:	cc                   	int3   
   14001528b:	cc                   	int3   
   14001528c:	cc                   	int3   
   14001528d:	cc                   	int3   
   14001528e:	cc                   	int3   
   14001528f:	cc                   	int3   
   140015290:	cc                   	int3   
   140015291:	cc                   	int3   
   140015292:	cc                   	int3   
   140015293:	cc                   	int3   
   140015294:	cc                   	int3   
   140015295:	cc                   	int3   
   140015296:	cc                   	int3   
   140015297:	cc                   	int3   
   140015298:	cc                   	int3   
   140015299:	cc                   	int3   
   14001529a:	cc                   	int3   
   14001529b:	cc                   	int3   
   14001529c:	cc                   	int3   
   14001529d:	cc                   	int3   
   14001529e:	cc                   	int3   
   14001529f:	cc                   	int3   
   1400152a0:	cc                   	int3   
   1400152a1:	cc                   	int3   
   1400152a2:	cc                   	int3   
   1400152a3:	cc                   	int3   
   1400152a4:	cc                   	int3   
   1400152a5:	cc                   	int3   
   1400152a6:	cc                   	int3   
   1400152a7:	cc                   	int3   
   1400152a8:	cc                   	int3   
   1400152a9:	cc                   	int3   
   1400152aa:	cc                   	int3   
   1400152ab:	cc                   	int3   
   1400152ac:	cc                   	int3   
   1400152ad:	cc                   	int3   
   1400152ae:	cc                   	int3   
   1400152af:	cc                   	int3   
   1400152b0:	cc                   	int3   
   1400152b1:	cc                   	int3   
   1400152b2:	cc                   	int3   
   1400152b3:	cc                   	int3   
   1400152b4:	cc                   	int3   
   1400152b5:	cc                   	int3   
   1400152b6:	cc                   	int3   
   1400152b7:	cc                   	int3   
   1400152b8:	cc                   	int3   
   1400152b9:	cc                   	int3   
   1400152ba:	cc                   	int3   
   1400152bb:	cc                   	int3   
   1400152bc:	cc                   	int3   
   1400152bd:	cc                   	int3   
   1400152be:	cc                   	int3   
   1400152bf:	cc                   	int3   
   1400152c0:	cc                   	int3   
   1400152c1:	cc                   	int3   
   1400152c2:	cc                   	int3   
   1400152c3:	cc                   	int3   
   1400152c4:	cc                   	int3   
   1400152c5:	cc                   	int3   
   1400152c6:	cc                   	int3   
   1400152c7:	cc                   	int3   
   1400152c8:	cc                   	int3   
   1400152c9:	cc                   	int3   
   1400152ca:	cc                   	int3   
   1400152cb:	cc                   	int3   
   1400152cc:	cc                   	int3   
   1400152cd:	cc                   	int3   
   1400152ce:	cc                   	int3   
   1400152cf:	cc                   	int3   
   1400152d0:	cc                   	int3   
   1400152d1:	cc                   	int3   
   1400152d2:	cc                   	int3   
   1400152d3:	cc                   	int3   
   1400152d4:	cc                   	int3   
   1400152d5:	cc                   	int3   
   1400152d6:	cc                   	int3   
   1400152d7:	cc                   	int3   
   1400152d8:	cc                   	int3   
   1400152d9:	cc                   	int3   
   1400152da:	cc                   	int3   
   1400152db:	cc                   	int3   
   1400152dc:	cc                   	int3   
   1400152dd:	cc                   	int3   
   1400152de:	cc                   	int3   
   1400152df:	cc                   	int3   
   1400152e0:	cc                   	int3   
   1400152e1:	cc                   	int3   
   1400152e2:	cc                   	int3   
   1400152e3:	cc                   	int3   
   1400152e4:	cc                   	int3   
   1400152e5:	cc                   	int3   
   1400152e6:	cc                   	int3   
   1400152e7:	cc                   	int3   
   1400152e8:	cc                   	int3   
   1400152e9:	cc                   	int3   
   1400152ea:	cc                   	int3   
   1400152eb:	cc                   	int3   
   1400152ec:	cc                   	int3   
   1400152ed:	cc                   	int3   
   1400152ee:	cc                   	int3   
   1400152ef:	cc                   	int3   
   1400152f0:	cc                   	int3   
   1400152f1:	cc                   	int3   
   1400152f2:	cc                   	int3   
   1400152f3:	cc                   	int3   
   1400152f4:	cc                   	int3   
   1400152f5:	cc                   	int3   
   1400152f6:	cc                   	int3   
   1400152f7:	cc                   	int3   
   1400152f8:	cc                   	int3   
   1400152f9:	cc                   	int3   
   1400152fa:	cc                   	int3   
   1400152fb:	cc                   	int3   
   1400152fc:	cc                   	int3   
   1400152fd:	cc                   	int3   
   1400152fe:	cc                   	int3   
   1400152ff:	cc                   	int3   
   140015300:	48 83 ec 18          	sub    rsp,0x18
   140015304:	83 3d 55 6d 00 00 00 	cmp    DWORD PTR [rip+0x6d55],0x0        # 0x14001c060
   14001530b:	74 09                	je     0x140015316
   14001530d:	c7 04 24 01 00 00 00 	mov    DWORD PTR [rsp],0x1
   140015314:	eb 07                	jmp    0x14001531d
   140015316:	c7 04 24 00 00 00 00 	mov    DWORD PTR [rsp],0x0
   14001531d:	8b 04 24             	mov    eax,DWORD PTR [rsp]
   140015320:	48 83 c4 18          	add    rsp,0x18
   140015324:	c3                   	ret    
   140015325:	cc                   	int3   
   140015326:	cc                   	int3   
   140015327:	cc                   	int3   
   140015328:	cc                   	int3   
   140015329:	cc                   	int3   
   14001532a:	cc                   	int3   
   14001532b:	cc                   	int3   
   14001532c:	cc                   	int3   
   14001532d:	cc                   	int3   
   14001532e:	cc                   	int3   
   14001532f:	cc                   	int3   
   140015330:	ff 25 42 ae 00 00    	jmp    QWORD PTR [rip+0xae42]        # 0x140020178
   140015336:	ff 25 24 ae 00 00    	jmp    QWORD PTR [rip+0xae24]        # 0x140020160
   14001533c:	ff 25 16 ae 00 00    	jmp    QWORD PTR [rip+0xae16]        # 0x140020158
   140015342:	ff 25 08 ae 00 00    	jmp    QWORD PTR [rip+0xae08]        # 0x140020150
   140015348:	ff 25 1a ae 00 00    	jmp    QWORD PTR [rip+0xae1a]        # 0x140020168
   14001534e:	ff 25 1c ae 00 00    	jmp    QWORD PTR [rip+0xae1c]        # 0x140020170
   140015354:	ff 25 96 af 00 00    	jmp    QWORD PTR [rip+0xaf96]        # 0x1400202f0
   14001535a:	ff 25 88 af 00 00    	jmp    QWORD PTR [rip+0xaf88]        # 0x1400202e8
   140015360:	ff 25 7a af 00 00    	jmp    QWORD PTR [rip+0xaf7a]        # 0x1400202e0
   140015366:	ff 25 6c af 00 00    	jmp    QWORD PTR [rip+0xaf6c]        # 0x1400202d8
   14001536c:	ff 25 5e af 00 00    	jmp    QWORD PTR [rip+0xaf5e]        # 0x1400202d0
   140015372:	ff 25 50 af 00 00    	jmp    QWORD PTR [rip+0xaf50]        # 0x1400202c8
   140015378:	ff 25 42 af 00 00    	jmp    QWORD PTR [rip+0xaf42]        # 0x1400202c0
   14001537e:	ff 25 34 af 00 00    	jmp    QWORD PTR [rip+0xaf34]        # 0x1400202b8
   140015384:	ff 25 26 af 00 00    	jmp    QWORD PTR [rip+0xaf26]        # 0x1400202b0
   14001538a:	ff 25 18 af 00 00    	jmp    QWORD PTR [rip+0xaf18]        # 0x1400202a8
   140015390:	ff 25 0a af 00 00    	jmp    QWORD PTR [rip+0xaf0a]        # 0x1400202a0
   140015396:	ff 25 fc ae 00 00    	jmp    QWORD PTR [rip+0xaefc]        # 0x140020298
   14001539c:	ff 25 ee ae 00 00    	jmp    QWORD PTR [rip+0xaeee]        # 0x140020290
   1400153a2:	ff 25 e0 ae 00 00    	jmp    QWORD PTR [rip+0xaee0]        # 0x140020288
   1400153a8:	ff 25 d2 ae 00 00    	jmp    QWORD PTR [rip+0xaed2]        # 0x140020280
   1400153ae:	ff 25 c4 ae 00 00    	jmp    QWORD PTR [rip+0xaec4]        # 0x140020278
   1400153b4:	ff 25 b6 ae 00 00    	jmp    QWORD PTR [rip+0xaeb6]        # 0x140020270
   1400153ba:	ff 25 a8 ae 00 00    	jmp    QWORD PTR [rip+0xaea8]        # 0x140020268
   1400153c0:	ff 25 9a ae 00 00    	jmp    QWORD PTR [rip+0xae9a]        # 0x140020260
   1400153c6:	ff 25 8c ae 00 00    	jmp    QWORD PTR [rip+0xae8c]        # 0x140020258
   1400153cc:	ff 25 7e ae 00 00    	jmp    QWORD PTR [rip+0xae7e]        # 0x140020250
   1400153d2:	ff 25 70 ae 00 00    	jmp    QWORD PTR [rip+0xae70]        # 0x140020248
   1400153d8:	ff 25 62 ae 00 00    	jmp    QWORD PTR [rip+0xae62]        # 0x140020240
   1400153de:	ff 25 54 ae 00 00    	jmp    QWORD PTR [rip+0xae54]        # 0x140020238
   1400153e4:	ff 25 46 ae 00 00    	jmp    QWORD PTR [rip+0xae46]        # 0x140020230
   1400153ea:	ff 25 f8 ad 00 00    	jmp    QWORD PTR [rip+0xadf8]        # 0x1400201e8
   1400153f0:	ff 25 32 ae 00 00    	jmp    QWORD PTR [rip+0xae32]        # 0x140020228
   1400153f6:	ff 25 e4 ad 00 00    	jmp    QWORD PTR [rip+0xade4]        # 0x1400201e0
   1400153fc:	ff 25 f6 ae 00 00    	jmp    QWORD PTR [rip+0xaef6]        # 0x1400202f8
   140015402:	ff 25 e8 ad 00 00    	jmp    QWORD PTR [rip+0xade8]        # 0x1400201f0
   140015408:	ff 25 ea ad 00 00    	jmp    QWORD PTR [rip+0xadea]        # 0x1400201f8
   14001540e:	ff 25 ec ad 00 00    	jmp    QWORD PTR [rip+0xadec]        # 0x140020200
   140015414:	ff 25 ee ad 00 00    	jmp    QWORD PTR [rip+0xadee]        # 0x140020208
   14001541a:	ff 25 f0 ad 00 00    	jmp    QWORD PTR [rip+0xadf0]        # 0x140020210
   140015420:	ff 25 f2 ad 00 00    	jmp    QWORD PTR [rip+0xadf2]        # 0x140020218
   140015426:	ff 25 f4 ad 00 00    	jmp    QWORD PTR [rip+0xadf4]        # 0x140020220
   14001542c:	ff 25 4e ac 00 00    	jmp    QWORD PTR [rip+0xac4e]        # 0x140020080
   140015432:	ff 25 d0 ab 00 00    	jmp    QWORD PTR [rip+0xabd0]        # 0x140020008
   140015438:	ff 25 d2 ab 00 00    	jmp    QWORD PTR [rip+0xabd2]        # 0x140020010
   14001543e:	ff 25 d4 ab 00 00    	jmp    QWORD PTR [rip+0xabd4]        # 0x140020018
   140015444:	ff 25 d6 ab 00 00    	jmp    QWORD PTR [rip+0xabd6]        # 0x140020020
   14001544a:	ff 25 d8 ab 00 00    	jmp    QWORD PTR [rip+0xabd8]        # 0x140020028
   140015450:	ff 25 72 ac 00 00    	jmp    QWORD PTR [rip+0xac72]        # 0x1400200c8
   140015456:	ff 25 64 ac 00 00    	jmp    QWORD PTR [rip+0xac64]        # 0x1400200c0
   14001545c:	ff 25 56 ac 00 00    	jmp    QWORD PTR [rip+0xac56]        # 0x1400200b8
   140015462:	ff 25 48 ac 00 00    	jmp    QWORD PTR [rip+0xac48]        # 0x1400200b0
   140015468:	ff 25 3a ac 00 00    	jmp    QWORD PTR [rip+0xac3a]        # 0x1400200a8
   14001546e:	ff 25 2c ac 00 00    	jmp    QWORD PTR [rip+0xac2c]        # 0x1400200a0
   140015474:	ff 25 1e ac 00 00    	jmp    QWORD PTR [rip+0xac1e]        # 0x140020098
   14001547a:	ff 25 10 ac 00 00    	jmp    QWORD PTR [rip+0xac10]        # 0x140020090
   140015480:	ff 25 02 ac 00 00    	jmp    QWORD PTR [rip+0xac02]        # 0x140020088
   140015486:	ff 25 74 ab 00 00    	jmp    QWORD PTR [rip+0xab74]        # 0x140020000
   14001548c:	ff 25 e6 ab 00 00    	jmp    QWORD PTR [rip+0xabe6]        # 0x140020078
   140015492:	ff 25 d8 ab 00 00    	jmp    QWORD PTR [rip+0xabd8]        # 0x140020070
   140015498:	ff 25 ca ab 00 00    	jmp    QWORD PTR [rip+0xabca]        # 0x140020068
   14001549e:	ff 25 bc ab 00 00    	jmp    QWORD PTR [rip+0xabbc]        # 0x140020060
   1400154a4:	ff 25 ae ab 00 00    	jmp    QWORD PTR [rip+0xabae]        # 0x140020058
   1400154aa:	ff 25 a0 ab 00 00    	jmp    QWORD PTR [rip+0xaba0]        # 0x140020050
   1400154b0:	ff 25 92 ab 00 00    	jmp    QWORD PTR [rip+0xab92]        # 0x140020048
   1400154b6:	ff 25 84 ab 00 00    	jmp    QWORD PTR [rip+0xab84]        # 0x140020040
   1400154bc:	ff 25 76 ab 00 00    	jmp    QWORD PTR [rip+0xab76]        # 0x140020038
   1400154c2:	ff 25 68 ab 00 00    	jmp    QWORD PTR [rip+0xab68]        # 0x140020030
   1400154c8:	cc                   	int3   
   1400154c9:	cc                   	int3   
   1400154ca:	cc                   	int3   
   1400154cb:	cc                   	int3   
   1400154cc:	cc                   	int3   
   1400154cd:	cc                   	int3   
   1400154ce:	cc                   	int3   
   1400154cf:	cc                   	int3   
   1400154d0:	b0 01                	mov    al,0x1
   1400154d2:	c3                   	ret    
   1400154d3:	cc                   	int3   
   1400154d4:	cc                   	int3   
   1400154d5:	cc                   	int3   
   1400154d6:	cc                   	int3   
   1400154d7:	cc                   	int3   
   1400154d8:	cc                   	int3   
   1400154d9:	cc                   	int3   
   1400154da:	cc                   	int3   
   1400154db:	cc                   	int3   
   1400154dc:	cc                   	int3   
   1400154dd:	cc                   	int3   
   1400154de:	cc                   	int3   
   1400154df:	cc                   	int3   
   1400154e0:	b0 01                	mov    al,0x1
   1400154e2:	c3                   	ret    
   1400154e3:	cc                   	int3   
   1400154e4:	cc                   	int3   
   1400154e5:	cc                   	int3   
   1400154e6:	cc                   	int3   
   1400154e7:	cc                   	int3   
   1400154e8:	cc                   	int3   
   1400154e9:	cc                   	int3   
   1400154ea:	cc                   	int3   
   1400154eb:	cc                   	int3   
   1400154ec:	cc                   	int3   
   1400154ed:	cc                   	int3   
   1400154ee:	cc                   	int3   
   1400154ef:	cc                   	int3   
   1400154f0:	b0 01                	mov    al,0x1
   1400154f2:	c3                   	ret    
   1400154f3:	cc                   	int3   
   1400154f4:	cc                   	int3   
   1400154f5:	cc                   	int3   
   1400154f6:	cc                   	int3   
   1400154f7:	cc                   	int3   
   1400154f8:	cc                   	int3   
   1400154f9:	cc                   	int3   
   1400154fa:	cc                   	int3   
   1400154fb:	cc                   	int3   
   1400154fc:	cc                   	int3   
   1400154fd:	cc                   	int3   
   1400154fe:	cc                   	int3   
   1400154ff:	cc                   	int3   
   140015500:	88 4c 24 08          	mov    BYTE PTR [rsp+0x8],cl
   140015504:	b0 01                	mov    al,0x1
   140015506:	c3                   	ret    
   140015507:	cc                   	int3   
   140015508:	cc                   	int3   
   140015509:	cc                   	int3   
   14001550a:	cc                   	int3   
   14001550b:	cc                   	int3   
   14001550c:	cc                   	int3   
   14001550d:	cc                   	int3   
   14001550e:	cc                   	int3   
   14001550f:	cc                   	int3   
   140015510:	88 4c 24 08          	mov    BYTE PTR [rsp+0x8],cl
   140015514:	b0 01                	mov    al,0x1
   140015516:	c3                   	ret    
   140015517:	cc                   	int3   
   140015518:	cc                   	int3   
   140015519:	cc                   	int3   
   14001551a:	cc                   	int3   
   14001551b:	cc                   	int3   
   14001551c:	cc                   	int3   
   14001551d:	cc                   	int3   
   14001551e:	cc                   	int3   
   14001551f:	cc                   	int3   
   140015520:	33 c0                	xor    eax,eax
   140015522:	c3                   	ret    
   140015523:	cc                   	int3   
   140015524:	cc                   	int3   
   140015525:	cc                   	int3   
   140015526:	cc                   	int3   
   140015527:	cc                   	int3   
   140015528:	cc                   	int3   
   140015529:	cc                   	int3   
   14001552a:	cc                   	int3   
   14001552b:	cc                   	int3   
   14001552c:	cc                   	int3   
   14001552d:	cc                   	int3   
   14001552e:	cc                   	int3   
   14001552f:	cc                   	int3   
   140015530:	cc                   	int3   
   140015531:	cc                   	int3   
   140015532:	cc                   	int3   
   140015533:	cc                   	int3   
   140015534:	cc                   	int3   
   140015535:	cc                   	int3   
   140015536:	cc                   	int3   
   140015537:	cc                   	int3   
   140015538:	cc                   	int3   
   140015539:	cc                   	int3   
   14001553a:	cc                   	int3   
   14001553b:	cc                   	int3   
   14001553c:	cc                   	int3   
   14001553d:	cc                   	int3   
   14001553e:	cc                   	int3   
   14001553f:	cc                   	int3   
   140015540:	cc                   	int3   
   140015541:	cc                   	int3   
   140015542:	cc                   	int3   
   140015543:	cc                   	int3   
   140015544:	cc                   	int3   
   140015545:	cc                   	int3   
   140015546:	cc                   	int3   
   140015547:	cc                   	int3   
   140015548:	cc                   	int3   
   140015549:	cc                   	int3   
   14001554a:	cc                   	int3   
   14001554b:	cc                   	int3   
   14001554c:	cc                   	int3   
   14001554d:	cc                   	int3   
   14001554e:	cc                   	int3   
   14001554f:	cc                   	int3   
   140015550:	cc                   	int3   
   140015551:	cc                   	int3   
   140015552:	cc                   	int3   
   140015553:	cc                   	int3   
   140015554:	cc                   	int3   
   140015555:	cc                   	int3   
   140015556:	cc                   	int3   
   140015557:	cc                   	int3   
   140015558:	cc                   	int3   
   140015559:	cc                   	int3   
   14001555a:	cc                   	int3   
   14001555b:	cc                   	int3   
   14001555c:	cc                   	int3   
   14001555d:	cc                   	int3   
   14001555e:	cc                   	int3   
   14001555f:	cc                   	int3   
   140015560:	cc                   	int3   
   140015561:	cc                   	int3   
   140015562:	cc                   	int3   
   140015563:	cc                   	int3   
   140015564:	cc                   	int3   
   140015565:	cc                   	int3   
   140015566:	cc                   	int3   
   140015567:	cc                   	int3   
   140015568:	cc                   	int3   
   140015569:	cc                   	int3   
   14001556a:	cc                   	int3   
   14001556b:	cc                   	int3   
   14001556c:	cc                   	int3   
   14001556d:	cc                   	int3   
   14001556e:	cc                   	int3   
   14001556f:	cc                   	int3   
   140015570:	cc                   	int3   
   140015571:	cc                   	int3   
   140015572:	cc                   	int3   
   140015573:	cc                   	int3   
   140015574:	cc                   	int3   
   140015575:	cc                   	int3   
   140015576:	cc                   	int3   
   140015577:	cc                   	int3   
   140015578:	cc                   	int3   
   140015579:	cc                   	int3   
   14001557a:	cc                   	int3   
   14001557b:	cc                   	int3   
   14001557c:	cc                   	int3   
   14001557d:	cc                   	int3   
   14001557e:	cc                   	int3   
   14001557f:	cc                   	int3   
   140015580:	cc                   	int3   
   140015581:	cc                   	int3   
   140015582:	cc                   	int3   
   140015583:	cc                   	int3   
   140015584:	cc                   	int3   
   140015585:	cc                   	int3   
   140015586:	cc                   	int3   
   140015587:	cc                   	int3   
   140015588:	cc                   	int3   
   140015589:	cc                   	int3   
   14001558a:	cc                   	int3   
   14001558b:	cc                   	int3   
   14001558c:	cc                   	int3   
   14001558d:	cc                   	int3   
   14001558e:	cc                   	int3   
   14001558f:	cc                   	int3   
   140015590:	cc                   	int3   
   140015591:	cc                   	int3   
   140015592:	cc                   	int3   
   140015593:	cc                   	int3   
   140015594:	cc                   	int3   
   140015595:	cc                   	int3   
   140015596:	cc                   	int3   
   140015597:	cc                   	int3   
   140015598:	cc                   	int3   
   140015599:	cc                   	int3   
   14001559a:	cc                   	int3   
   14001559b:	cc                   	int3   
   14001559c:	cc                   	int3   
   14001559d:	cc                   	int3   
   14001559e:	cc                   	int3   
   14001559f:	cc                   	int3   
   1400155a0:	cc                   	int3   
   1400155a1:	cc                   	int3   
   1400155a2:	cc                   	int3   
   1400155a3:	cc                   	int3   
   1400155a4:	cc                   	int3   
   1400155a5:	cc                   	int3   
   1400155a6:	cc                   	int3   
   1400155a7:	cc                   	int3   
   1400155a8:	cc                   	int3   
   1400155a9:	cc                   	int3   
   1400155aa:	cc                   	int3   
   1400155ab:	cc                   	int3   
   1400155ac:	cc                   	int3   
   1400155ad:	cc                   	int3   
   1400155ae:	cc                   	int3   
   1400155af:	cc                   	int3   
   1400155b0:	cc                   	int3   
   1400155b1:	cc                   	int3   
   1400155b2:	cc                   	int3   
   1400155b3:	cc                   	int3   
   1400155b4:	cc                   	int3   
   1400155b5:	cc                   	int3   
   1400155b6:	cc                   	int3   
   1400155b7:	cc                   	int3   
   1400155b8:	cc                   	int3   
   1400155b9:	cc                   	int3   
   1400155ba:	cc                   	int3   
   1400155bb:	cc                   	int3   
   1400155bc:	cc                   	int3   
   1400155bd:	cc                   	int3   
   1400155be:	cc                   	int3   
   1400155bf:	cc                   	int3   
   1400155c0:	cc                   	int3   
   1400155c1:	cc                   	int3   
   1400155c2:	cc                   	int3   
   1400155c3:	cc                   	int3   
   1400155c4:	cc                   	int3   
   1400155c5:	cc                   	int3   
   1400155c6:	cc                   	int3   
   1400155c7:	cc                   	int3   
   1400155c8:	cc                   	int3   
   1400155c9:	cc                   	int3   
   1400155ca:	cc                   	int3   
   1400155cb:	cc                   	int3   
   1400155cc:	cc                   	int3   
   1400155cd:	cc                   	int3   
   1400155ce:	cc                   	int3   
   1400155cf:	cc                   	int3   
   1400155d0:	cc                   	int3   
   1400155d1:	cc                   	int3   
   1400155d2:	cc                   	int3   
   1400155d3:	cc                   	int3   
   1400155d4:	cc                   	int3   
   1400155d5:	cc                   	int3   
   1400155d6:	cc                   	int3   
   1400155d7:	cc                   	int3   
   1400155d8:	cc                   	int3   
   1400155d9:	cc                   	int3   
   1400155da:	cc                   	int3   
   1400155db:	cc                   	int3   
   1400155dc:	cc                   	int3   
   1400155dd:	cc                   	int3   
   1400155de:	cc                   	int3   
   1400155df:	cc                   	int3   
   1400155e0:	cc                   	int3   
   1400155e1:	cc                   	int3   
   1400155e2:	cc                   	int3   
   1400155e3:	cc                   	int3   
   1400155e4:	cc                   	int3   
   1400155e5:	cc                   	int3   
   1400155e6:	cc                   	int3   
   1400155e7:	cc                   	int3   
   1400155e8:	cc                   	int3   
   1400155e9:	cc                   	int3   
   1400155ea:	cc                   	int3   
   1400155eb:	cc                   	int3   
   1400155ec:	cc                   	int3   
   1400155ed:	cc                   	int3   
   1400155ee:	cc                   	int3   
   1400155ef:	cc                   	int3   
   1400155f0:	cc                   	int3   
   1400155f1:	cc                   	int3   
   1400155f2:	cc                   	int3   
   1400155f3:	cc                   	int3   
   1400155f4:	cc                   	int3   
   1400155f5:	cc                   	int3   
   1400155f6:	cc                   	int3   
   1400155f7:	cc                   	int3   
   1400155f8:	cc                   	int3   
   1400155f9:	cc                   	int3   
   1400155fa:	cc                   	int3   
   1400155fb:	cc                   	int3   
   1400155fc:	cc                   	int3   
   1400155fd:	cc                   	int3   
   1400155fe:	cc                   	int3   
   1400155ff:	cc                   	int3   
   140015600:	cc                   	int3   
   140015601:	cc                   	int3   
   140015602:	cc                   	int3   
   140015603:	cc                   	int3   
   140015604:	cc                   	int3   
   140015605:	cc                   	int3   
   140015606:	cc                   	int3   
   140015607:	cc                   	int3   
   140015608:	cc                   	int3   
   140015609:	cc                   	int3   
   14001560a:	cc                   	int3   
   14001560b:	cc                   	int3   
   14001560c:	cc                   	int3   
   14001560d:	cc                   	int3   
   14001560e:	cc                   	int3   
   14001560f:	cc                   	int3   
   140015610:	cc                   	int3   
   140015611:	cc                   	int3   
   140015612:	cc                   	int3   
   140015613:	cc                   	int3   
   140015614:	cc                   	int3   
   140015615:	cc                   	int3   
   140015616:	cc                   	int3   
   140015617:	cc                   	int3   
   140015618:	cc                   	int3   
   140015619:	cc                   	int3   
   14001561a:	cc                   	int3   
   14001561b:	cc                   	int3   
   14001561c:	cc                   	int3   
   14001561d:	cc                   	int3   
   14001561e:	cc                   	int3   
   14001561f:	cc                   	int3   
   140015620:	cc                   	int3   
   140015621:	cc                   	int3   
   140015622:	cc                   	int3   
   140015623:	cc                   	int3   
   140015624:	cc                   	int3   
   140015625:	cc                   	int3   
   140015626:	cc                   	int3   
   140015627:	cc                   	int3   
   140015628:	cc                   	int3   
   140015629:	cc                   	int3   
   14001562a:	cc                   	int3   
   14001562b:	cc                   	int3   
   14001562c:	cc                   	int3   
   14001562d:	cc                   	int3   
   14001562e:	cc                   	int3   
   14001562f:	cc                   	int3   
   140015630:	cc                   	int3   
   140015631:	cc                   	int3   
   140015632:	cc                   	int3   
   140015633:	cc                   	int3   
   140015634:	cc                   	int3   
   140015635:	cc                   	int3   
   140015636:	cc                   	int3   
   140015637:	cc                   	int3   
   140015638:	cc                   	int3   
   140015639:	cc                   	int3   
   14001563a:	cc                   	int3   
   14001563b:	cc                   	int3   
   14001563c:	cc                   	int3   
   14001563d:	cc                   	int3   
   14001563e:	cc                   	int3   
   14001563f:	cc                   	int3   
   140015640:	cc                   	int3   
   140015641:	cc                   	int3   
   140015642:	cc                   	int3   
   140015643:	cc                   	int3   
   140015644:	cc                   	int3   
   140015645:	cc                   	int3   
   140015646:	cc                   	int3   
   140015647:	cc                   	int3   
   140015648:	cc                   	int3   
   140015649:	cc                   	int3   
   14001564a:	cc                   	int3   
   14001564b:	cc                   	int3   
   14001564c:	cc                   	int3   
   14001564d:	cc                   	int3   
   14001564e:	cc                   	int3   
   14001564f:	cc                   	int3   
   140015650:	cc                   	int3   
   140015651:	cc                   	int3   
   140015652:	cc                   	int3   
   140015653:	cc                   	int3   
   140015654:	cc                   	int3   
   140015655:	cc                   	int3   
   140015656:	cc                   	int3   
   140015657:	cc                   	int3   
   140015658:	cc                   	int3   
   140015659:	cc                   	int3   
   14001565a:	cc                   	int3   
   14001565b:	cc                   	int3   
   14001565c:	cc                   	int3   
   14001565d:	cc                   	int3   
   14001565e:	cc                   	int3   
   14001565f:	cc                   	int3   
   140015660:	cc                   	int3   
   140015661:	cc                   	int3   
   140015662:	cc                   	int3   
   140015663:	cc                   	int3   
   140015664:	cc                   	int3   
   140015665:	cc                   	int3   
   140015666:	cc                   	int3   
   140015667:	cc                   	int3   
   140015668:	cc                   	int3   
   140015669:	cc                   	int3   
   14001566a:	cc                   	int3   
   14001566b:	cc                   	int3   
   14001566c:	cc                   	int3   
   14001566d:	cc                   	int3   
   14001566e:	cc                   	int3   
   14001566f:	cc                   	int3   
   140015670:	cc                   	int3   
   140015671:	cc                   	int3   
   140015672:	cc                   	int3   
   140015673:	cc                   	int3   
   140015674:	cc                   	int3   
   140015675:	cc                   	int3   
   140015676:	cc                   	int3   
   140015677:	cc                   	int3   
   140015678:	cc                   	int3   
   140015679:	cc                   	int3   
   14001567a:	cc                   	int3   
   14001567b:	cc                   	int3   
   14001567c:	cc                   	int3   
   14001567d:	cc                   	int3   
   14001567e:	cc                   	int3   
   14001567f:	cc                   	int3   
   140015680:	cc                   	int3   
   140015681:	cc                   	int3   
   140015682:	cc                   	int3   
   140015683:	cc                   	int3   
   140015684:	cc                   	int3   
   140015685:	cc                   	int3   
   140015686:	cc                   	int3   
   140015687:	cc                   	int3   
   140015688:	cc                   	int3   
   140015689:	cc                   	int3   
   14001568a:	cc                   	int3   
   14001568b:	cc                   	int3   
   14001568c:	cc                   	int3   
   14001568d:	cc                   	int3   
   14001568e:	cc                   	int3   
   14001568f:	cc                   	int3   
   140015690:	cc                   	int3   
   140015691:	cc                   	int3   
   140015692:	cc                   	int3   
   140015693:	cc                   	int3   
   140015694:	cc                   	int3   
   140015695:	cc                   	int3   
   140015696:	cc                   	int3   
   140015697:	cc                   	int3   
   140015698:	cc                   	int3   
   140015699:	cc                   	int3   
   14001569a:	cc                   	int3   
   14001569b:	cc                   	int3   
   14001569c:	cc                   	int3   
   14001569d:	cc                   	int3   
   14001569e:	cc                   	int3   
   14001569f:	cc                   	int3   
   1400156a0:	cc                   	int3   
   1400156a1:	cc                   	int3   
   1400156a2:	cc                   	int3   
   1400156a3:	cc                   	int3   
   1400156a4:	cc                   	int3   
   1400156a5:	cc                   	int3   
   1400156a6:	cc                   	int3   
   1400156a7:	cc                   	int3   
   1400156a8:	cc                   	int3   
   1400156a9:	cc                   	int3   
   1400156aa:	cc                   	int3   
   1400156ab:	cc                   	int3   
   1400156ac:	cc                   	int3   
   1400156ad:	cc                   	int3   
   1400156ae:	cc                   	int3   
   1400156af:	cc                   	int3   
   1400156b0:	cc                   	int3   
   1400156b1:	cc                   	int3   
   1400156b2:	cc                   	int3   
   1400156b3:	cc                   	int3   
   1400156b4:	cc                   	int3   
   1400156b5:	cc                   	int3   
   1400156b6:	cc                   	int3   
   1400156b7:	cc                   	int3   
   1400156b8:	cc                   	int3   
   1400156b9:	cc                   	int3   
   1400156ba:	cc                   	int3   
   1400156bb:	cc                   	int3   
   1400156bc:	cc                   	int3   
   1400156bd:	cc                   	int3   
   1400156be:	cc                   	int3   
   1400156bf:	cc                   	int3   
   1400156c0:	cc                   	int3   
   1400156c1:	cc                   	int3   
   1400156c2:	cc                   	int3   
   1400156c3:	cc                   	int3   
   1400156c4:	cc                   	int3   
   1400156c5:	cc                   	int3   
   1400156c6:	cc                   	int3   
   1400156c7:	cc                   	int3   
   1400156c8:	cc                   	int3   
   1400156c9:	cc                   	int3   
   1400156ca:	cc                   	int3   
   1400156cb:	cc                   	int3   
   1400156cc:	cc                   	int3   
   1400156cd:	cc                   	int3   
   1400156ce:	cc                   	int3   
   1400156cf:	cc                   	int3   
   1400156d0:	cc                   	int3   
   1400156d1:	cc                   	int3   
   1400156d2:	cc                   	int3   
   1400156d3:	cc                   	int3   
   1400156d4:	cc                   	int3   
   1400156d5:	cc                   	int3   
   1400156d6:	cc                   	int3   
   1400156d7:	cc                   	int3   
   1400156d8:	cc                   	int3   
   1400156d9:	cc                   	int3   
   1400156da:	cc                   	int3   
   1400156db:	cc                   	int3   
   1400156dc:	cc                   	int3   
   1400156dd:	cc                   	int3   
   1400156de:	cc                   	int3   
   1400156df:	cc                   	int3   
   1400156e0:	cc                   	int3   
   1400156e1:	cc                   	int3   
   1400156e2:	cc                   	int3   
   1400156e3:	cc                   	int3   
   1400156e4:	cc                   	int3   
   1400156e5:	cc                   	int3   
   1400156e6:	cc                   	int3   
   1400156e7:	cc                   	int3   
   1400156e8:	cc                   	int3   
   1400156e9:	cc                   	int3   
   1400156ea:	cc                   	int3   
   1400156eb:	cc                   	int3   
   1400156ec:	cc                   	int3   
   1400156ed:	cc                   	int3   
   1400156ee:	cc                   	int3   
   1400156ef:	cc                   	int3   
   1400156f0:	cc                   	int3   
   1400156f1:	cc                   	int3   
   1400156f2:	cc                   	int3   
   1400156f3:	cc                   	int3   
   1400156f4:	cc                   	int3   
   1400156f5:	cc                   	int3   
   1400156f6:	cc                   	int3   
   1400156f7:	cc                   	int3   
   1400156f8:	cc                   	int3   
   1400156f9:	cc                   	int3   
   1400156fa:	cc                   	int3   
   1400156fb:	cc                   	int3   
   1400156fc:	cc                   	int3   
   1400156fd:	cc                   	int3   
   1400156fe:	cc                   	int3   
   1400156ff:	cc                   	int3   
   140015700:	cc                   	int3   
   140015701:	cc                   	int3   
   140015702:	cc                   	int3   
   140015703:	cc                   	int3   
   140015704:	cc                   	int3   
   140015705:	cc                   	int3   
   140015706:	cc                   	int3   
   140015707:	cc                   	int3   
   140015708:	cc                   	int3   
   140015709:	cc                   	int3   
   14001570a:	cc                   	int3   
   14001570b:	cc                   	int3   
   14001570c:	cc                   	int3   
   14001570d:	cc                   	int3   
   14001570e:	cc                   	int3   
   14001570f:	cc                   	int3   
   140015710:	cc                   	int3   
   140015711:	cc                   	int3   
   140015712:	cc                   	int3   
   140015713:	cc                   	int3   
   140015714:	cc                   	int3   
   140015715:	cc                   	int3   
   140015716:	cc                   	int3   
   140015717:	cc                   	int3   
   140015718:	cc                   	int3   
   140015719:	cc                   	int3   
   14001571a:	cc                   	int3   
   14001571b:	cc                   	int3   
   14001571c:	cc                   	int3   
   14001571d:	cc                   	int3   
   14001571e:	cc                   	int3   
   14001571f:	cc                   	int3   
   140015720:	cc                   	int3   
   140015721:	cc                   	int3   
   140015722:	cc                   	int3   
   140015723:	cc                   	int3   
   140015724:	cc                   	int3   
   140015725:	cc                   	int3   
   140015726:	cc                   	int3   
   140015727:	cc                   	int3   
   140015728:	cc                   	int3   
   140015729:	cc                   	int3   
   14001572a:	cc                   	int3   
   14001572b:	cc                   	int3   
   14001572c:	cc                   	int3   
   14001572d:	cc                   	int3   
   14001572e:	cc                   	int3   
   14001572f:	cc                   	int3   
   140015730:	cc                   	int3   
   140015731:	cc                   	int3   
   140015732:	cc                   	int3   
   140015733:	cc                   	int3   
   140015734:	cc                   	int3   
   140015735:	cc                   	int3   
   140015736:	cc                   	int3   
   140015737:	cc                   	int3   
   140015738:	cc                   	int3   
   140015739:	cc                   	int3   
   14001573a:	cc                   	int3   
   14001573b:	cc                   	int3   
   14001573c:	cc                   	int3   
   14001573d:	cc                   	int3   
   14001573e:	cc                   	int3   
   14001573f:	cc                   	int3   
   140015740:	cc                   	int3   
   140015741:	cc                   	int3   
   140015742:	cc                   	int3   
   140015743:	cc                   	int3   
   140015744:	cc                   	int3   
   140015745:	cc                   	int3   
   140015746:	cc                   	int3   
   140015747:	cc                   	int3   
   140015748:	cc                   	int3   
   140015749:	cc                   	int3   
   14001574a:	cc                   	int3   
   14001574b:	cc                   	int3   
   14001574c:	cc                   	int3   
   14001574d:	cc                   	int3   
   14001574e:	cc                   	int3   
   14001574f:	cc                   	int3   
   140015750:	cc                   	int3   
   140015751:	cc                   	int3   
   140015752:	cc                   	int3   
   140015753:	cc                   	int3   
   140015754:	cc                   	int3   
   140015755:	cc                   	int3   
   140015756:	cc                   	int3   
   140015757:	cc                   	int3   
   140015758:	cc                   	int3   
   140015759:	cc                   	int3   
   14001575a:	cc                   	int3   
   14001575b:	cc                   	int3   
   14001575c:	cc                   	int3   
   14001575d:	cc                   	int3   
   14001575e:	cc                   	int3   
   14001575f:	cc                   	int3   
   140015760:	cc                   	int3   
   140015761:	cc                   	int3   
   140015762:	cc                   	int3   
   140015763:	cc                   	int3   
   140015764:	cc                   	int3   
   140015765:	cc                   	int3   
   140015766:	cc                   	int3   
   140015767:	cc                   	int3   
   140015768:	cc                   	int3   
   140015769:	cc                   	int3   
   14001576a:	cc                   	int3   
   14001576b:	cc                   	int3   
   14001576c:	cc                   	int3   
   14001576d:	cc                   	int3   
   14001576e:	cc                   	int3   
   14001576f:	cc                   	int3   
   140015770:	cc                   	int3   
   140015771:	cc                   	int3   
   140015772:	cc                   	int3   
   140015773:	cc                   	int3   
   140015774:	cc                   	int3   
   140015775:	cc                   	int3   
   140015776:	cc                   	int3   
   140015777:	cc                   	int3   
   140015778:	cc                   	int3   
   140015779:	cc                   	int3   
   14001577a:	cc                   	int3   
   14001577b:	cc                   	int3   
   14001577c:	cc                   	int3   
   14001577d:	cc                   	int3   
   14001577e:	cc                   	int3   
   14001577f:	cc                   	int3   
   140015780:	cc                   	int3   
   140015781:	cc                   	int3   
   140015782:	cc                   	int3   
   140015783:	cc                   	int3   
   140015784:	cc                   	int3   
   140015785:	cc                   	int3   
   140015786:	cc                   	int3   
   140015787:	cc                   	int3   
   140015788:	cc                   	int3   
   140015789:	cc                   	int3   
   14001578a:	cc                   	int3   
   14001578b:	cc                   	int3   
   14001578c:	cc                   	int3   
   14001578d:	cc                   	int3   
   14001578e:	cc                   	int3   
   14001578f:	cc                   	int3   
   140015790:	cc                   	int3   
   140015791:	cc                   	int3   
   140015792:	cc                   	int3   
   140015793:	cc                   	int3   
   140015794:	cc                   	int3   
   140015795:	cc                   	int3   
   140015796:	cc                   	int3   
   140015797:	cc                   	int3   
   140015798:	cc                   	int3   
   140015799:	cc                   	int3   
   14001579a:	cc                   	int3   
   14001579b:	cc                   	int3   
   14001579c:	cc                   	int3   
   14001579d:	cc                   	int3   
   14001579e:	cc                   	int3   
   14001579f:	cc                   	int3   
   1400157a0:	cc                   	int3   
   1400157a1:	cc                   	int3   
   1400157a2:	cc                   	int3   
   1400157a3:	cc                   	int3   
   1400157a4:	cc                   	int3   
   1400157a5:	cc                   	int3   
   1400157a6:	cc                   	int3   
   1400157a7:	cc                   	int3   
   1400157a8:	cc                   	int3   
   1400157a9:	cc                   	int3   
   1400157aa:	cc                   	int3   
   1400157ab:	cc                   	int3   
   1400157ac:	cc                   	int3   
   1400157ad:	cc                   	int3   
   1400157ae:	cc                   	int3   
   1400157af:	cc                   	int3   
   1400157b0:	cc                   	int3   
   1400157b1:	cc                   	int3   
   1400157b2:	cc                   	int3   
   1400157b3:	cc                   	int3   
   1400157b4:	cc                   	int3   
   1400157b5:	cc                   	int3   
   1400157b6:	cc                   	int3   
   1400157b7:	cc                   	int3   
   1400157b8:	cc                   	int3   
   1400157b9:	cc                   	int3   
   1400157ba:	cc                   	int3   
   1400157bb:	cc                   	int3   
   1400157bc:	cc                   	int3   
   1400157bd:	cc                   	int3   
   1400157be:	cc                   	int3   
   1400157bf:	cc                   	int3   
   1400157c0:	cc                   	int3   
   1400157c1:	cc                   	int3   
   1400157c2:	cc                   	int3   
   1400157c3:	cc                   	int3   
   1400157c4:	cc                   	int3   
   1400157c5:	cc                   	int3   
   1400157c6:	cc                   	int3   
   1400157c7:	cc                   	int3   
   1400157c8:	cc                   	int3   
   1400157c9:	cc                   	int3   
   1400157ca:	cc                   	int3   
   1400157cb:	cc                   	int3   
   1400157cc:	cc                   	int3   
   1400157cd:	cc                   	int3   
   1400157ce:	cc                   	int3   
   1400157cf:	cc                   	int3   
   1400157d0:	cc                   	int3   
   1400157d1:	cc                   	int3   
   1400157d2:	cc                   	int3   
   1400157d3:	cc                   	int3   
   1400157d4:	cc                   	int3   
   1400157d5:	cc                   	int3   
   1400157d6:	cc                   	int3   
   1400157d7:	cc                   	int3   
   1400157d8:	cc                   	int3   
   1400157d9:	cc                   	int3   
   1400157da:	cc                   	int3   
   1400157db:	cc                   	int3   
   1400157dc:	cc                   	int3   
   1400157dd:	cc                   	int3   
   1400157de:	cc                   	int3   
   1400157df:	cc                   	int3   
   1400157e0:	cc                   	int3   
   1400157e1:	cc                   	int3   
   1400157e2:	cc                   	int3   
   1400157e3:	cc                   	int3   
   1400157e4:	cc                   	int3   
   1400157e5:	cc                   	int3   
   1400157e6:	cc                   	int3   
   1400157e7:	cc                   	int3   
   1400157e8:	cc                   	int3   
   1400157e9:	cc                   	int3   
   1400157ea:	cc                   	int3   
   1400157eb:	cc                   	int3   
   1400157ec:	cc                   	int3   
   1400157ed:	cc                   	int3   
   1400157ee:	cc                   	int3   
   1400157ef:	cc                   	int3   
   1400157f0:	cc                   	int3   
   1400157f1:	cc                   	int3   
   1400157f2:	cc                   	int3   
   1400157f3:	cc                   	int3   
   1400157f4:	cc                   	int3   
   1400157f5:	cc                   	int3   
   1400157f6:	cc                   	int3   
   1400157f7:	cc                   	int3   
   1400157f8:	cc                   	int3   
   1400157f9:	cc                   	int3   
   1400157fa:	cc                   	int3   
   1400157fb:	cc                   	int3   
   1400157fc:	cc                   	int3   
   1400157fd:	cc                   	int3   
   1400157fe:	cc                   	int3   
   1400157ff:	cc                   	int3   
   140015800:	cc                   	int3   
   140015801:	cc                   	int3   
   140015802:	cc                   	int3   
   140015803:	cc                   	int3   
   140015804:	cc                   	int3   
   140015805:	cc                   	int3   
   140015806:	cc                   	int3   
   140015807:	cc                   	int3   
   140015808:	cc                   	int3   
   140015809:	cc                   	int3   
   14001580a:	cc                   	int3   
   14001580b:	cc                   	int3   
   14001580c:	cc                   	int3   
   14001580d:	cc                   	int3   
   14001580e:	cc                   	int3   
   14001580f:	cc                   	int3   
   140015810:	cc                   	int3   
   140015811:	cc                   	int3   
   140015812:	cc                   	int3   
   140015813:	cc                   	int3   
   140015814:	cc                   	int3   
   140015815:	cc                   	int3   
   140015816:	cc                   	int3   
   140015817:	cc                   	int3   
   140015818:	cc                   	int3   
   140015819:	cc                   	int3   
   14001581a:	cc                   	int3   
   14001581b:	cc                   	int3   
   14001581c:	cc                   	int3   
   14001581d:	cc                   	int3   
   14001581e:	cc                   	int3   
   14001581f:	cc                   	int3   
   140015820:	cc                   	int3   
   140015821:	cc                   	int3   
   140015822:	cc                   	int3   
   140015823:	cc                   	int3   
   140015824:	cc                   	int3   
   140015825:	cc                   	int3   
   140015826:	cc                   	int3   
   140015827:	cc                   	int3   
   140015828:	cc                   	int3   
   140015829:	cc                   	int3   
   14001582a:	cc                   	int3   
   14001582b:	cc                   	int3   
   14001582c:	cc                   	int3   
   14001582d:	cc                   	int3   
   14001582e:	cc                   	int3   
   14001582f:	cc                   	int3   
   140015830:	cc                   	int3   
   140015831:	cc                   	int3   
   140015832:	cc                   	int3   
   140015833:	cc                   	int3   
   140015834:	cc                   	int3   
   140015835:	cc                   	int3   
   140015836:	cc                   	int3   
   140015837:	cc                   	int3   
   140015838:	cc                   	int3   
   140015839:	cc                   	int3   
   14001583a:	cc                   	int3   
   14001583b:	cc                   	int3   
   14001583c:	cc                   	int3   
   14001583d:	cc                   	int3   
   14001583e:	cc                   	int3   
   14001583f:	cc                   	int3   
   140015840:	cc                   	int3   
   140015841:	cc                   	int3   
   140015842:	cc                   	int3   
   140015843:	cc                   	int3   
   140015844:	cc                   	int3   
   140015845:	cc                   	int3   
   140015846:	cc                   	int3   
   140015847:	cc                   	int3   
   140015848:	cc                   	int3   
   140015849:	cc                   	int3   
   14001584a:	cc                   	int3   
   14001584b:	cc                   	int3   
   14001584c:	cc                   	int3   
   14001584d:	cc                   	int3   
   14001584e:	cc                   	int3   
   14001584f:	cc                   	int3   
   140015850:	cc                   	int3   
   140015851:	cc                   	int3   
   140015852:	cc                   	int3   
   140015853:	cc                   	int3   
   140015854:	cc                   	int3   
   140015855:	cc                   	int3   
   140015856:	cc                   	int3   
   140015857:	cc                   	int3   
   140015858:	cc                   	int3   
   140015859:	cc                   	int3   
   14001585a:	cc                   	int3   
   14001585b:	cc                   	int3   
   14001585c:	cc                   	int3   
   14001585d:	cc                   	int3   
   14001585e:	cc                   	int3   
   14001585f:	cc                   	int3   
   140015860:	cc                   	int3   
   140015861:	cc                   	int3   
   140015862:	cc                   	int3   
   140015863:	cc                   	int3   
   140015864:	cc                   	int3   
   140015865:	cc                   	int3   
   140015866:	cc                   	int3   
   140015867:	cc                   	int3   
   140015868:	cc                   	int3   
   140015869:	cc                   	int3   
   14001586a:	cc                   	int3   
   14001586b:	cc                   	int3   
   14001586c:	cc                   	int3   
   14001586d:	cc                   	int3   
   14001586e:	cc                   	int3   
   14001586f:	cc                   	int3   
   140015870:	cc                   	int3   
   140015871:	cc                   	int3   
   140015872:	cc                   	int3   
   140015873:	cc                   	int3   
   140015874:	cc                   	int3   
   140015875:	cc                   	int3   
   140015876:	cc                   	int3   
   140015877:	cc                   	int3   
   140015878:	cc                   	int3   
   140015879:	cc                   	int3   
   14001587a:	cc                   	int3   
   14001587b:	cc                   	int3   
   14001587c:	cc                   	int3   
   14001587d:	cc                   	int3   
   14001587e:	cc                   	int3   
   14001587f:	cc                   	int3   
   140015880:	cc                   	int3   
   140015881:	cc                   	int3   
   140015882:	cc                   	int3   
   140015883:	cc                   	int3   
   140015884:	cc                   	int3   
   140015885:	cc                   	int3   
   140015886:	cc                   	int3   
   140015887:	cc                   	int3   
   140015888:	cc                   	int3   
   140015889:	cc                   	int3   
   14001588a:	cc                   	int3   
   14001588b:	cc                   	int3   
   14001588c:	cc                   	int3   
   14001588d:	cc                   	int3   
   14001588e:	cc                   	int3   
   14001588f:	cc                   	int3   
   140015890:	cc                   	int3   
   140015891:	cc                   	int3   
   140015892:	cc                   	int3   
   140015893:	cc                   	int3   
   140015894:	cc                   	int3   
   140015895:	cc                   	int3   
   140015896:	cc                   	int3   
   140015897:	cc                   	int3   
   140015898:	cc                   	int3   
   140015899:	cc                   	int3   
   14001589a:	cc                   	int3   
   14001589b:	cc                   	int3   
   14001589c:	cc                   	int3   
   14001589d:	cc                   	int3   
   14001589e:	cc                   	int3   
   14001589f:	cc                   	int3   
   1400158a0:	cc                   	int3   
   1400158a1:	cc                   	int3   
   1400158a2:	cc                   	int3   
   1400158a3:	cc                   	int3   
   1400158a4:	cc                   	int3   
   1400158a5:	cc                   	int3   
   1400158a6:	cc                   	int3   
   1400158a7:	cc                   	int3   
   1400158a8:	cc                   	int3   
   1400158a9:	cc                   	int3   
   1400158aa:	cc                   	int3   
   1400158ab:	cc                   	int3   
   1400158ac:	cc                   	int3   
   1400158ad:	cc                   	int3   
   1400158ae:	cc                   	int3   
   1400158af:	cc                   	int3   
   1400158b0:	cc                   	int3   
   1400158b1:	cc                   	int3   
   1400158b2:	cc                   	int3   
   1400158b3:	cc                   	int3   
   1400158b4:	cc                   	int3   
   1400158b5:	cc                   	int3   
   1400158b6:	cc                   	int3   
   1400158b7:	cc                   	int3   
   1400158b8:	cc                   	int3   
   1400158b9:	cc                   	int3   
   1400158ba:	cc                   	int3   
   1400158bb:	cc                   	int3   
   1400158bc:	cc                   	int3   
   1400158bd:	cc                   	int3   
   1400158be:	cc                   	int3   
   1400158bf:	cc                   	int3   
   1400158c0:	cc                   	int3   
   1400158c1:	cc                   	int3   
   1400158c2:	cc                   	int3   
   1400158c3:	cc                   	int3   
   1400158c4:	cc                   	int3   
   1400158c5:	cc                   	int3   
   1400158c6:	cc                   	int3   
   1400158c7:	cc                   	int3   
   1400158c8:	cc                   	int3   
   1400158c9:	cc                   	int3   
   1400158ca:	cc                   	int3   
   1400158cb:	cc                   	int3   
   1400158cc:	cc                   	int3   
   1400158cd:	cc                   	int3   
   1400158ce:	cc                   	int3   
   1400158cf:	cc                   	int3   
   1400158d0:	cc                   	int3   
   1400158d1:	cc                   	int3   
   1400158d2:	cc                   	int3   
   1400158d3:	cc                   	int3   
   1400158d4:	cc                   	int3   
   1400158d5:	cc                   	int3   
   1400158d6:	cc                   	int3   
   1400158d7:	cc                   	int3   
   1400158d8:	cc                   	int3   
   1400158d9:	cc                   	int3   
   1400158da:	cc                   	int3   
   1400158db:	cc                   	int3   
   1400158dc:	cc                   	int3   
   1400158dd:	cc                   	int3   
   1400158de:	cc                   	int3   
   1400158df:	cc                   	int3   
   1400158e0:	cc                   	int3   
   1400158e1:	cc                   	int3   
   1400158e2:	cc                   	int3   
   1400158e3:	cc                   	int3   
   1400158e4:	cc                   	int3   
   1400158e5:	cc                   	int3   
   1400158e6:	cc                   	int3   
   1400158e7:	cc                   	int3   
   1400158e8:	cc                   	int3   
   1400158e9:	cc                   	int3   
   1400158ea:	cc                   	int3   
   1400158eb:	cc                   	int3   
   1400158ec:	cc                   	int3   
   1400158ed:	cc                   	int3   
   1400158ee:	cc                   	int3   
   1400158ef:	cc                   	int3   
   1400158f0:	cc                   	int3   
   1400158f1:	cc                   	int3   
   1400158f2:	cc                   	int3   
   1400158f3:	cc                   	int3   
   1400158f4:	cc                   	int3   
   1400158f5:	cc                   	int3   
   1400158f6:	cc                   	int3   
   1400158f7:	cc                   	int3   
   1400158f8:	cc                   	int3   
   1400158f9:	cc                   	int3   
   1400158fa:	cc                   	int3   
   1400158fb:	cc                   	int3   
   1400158fc:	cc                   	int3   
   1400158fd:	cc                   	int3   
   1400158fe:	cc                   	int3   
   1400158ff:	cc                   	int3   
   140015900:	cc                   	int3   
   140015901:	cc                   	int3   
   140015902:	cc                   	int3   
   140015903:	cc                   	int3   
   140015904:	cc                   	int3   
   140015905:	cc                   	int3   
   140015906:	cc                   	int3   
   140015907:	cc                   	int3   
   140015908:	cc                   	int3   
   140015909:	cc                   	int3   
   14001590a:	cc                   	int3   
   14001590b:	cc                   	int3   
   14001590c:	cc                   	int3   
   14001590d:	cc                   	int3   
   14001590e:	cc                   	int3   
   14001590f:	cc                   	int3   
   140015910:	cc                   	int3   
   140015911:	cc                   	int3   
   140015912:	cc                   	int3   
   140015913:	cc                   	int3   
   140015914:	cc                   	int3   
   140015915:	cc                   	int3   
   140015916:	cc                   	int3   
   140015917:	cc                   	int3   
   140015918:	cc                   	int3   
   140015919:	cc                   	int3   
   14001591a:	cc                   	int3   
   14001591b:	cc                   	int3   
   14001591c:	cc                   	int3   
   14001591d:	cc                   	int3   
   14001591e:	cc                   	int3   
   14001591f:	cc                   	int3   
   140015920:	cc                   	int3   
   140015921:	cc                   	int3   
   140015922:	cc                   	int3   
   140015923:	cc                   	int3   
   140015924:	cc                   	int3   
   140015925:	cc                   	int3   
   140015926:	cc                   	int3   
   140015927:	cc                   	int3   
   140015928:	cc                   	int3   
   140015929:	cc                   	int3   
   14001592a:	cc                   	int3   
   14001592b:	cc                   	int3   
   14001592c:	cc                   	int3   
   14001592d:	cc                   	int3   
   14001592e:	cc                   	int3   
   14001592f:	cc                   	int3   
   140015930:	cc                   	int3   
   140015931:	cc                   	int3   
   140015932:	cc                   	int3   
   140015933:	cc                   	int3   
   140015934:	cc                   	int3   
   140015935:	cc                   	int3   
   140015936:	cc                   	int3   
   140015937:	cc                   	int3   
   140015938:	cc                   	int3   
   140015939:	cc                   	int3   
   14001593a:	cc                   	int3   
   14001593b:	cc                   	int3   
   14001593c:	cc                   	int3   
   14001593d:	cc                   	int3   
   14001593e:	cc                   	int3   
   14001593f:	cc                   	int3   
   140015940:	cc                   	int3   
   140015941:	cc                   	int3   
   140015942:	cc                   	int3   
   140015943:	cc                   	int3   
   140015944:	cc                   	int3   
   140015945:	cc                   	int3   
   140015946:	cc                   	int3   
   140015947:	cc                   	int3   
   140015948:	cc                   	int3   
   140015949:	cc                   	int3   
   14001594a:	cc                   	int3   
   14001594b:	cc                   	int3   
   14001594c:	cc                   	int3   
   14001594d:	cc                   	int3   
   14001594e:	cc                   	int3   
   14001594f:	cc                   	int3   
   140015950:	cc                   	int3   
   140015951:	cc                   	int3   
   140015952:	cc                   	int3   
   140015953:	cc                   	int3   
   140015954:	cc                   	int3   
   140015955:	cc                   	int3   
   140015956:	cc                   	int3   
   140015957:	cc                   	int3   
   140015958:	cc                   	int3   
   140015959:	cc                   	int3   
   14001595a:	cc                   	int3   
   14001595b:	cc                   	int3   
   14001595c:	cc                   	int3   
   14001595d:	cc                   	int3   
   14001595e:	cc                   	int3   
   14001595f:	cc                   	int3   
   140015960:	cc                   	int3   
   140015961:	cc                   	int3   
   140015962:	cc                   	int3   
   140015963:	cc                   	int3   
   140015964:	cc                   	int3   
   140015965:	cc                   	int3   
   140015966:	cc                   	int3   
   140015967:	cc                   	int3   
   140015968:	cc                   	int3   
   140015969:	cc                   	int3   
   14001596a:	cc                   	int3   
   14001596b:	cc                   	int3   
   14001596c:	cc                   	int3   
   14001596d:	cc                   	int3   
   14001596e:	cc                   	int3   
   14001596f:	cc                   	int3   
   140015970:	cc                   	int3   
   140015971:	cc                   	int3   
   140015972:	cc                   	int3   
   140015973:	cc                   	int3   
   140015974:	cc                   	int3   
   140015975:	cc                   	int3   
   140015976:	cc                   	int3   
   140015977:	cc                   	int3   
   140015978:	cc                   	int3   
   140015979:	cc                   	int3   
   14001597a:	cc                   	int3   
   14001597b:	cc                   	int3   
   14001597c:	cc                   	int3   
   14001597d:	cc                   	int3   
   14001597e:	cc                   	int3   
   14001597f:	cc                   	int3   
   140015980:	cc                   	int3   
   140015981:	cc                   	int3   
   140015982:	cc                   	int3   
   140015983:	cc                   	int3   
   140015984:	cc                   	int3   
   140015985:	cc                   	int3   
   140015986:	cc                   	int3   
   140015987:	cc                   	int3   
   140015988:	cc                   	int3   
   140015989:	cc                   	int3   
   14001598a:	cc                   	int3   
   14001598b:	cc                   	int3   
   14001598c:	cc                   	int3   
   14001598d:	cc                   	int3   
   14001598e:	cc                   	int3   
   14001598f:	cc                   	int3   
   140015990:	cc                   	int3   
   140015991:	cc                   	int3   
   140015992:	cc                   	int3   
   140015993:	cc                   	int3   
   140015994:	cc                   	int3   
   140015995:	cc                   	int3   
   140015996:	cc                   	int3   
   140015997:	cc                   	int3   
   140015998:	cc                   	int3   
   140015999:	cc                   	int3   
   14001599a:	cc                   	int3   
   14001599b:	cc                   	int3   
   14001599c:	cc                   	int3   
   14001599d:	cc                   	int3   
   14001599e:	cc                   	int3   
   14001599f:	cc                   	int3   
   1400159a0:	cc                   	int3   
   1400159a1:	cc                   	int3   
   1400159a2:	cc                   	int3   
   1400159a3:	cc                   	int3   
   1400159a4:	cc                   	int3   
   1400159a5:	cc                   	int3   
   1400159a6:	cc                   	int3   
   1400159a7:	cc                   	int3   
   1400159a8:	cc                   	int3   
   1400159a9:	cc                   	int3   
   1400159aa:	cc                   	int3   
   1400159ab:	cc                   	int3   
   1400159ac:	cc                   	int3   
   1400159ad:	cc                   	int3   
   1400159ae:	cc                   	int3   
   1400159af:	cc                   	int3   
   1400159b0:	cc                   	int3   
   1400159b1:	cc                   	int3   
   1400159b2:	cc                   	int3   
   1400159b3:	cc                   	int3   
   1400159b4:	cc                   	int3   
   1400159b5:	cc                   	int3   
   1400159b6:	cc                   	int3   
   1400159b7:	cc                   	int3   
   1400159b8:	cc                   	int3   
   1400159b9:	cc                   	int3   
   1400159ba:	cc                   	int3   
   1400159bb:	cc                   	int3   
   1400159bc:	cc                   	int3   
   1400159bd:	cc                   	int3   
   1400159be:	cc                   	int3   
   1400159bf:	cc                   	int3   
   1400159c0:	cc                   	int3   
   1400159c1:	cc                   	int3   
   1400159c2:	cc                   	int3   
   1400159c3:	cc                   	int3   
   1400159c4:	cc                   	int3   
   1400159c5:	cc                   	int3   
   1400159c6:	cc                   	int3   
   1400159c7:	cc                   	int3   
   1400159c8:	cc                   	int3   
   1400159c9:	cc                   	int3   
   1400159ca:	cc                   	int3   
   1400159cb:	cc                   	int3   
   1400159cc:	cc                   	int3   
   1400159cd:	cc                   	int3   
   1400159ce:	cc                   	int3   
   1400159cf:	cc                   	int3   
   1400159d0:	cc                   	int3   
   1400159d1:	cc                   	int3   
   1400159d2:	cc                   	int3   
   1400159d3:	cc                   	int3   
   1400159d4:	cc                   	int3   
   1400159d5:	cc                   	int3   
   1400159d6:	cc                   	int3   
   1400159d7:	cc                   	int3   
   1400159d8:	cc                   	int3   
   1400159d9:	cc                   	int3   
   1400159da:	cc                   	int3   
   1400159db:	cc                   	int3   
   1400159dc:	cc                   	int3   
   1400159dd:	cc                   	int3   
   1400159de:	cc                   	int3   
   1400159df:	cc                   	int3   
   1400159e0:	cc                   	int3   
   1400159e1:	cc                   	int3   
   1400159e2:	cc                   	int3   
   1400159e3:	cc                   	int3   
   1400159e4:	cc                   	int3   
   1400159e5:	cc                   	int3   
   1400159e6:	cc                   	int3   
   1400159e7:	cc                   	int3   
   1400159e8:	cc                   	int3   
   1400159e9:	cc                   	int3   
   1400159ea:	cc                   	int3   
   1400159eb:	cc                   	int3   
   1400159ec:	cc                   	int3   
   1400159ed:	cc                   	int3   
   1400159ee:	cc                   	int3   
   1400159ef:	cc                   	int3   
   1400159f0:	cc                   	int3   
   1400159f1:	cc                   	int3   
   1400159f2:	cc                   	int3   
   1400159f3:	cc                   	int3   
   1400159f4:	cc                   	int3   
   1400159f5:	cc                   	int3   
   1400159f6:	cc                   	int3   
   1400159f7:	cc                   	int3   
   1400159f8:	cc                   	int3   
   1400159f9:	cc                   	int3   
   1400159fa:	cc                   	int3   
   1400159fb:	cc                   	int3   
   1400159fc:	cc                   	int3   
   1400159fd:	cc                   	int3   
   1400159fe:	cc                   	int3   
   1400159ff:	cc                   	int3   
   140015a00:	cc                   	int3   
   140015a01:	cc                   	int3   
   140015a02:	cc                   	int3   
   140015a03:	cc                   	int3   
   140015a04:	cc                   	int3   
   140015a05:	cc                   	int3   
   140015a06:	cc                   	int3   
   140015a07:	cc                   	int3   
   140015a08:	cc                   	int3   
   140015a09:	cc                   	int3   
   140015a0a:	cc                   	int3   
   140015a0b:	cc                   	int3   
   140015a0c:	cc                   	int3   
   140015a0d:	cc                   	int3   
   140015a0e:	cc                   	int3   
   140015a0f:	cc                   	int3   
   140015a10:	cc                   	int3   
   140015a11:	cc                   	int3   
   140015a12:	cc                   	int3   
   140015a13:	cc                   	int3   
   140015a14:	cc                   	int3   
   140015a15:	cc                   	int3   
   140015a16:	cc                   	int3   
   140015a17:	cc                   	int3   
   140015a18:	cc                   	int3   
   140015a19:	cc                   	int3   
   140015a1a:	cc                   	int3   
   140015a1b:	cc                   	int3   
   140015a1c:	cc                   	int3   
   140015a1d:	cc                   	int3   
   140015a1e:	cc                   	int3   
   140015a1f:	cc                   	int3   
   140015a20:	cc                   	int3   
   140015a21:	cc                   	int3   
   140015a22:	cc                   	int3   
   140015a23:	cc                   	int3   
   140015a24:	cc                   	int3   
   140015a25:	cc                   	int3   
   140015a26:	cc                   	int3   
   140015a27:	cc                   	int3   
   140015a28:	cc                   	int3   
   140015a29:	cc                   	int3   
   140015a2a:	cc                   	int3   
   140015a2b:	cc                   	int3   
   140015a2c:	cc                   	int3   
   140015a2d:	cc                   	int3   
   140015a2e:	cc                   	int3   
   140015a2f:	cc                   	int3   
   140015a30:	cc                   	int3   
   140015a31:	cc                   	int3   
   140015a32:	cc                   	int3   
   140015a33:	cc                   	int3   
   140015a34:	cc                   	int3   
   140015a35:	cc                   	int3   
   140015a36:	cc                   	int3   
   140015a37:	cc                   	int3   
   140015a38:	cc                   	int3   
   140015a39:	cc                   	int3   
   140015a3a:	cc                   	int3   
   140015a3b:	cc                   	int3   
   140015a3c:	cc                   	int3   
   140015a3d:	cc                   	int3   
   140015a3e:	cc                   	int3   
   140015a3f:	cc                   	int3   
   140015a40:	cc                   	int3   
   140015a41:	cc                   	int3   
   140015a42:	cc                   	int3   
   140015a43:	cc                   	int3   
   140015a44:	cc                   	int3   
   140015a45:	cc                   	int3   
   140015a46:	cc                   	int3   
   140015a47:	cc                   	int3   
   140015a48:	cc                   	int3   
   140015a49:	cc                   	int3   
   140015a4a:	cc                   	int3   
   140015a4b:	cc                   	int3   
   140015a4c:	cc                   	int3   
   140015a4d:	cc                   	int3   
   140015a4e:	cc                   	int3   
   140015a4f:	cc                   	int3   
   140015a50:	cc                   	int3   
   140015a51:	cc                   	int3   
   140015a52:	cc                   	int3   
   140015a53:	cc                   	int3   
   140015a54:	cc                   	int3   
   140015a55:	cc                   	int3   
   140015a56:	cc                   	int3   
   140015a57:	cc                   	int3   
   140015a58:	cc                   	int3   
   140015a59:	cc                   	int3   
   140015a5a:	cc                   	int3   
   140015a5b:	cc                   	int3   
   140015a5c:	cc                   	int3   
   140015a5d:	cc                   	int3   
   140015a5e:	cc                   	int3   
   140015a5f:	cc                   	int3   
   140015a60:	cc                   	int3   
   140015a61:	cc                   	int3   
   140015a62:	cc                   	int3   
   140015a63:	cc                   	int3   
   140015a64:	cc                   	int3   
   140015a65:	cc                   	int3   
   140015a66:	cc                   	int3   
   140015a67:	cc                   	int3   
   140015a68:	cc                   	int3   
   140015a69:	cc                   	int3   
   140015a6a:	cc                   	int3   
   140015a6b:	cc                   	int3   
   140015a6c:	cc                   	int3   
   140015a6d:	cc                   	int3   
   140015a6e:	cc                   	int3   
   140015a6f:	cc                   	int3   
   140015a70:	cc                   	int3   
   140015a71:	cc                   	int3   
   140015a72:	cc                   	int3   
   140015a73:	cc                   	int3   
   140015a74:	cc                   	int3   
   140015a75:	cc                   	int3   
   140015a76:	cc                   	int3   
   140015a77:	cc                   	int3   
   140015a78:	cc                   	int3   
   140015a79:	cc                   	int3   
   140015a7a:	cc                   	int3   
   140015a7b:	cc                   	int3   
   140015a7c:	cc                   	int3   
   140015a7d:	cc                   	int3   
   140015a7e:	cc                   	int3   
   140015a7f:	cc                   	int3   
   140015a80:	cc                   	int3   
   140015a81:	cc                   	int3   
   140015a82:	cc                   	int3   
   140015a83:	cc                   	int3   
   140015a84:	cc                   	int3   
   140015a85:	cc                   	int3   
   140015a86:	cc                   	int3   
   140015a87:	cc                   	int3   
   140015a88:	cc                   	int3   
   140015a89:	cc                   	int3   
   140015a8a:	cc                   	int3   
   140015a8b:	cc                   	int3   
   140015a8c:	cc                   	int3   
   140015a8d:	cc                   	int3   
   140015a8e:	cc                   	int3   
   140015a8f:	cc                   	int3   
   140015a90:	cc                   	int3   
   140015a91:	cc                   	int3   
   140015a92:	cc                   	int3   
   140015a93:	cc                   	int3   
   140015a94:	cc                   	int3   
   140015a95:	cc                   	int3   
   140015a96:	cc                   	int3   
   140015a97:	cc                   	int3   
   140015a98:	cc                   	int3   
   140015a99:	cc                   	int3   
   140015a9a:	cc                   	int3   
   140015a9b:	cc                   	int3   
   140015a9c:	cc                   	int3   
   140015a9d:	cc                   	int3   
   140015a9e:	cc                   	int3   
   140015a9f:	cc                   	int3   
   140015aa0:	cc                   	int3   
   140015aa1:	cc                   	int3   
   140015aa2:	cc                   	int3   
   140015aa3:	cc                   	int3   
   140015aa4:	cc                   	int3   
   140015aa5:	cc                   	int3   
   140015aa6:	cc                   	int3   
   140015aa7:	cc                   	int3   
   140015aa8:	cc                   	int3   
   140015aa9:	cc                   	int3   
   140015aaa:	cc                   	int3   
   140015aab:	cc                   	int3   
   140015aac:	cc                   	int3   
   140015aad:	cc                   	int3   
   140015aae:	cc                   	int3   
   140015aaf:	cc                   	int3   
   140015ab0:	cc                   	int3   
   140015ab1:	cc                   	int3   
   140015ab2:	cc                   	int3   
   140015ab3:	cc                   	int3   
   140015ab4:	cc                   	int3   
   140015ab5:	cc                   	int3   
   140015ab6:	cc                   	int3   
   140015ab7:	cc                   	int3   
   140015ab8:	cc                   	int3   
   140015ab9:	cc                   	int3   
   140015aba:	cc                   	int3   
   140015abb:	cc                   	int3   
   140015abc:	cc                   	int3   
   140015abd:	cc                   	int3   
   140015abe:	cc                   	int3   
   140015abf:	cc                   	int3   
   140015ac0:	cc                   	int3   
   140015ac1:	cc                   	int3   
   140015ac2:	cc                   	int3   
   140015ac3:	cc                   	int3   
   140015ac4:	cc                   	int3   
   140015ac5:	cc                   	int3   
   140015ac6:	cc                   	int3   
   140015ac7:	cc                   	int3   
   140015ac8:	cc                   	int3   
   140015ac9:	cc                   	int3   
   140015aca:	cc                   	int3   
   140015acb:	cc                   	int3   
   140015acc:	cc                   	int3   
   140015acd:	cc                   	int3   
   140015ace:	cc                   	int3   
   140015acf:	cc                   	int3   
   140015ad0:	cc                   	int3   
   140015ad1:	cc                   	int3   
   140015ad2:	cc                   	int3   
   140015ad3:	cc                   	int3   
   140015ad4:	cc                   	int3   
   140015ad5:	cc                   	int3   
   140015ad6:	cc                   	int3   
   140015ad7:	cc                   	int3   
   140015ad8:	cc                   	int3   
   140015ad9:	cc                   	int3   
   140015ada:	cc                   	int3   
   140015adb:	cc                   	int3   
   140015adc:	cc                   	int3   
   140015add:	cc                   	int3   
   140015ade:	cc                   	int3   
   140015adf:	cc                   	int3   
   140015ae0:	cc                   	int3   
   140015ae1:	cc                   	int3   
   140015ae2:	cc                   	int3   
   140015ae3:	cc                   	int3   
   140015ae4:	cc                   	int3   
   140015ae5:	cc                   	int3   
   140015ae6:	cc                   	int3   
   140015ae7:	cc                   	int3   
   140015ae8:	cc                   	int3   
   140015ae9:	cc                   	int3   
   140015aea:	cc                   	int3   
   140015aeb:	cc                   	int3   
   140015aec:	cc                   	int3   
   140015aed:	cc                   	int3   
   140015aee:	cc                   	int3   
   140015aef:	cc                   	int3   
   140015af0:	cc                   	int3   
   140015af1:	cc                   	int3   
   140015af2:	cc                   	int3   
   140015af3:	cc                   	int3   
   140015af4:	cc                   	int3   
   140015af5:	cc                   	int3   
   140015af6:	cc                   	int3   
   140015af7:	cc                   	int3   
   140015af8:	cc                   	int3   
   140015af9:	cc                   	int3   
   140015afa:	cc                   	int3   
   140015afb:	cc                   	int3   
   140015afc:	cc                   	int3   
   140015afd:	cc                   	int3   
   140015afe:	cc                   	int3   
   140015aff:	cc                   	int3   
   140015b00:	cc                   	int3   
   140015b01:	cc                   	int3   
   140015b02:	cc                   	int3   
   140015b03:	cc                   	int3   
   140015b04:	cc                   	int3   
   140015b05:	cc                   	int3   
   140015b06:	cc                   	int3   
   140015b07:	cc                   	int3   
   140015b08:	cc                   	int3   
   140015b09:	cc                   	int3   
   140015b0a:	cc                   	int3   
   140015b0b:	cc                   	int3   
   140015b0c:	cc                   	int3   
   140015b0d:	cc                   	int3   
   140015b0e:	cc                   	int3   
   140015b0f:	cc                   	int3   
   140015b10:	cc                   	int3   
   140015b11:	cc                   	int3   
   140015b12:	cc                   	int3   
   140015b13:	cc                   	int3   
   140015b14:	cc                   	int3   
   140015b15:	cc                   	int3   
   140015b16:	cc                   	int3   
   140015b17:	cc                   	int3   
   140015b18:	cc                   	int3   
   140015b19:	cc                   	int3   
   140015b1a:	cc                   	int3   
   140015b1b:	cc                   	int3   
   140015b1c:	cc                   	int3   
   140015b1d:	cc                   	int3   
   140015b1e:	cc                   	int3   
   140015b1f:	cc                   	int3   
   140015b20:	cc                   	int3   
   140015b21:	cc                   	int3   
   140015b22:	cc                   	int3   
   140015b23:	cc                   	int3   
   140015b24:	cc                   	int3   
   140015b25:	cc                   	int3   
   140015b26:	cc                   	int3   
   140015b27:	cc                   	int3   
   140015b28:	cc                   	int3   
   140015b29:	cc                   	int3   
   140015b2a:	cc                   	int3   
   140015b2b:	cc                   	int3   
   140015b2c:	cc                   	int3   
   140015b2d:	cc                   	int3   
   140015b2e:	cc                   	int3   
   140015b2f:	cc                   	int3   
   140015b30:	cc                   	int3   
   140015b31:	cc                   	int3   
   140015b32:	cc                   	int3   
   140015b33:	cc                   	int3   
   140015b34:	cc                   	int3   
   140015b35:	cc                   	int3   
   140015b36:	cc                   	int3   
   140015b37:	cc                   	int3   
   140015b38:	cc                   	int3   
   140015b39:	cc                   	int3   
   140015b3a:	cc                   	int3   
   140015b3b:	cc                   	int3   
   140015b3c:	cc                   	int3   
   140015b3d:	cc                   	int3   
   140015b3e:	cc                   	int3   
   140015b3f:	cc                   	int3   
   140015b40:	cc                   	int3   
   140015b41:	cc                   	int3   
   140015b42:	cc                   	int3   
   140015b43:	cc                   	int3   
   140015b44:	cc                   	int3   
   140015b45:	cc                   	int3   
   140015b46:	cc                   	int3   
   140015b47:	cc                   	int3   
   140015b48:	cc                   	int3   
   140015b49:	cc                   	int3   
   140015b4a:	cc                   	int3   
   140015b4b:	cc                   	int3   
   140015b4c:	cc                   	int3   
   140015b4d:	cc                   	int3   
   140015b4e:	cc                   	int3   
   140015b4f:	cc                   	int3   
   140015b50:	cc                   	int3   
   140015b51:	cc                   	int3   
   140015b52:	cc                   	int3   
   140015b53:	cc                   	int3   
   140015b54:	cc                   	int3   
   140015b55:	cc                   	int3   
   140015b56:	cc                   	int3   
   140015b57:	cc                   	int3   
   140015b58:	cc                   	int3   
   140015b59:	cc                   	int3   
   140015b5a:	cc                   	int3   
   140015b5b:	cc                   	int3   
   140015b5c:	cc                   	int3   
   140015b5d:	cc                   	int3   
   140015b5e:	cc                   	int3   
   140015b5f:	cc                   	int3   
   140015b60:	cc                   	int3   
   140015b61:	cc                   	int3   
   140015b62:	cc                   	int3   
   140015b63:	cc                   	int3   
   140015b64:	cc                   	int3   
   140015b65:	cc                   	int3   
   140015b66:	cc                   	int3   
   140015b67:	cc                   	int3   
   140015b68:	cc                   	int3   
   140015b69:	cc                   	int3   
   140015b6a:	cc                   	int3   
   140015b6b:	cc                   	int3   
   140015b6c:	cc                   	int3   
   140015b6d:	cc                   	int3   
   140015b6e:	cc                   	int3   
   140015b6f:	cc                   	int3   
   140015b70:	cc                   	int3   
   140015b71:	cc                   	int3   
   140015b72:	cc                   	int3   
   140015b73:	cc                   	int3   
   140015b74:	cc                   	int3   
   140015b75:	cc                   	int3   
   140015b76:	cc                   	int3   
   140015b77:	cc                   	int3   
   140015b78:	cc                   	int3   
   140015b79:	cc                   	int3   
   140015b7a:	cc                   	int3   
   140015b7b:	cc                   	int3   
   140015b7c:	cc                   	int3   
   140015b7d:	cc                   	int3   
   140015b7e:	cc                   	int3   
   140015b7f:	cc                   	int3   
   140015b80:	cc                   	int3   
   140015b81:	cc                   	int3   
   140015b82:	cc                   	int3   
   140015b83:	cc                   	int3   
   140015b84:	cc                   	int3   
   140015b85:	cc                   	int3   
   140015b86:	cc                   	int3   
   140015b87:	cc                   	int3   
   140015b88:	cc                   	int3   
   140015b89:	cc                   	int3   
   140015b8a:	cc                   	int3   
   140015b8b:	cc                   	int3   
   140015b8c:	cc                   	int3   
   140015b8d:	cc                   	int3   
   140015b8e:	cc                   	int3   
   140015b8f:	cc                   	int3   
   140015b90:	cc                   	int3   
   140015b91:	cc                   	int3   
   140015b92:	cc                   	int3   
   140015b93:	cc                   	int3   
   140015b94:	cc                   	int3   
   140015b95:	cc                   	int3   
   140015b96:	cc                   	int3   
   140015b97:	cc                   	int3   
   140015b98:	cc                   	int3   
   140015b99:	cc                   	int3   
   140015b9a:	cc                   	int3   
   140015b9b:	cc                   	int3   
   140015b9c:	cc                   	int3   
   140015b9d:	cc                   	int3   
   140015b9e:	cc                   	int3   
   140015b9f:	cc                   	int3   
   140015ba0:	cc                   	int3   
   140015ba1:	cc                   	int3   
   140015ba2:	cc                   	int3   
   140015ba3:	cc                   	int3   
   140015ba4:	cc                   	int3   
   140015ba5:	cc                   	int3   
   140015ba6:	cc                   	int3   
   140015ba7:	cc                   	int3   
   140015ba8:	cc                   	int3   
   140015ba9:	cc                   	int3   
   140015baa:	cc                   	int3   
   140015bab:	cc                   	int3   
   140015bac:	cc                   	int3   
   140015bad:	cc                   	int3   
   140015bae:	cc                   	int3   
   140015baf:	cc                   	int3   
   140015bb0:	cc                   	int3   
   140015bb1:	cc                   	int3   
   140015bb2:	cc                   	int3   
   140015bb3:	cc                   	int3   
   140015bb4:	cc                   	int3   
   140015bb5:	cc                   	int3   
   140015bb6:	cc                   	int3   
   140015bb7:	cc                   	int3   
   140015bb8:	cc                   	int3   
   140015bb9:	cc                   	int3   
   140015bba:	cc                   	int3   
   140015bbb:	cc                   	int3   
   140015bbc:	cc                   	int3   
   140015bbd:	cc                   	int3   
   140015bbe:	cc                   	int3   
   140015bbf:	cc                   	int3   
   140015bc0:	cc                   	int3   
   140015bc1:	cc                   	int3   
   140015bc2:	cc                   	int3   
   140015bc3:	cc                   	int3   
   140015bc4:	cc                   	int3   
   140015bc5:	cc                   	int3   
   140015bc6:	cc                   	int3   
   140015bc7:	cc                   	int3   
   140015bc8:	cc                   	int3   
   140015bc9:	cc                   	int3   
   140015bca:	cc                   	int3   
   140015bcb:	cc                   	int3   
   140015bcc:	cc                   	int3   
   140015bcd:	cc                   	int3   
   140015bce:	cc                   	int3   
   140015bcf:	cc                   	int3   
   140015bd0:	cc                   	int3   
   140015bd1:	cc                   	int3   
   140015bd2:	cc                   	int3   
   140015bd3:	cc                   	int3   
   140015bd4:	cc                   	int3   
   140015bd5:	cc                   	int3   
   140015bd6:	cc                   	int3   
   140015bd7:	cc                   	int3   
   140015bd8:	cc                   	int3   
   140015bd9:	cc                   	int3   
   140015bda:	cc                   	int3   
   140015bdb:	cc                   	int3   
   140015bdc:	cc                   	int3   
   140015bdd:	cc                   	int3   
   140015bde:	cc                   	int3   
   140015bdf:	cc                   	int3   
   140015be0:	cc                   	int3   
   140015be1:	cc                   	int3   
   140015be2:	cc                   	int3   
   140015be3:	cc                   	int3   
   140015be4:	cc                   	int3   
   140015be5:	cc                   	int3   
   140015be6:	cc                   	int3   
   140015be7:	cc                   	int3   
   140015be8:	cc                   	int3   
   140015be9:	cc                   	int3   
   140015bea:	cc                   	int3   
   140015beb:	cc                   	int3   
   140015bec:	cc                   	int3   
   140015bed:	cc                   	int3   
   140015bee:	cc                   	int3   
   140015bef:	cc                   	int3   
   140015bf0:	cc                   	int3   
   140015bf1:	cc                   	int3   
   140015bf2:	cc                   	int3   
   140015bf3:	cc                   	int3   
   140015bf4:	cc                   	int3   
   140015bf5:	cc                   	int3   
   140015bf6:	cc                   	int3   
   140015bf7:	cc                   	int3   
   140015bf8:	cc                   	int3   
   140015bf9:	cc                   	int3   
   140015bfa:	cc                   	int3   
   140015bfb:	cc                   	int3   
   140015bfc:	cc                   	int3   
   140015bfd:	cc                   	int3   
   140015bfe:	cc                   	int3   
   140015bff:	cc                   	int3   
   140015c00:	cc                   	int3   
   140015c01:	cc                   	int3   
   140015c02:	cc                   	int3   
   140015c03:	cc                   	int3   
   140015c04:	cc                   	int3   
   140015c05:	cc                   	int3   
   140015c06:	cc                   	int3   
   140015c07:	cc                   	int3   
   140015c08:	cc                   	int3   
   140015c09:	cc                   	int3   
   140015c0a:	cc                   	int3   
   140015c0b:	cc                   	int3   
   140015c0c:	cc                   	int3   
   140015c0d:	cc                   	int3   
   140015c0e:	cc                   	int3   
   140015c0f:	cc                   	int3   
   140015c10:	cc                   	int3   
   140015c11:	cc                   	int3   
   140015c12:	cc                   	int3   
   140015c13:	cc                   	int3   
   140015c14:	cc                   	int3   
   140015c15:	cc                   	int3   
   140015c16:	cc                   	int3   
   140015c17:	cc                   	int3   
   140015c18:	cc                   	int3   
   140015c19:	cc                   	int3   
   140015c1a:	cc                   	int3   
   140015c1b:	cc                   	int3   
   140015c1c:	cc                   	int3   
   140015c1d:	cc                   	int3   
   140015c1e:	cc                   	int3   
   140015c1f:	cc                   	int3   
   140015c20:	cc                   	int3   
   140015c21:	cc                   	int3   
   140015c22:	cc                   	int3   
   140015c23:	cc                   	int3   
   140015c24:	cc                   	int3   
   140015c25:	cc                   	int3   
   140015c26:	cc                   	int3   
   140015c27:	cc                   	int3   
   140015c28:	cc                   	int3   
   140015c29:	cc                   	int3   
   140015c2a:	cc                   	int3   
   140015c2b:	cc                   	int3   
   140015c2c:	cc                   	int3   
   140015c2d:	cc                   	int3   
   140015c2e:	cc                   	int3   
   140015c2f:	cc                   	int3   
   140015c30:	cc                   	int3   
   140015c31:	cc                   	int3   
   140015c32:	cc                   	int3   
   140015c33:	cc                   	int3   
   140015c34:	cc                   	int3   
   140015c35:	cc                   	int3   
   140015c36:	cc                   	int3   
   140015c37:	cc                   	int3   
   140015c38:	cc                   	int3   
   140015c39:	cc                   	int3   
   140015c3a:	cc                   	int3   
   140015c3b:	cc                   	int3   
   140015c3c:	cc                   	int3   
   140015c3d:	cc                   	int3   
   140015c3e:	cc                   	int3   
   140015c3f:	cc                   	int3   
   140015c40:	cc                   	int3   
   140015c41:	cc                   	int3   
   140015c42:	cc                   	int3   
   140015c43:	cc                   	int3   
   140015c44:	cc                   	int3   
   140015c45:	cc                   	int3   
   140015c46:	cc                   	int3   
   140015c47:	cc                   	int3   
   140015c48:	cc                   	int3   
   140015c49:	cc                   	int3   
   140015c4a:	cc                   	int3   
   140015c4b:	cc                   	int3   
   140015c4c:	cc                   	int3   
   140015c4d:	cc                   	int3   
   140015c4e:	cc                   	int3   
   140015c4f:	cc                   	int3   
   140015c50:	cc                   	int3   
   140015c51:	cc                   	int3   
   140015c52:	cc                   	int3   
   140015c53:	cc                   	int3   
   140015c54:	cc                   	int3   
   140015c55:	cc                   	int3   
   140015c56:	cc                   	int3   
   140015c57:	cc                   	int3   
   140015c58:	cc                   	int3   
   140015c59:	cc                   	int3   
   140015c5a:	cc                   	int3   
   140015c5b:	cc                   	int3   
   140015c5c:	cc                   	int3   
   140015c5d:	cc                   	int3   
   140015c5e:	cc                   	int3   
   140015c5f:	cc                   	int3   
   140015c60:	cc                   	int3   
   140015c61:	cc                   	int3   
   140015c62:	cc                   	int3   
   140015c63:	cc                   	int3   
   140015c64:	cc                   	int3   
   140015c65:	cc                   	int3   
   140015c66:	cc                   	int3   
   140015c67:	cc                   	int3   
   140015c68:	cc                   	int3   
   140015c69:	cc                   	int3   
   140015c6a:	cc                   	int3   
   140015c6b:	cc                   	int3   
   140015c6c:	cc                   	int3   
   140015c6d:	cc                   	int3   
   140015c6e:	cc                   	int3   
   140015c6f:	cc                   	int3   
   140015c70:	cc                   	int3   
   140015c71:	cc                   	int3   
   140015c72:	cc                   	int3   
   140015c73:	cc                   	int3   
   140015c74:	cc                   	int3   
   140015c75:	cc                   	int3   
   140015c76:	cc                   	int3   
   140015c77:	cc                   	int3   
   140015c78:	cc                   	int3   
   140015c79:	cc                   	int3   
   140015c7a:	cc                   	int3   
   140015c7b:	cc                   	int3   
   140015c7c:	cc                   	int3   
   140015c7d:	cc                   	int3   
   140015c7e:	cc                   	int3   
   140015c7f:	cc                   	int3   
   140015c80:	cc                   	int3   
   140015c81:	cc                   	int3   
   140015c82:	cc                   	int3   
   140015c83:	cc                   	int3   
   140015c84:	cc                   	int3   
   140015c85:	cc                   	int3   
   140015c86:	cc                   	int3   
   140015c87:	cc                   	int3   
   140015c88:	cc                   	int3   
   140015c89:	cc                   	int3   
   140015c8a:	cc                   	int3   
   140015c8b:	cc                   	int3   
   140015c8c:	cc                   	int3   
   140015c8d:	cc                   	int3   
   140015c8e:	cc                   	int3   
   140015c8f:	cc                   	int3   
   140015c90:	cc                   	int3   
   140015c91:	cc                   	int3   
   140015c92:	cc                   	int3   
   140015c93:	cc                   	int3   
   140015c94:	cc                   	int3   
   140015c95:	cc                   	int3   
   140015c96:	cc                   	int3   
   140015c97:	cc                   	int3   
   140015c98:	cc                   	int3   
   140015c99:	cc                   	int3   
   140015c9a:	cc                   	int3   
   140015c9b:	cc                   	int3   
   140015c9c:	cc                   	int3   
   140015c9d:	cc                   	int3   
   140015c9e:	cc                   	int3   
   140015c9f:	cc                   	int3   
   140015ca0:	cc                   	int3   
   140015ca1:	cc                   	int3   
   140015ca2:	cc                   	int3   
   140015ca3:	cc                   	int3   
   140015ca4:	cc                   	int3   
   140015ca5:	cc                   	int3   
   140015ca6:	cc                   	int3   
   140015ca7:	cc                   	int3   
   140015ca8:	cc                   	int3   
   140015ca9:	cc                   	int3   
   140015caa:	cc                   	int3   
   140015cab:	cc                   	int3   
   140015cac:	cc                   	int3   
   140015cad:	cc                   	int3   
   140015cae:	cc                   	int3   
   140015caf:	cc                   	int3   
   140015cb0:	cc                   	int3   
   140015cb1:	cc                   	int3   
   140015cb2:	cc                   	int3   
   140015cb3:	cc                   	int3   
   140015cb4:	cc                   	int3   
   140015cb5:	cc                   	int3   
   140015cb6:	cc                   	int3   
   140015cb7:	cc                   	int3   
   140015cb8:	cc                   	int3   
   140015cb9:	cc                   	int3   
   140015cba:	cc                   	int3   
   140015cbb:	cc                   	int3   
   140015cbc:	cc                   	int3   
   140015cbd:	cc                   	int3   
   140015cbe:	cc                   	int3   
   140015cbf:	cc                   	int3   
   140015cc0:	cc                   	int3   
   140015cc1:	cc                   	int3   
   140015cc2:	cc                   	int3   
   140015cc3:	cc                   	int3   
   140015cc4:	cc                   	int3   
   140015cc5:	cc                   	int3   
   140015cc6:	cc                   	int3   
   140015cc7:	cc                   	int3   
   140015cc8:	cc                   	int3   
   140015cc9:	cc                   	int3   
   140015cca:	cc                   	int3   
   140015ccb:	cc                   	int3   
   140015ccc:	cc                   	int3   
   140015ccd:	cc                   	int3   
   140015cce:	cc                   	int3   
   140015ccf:	cc                   	int3   
   140015cd0:	cc                   	int3   
   140015cd1:	cc                   	int3   
   140015cd2:	cc                   	int3   
   140015cd3:	cc                   	int3   
   140015cd4:	cc                   	int3   
   140015cd5:	cc                   	int3   
   140015cd6:	cc                   	int3   
   140015cd7:	cc                   	int3   
   140015cd8:	cc                   	int3   
   140015cd9:	cc                   	int3   
   140015cda:	cc                   	int3   
   140015cdb:	cc                   	int3   
   140015cdc:	cc                   	int3   
   140015cdd:	cc                   	int3   
   140015cde:	cc                   	int3   
   140015cdf:	cc                   	int3   
   140015ce0:	cc                   	int3   
   140015ce1:	cc                   	int3   
   140015ce2:	cc                   	int3   
   140015ce3:	cc                   	int3   
   140015ce4:	cc                   	int3   
   140015ce5:	cc                   	int3   
   140015ce6:	cc                   	int3   
   140015ce7:	cc                   	int3   
   140015ce8:	cc                   	int3   
   140015ce9:	cc                   	int3   
   140015cea:	cc                   	int3   
   140015ceb:	cc                   	int3   
   140015cec:	cc                   	int3   
   140015ced:	cc                   	int3   
   140015cee:	cc                   	int3   
   140015cef:	cc                   	int3   
   140015cf0:	cc                   	int3   
   140015cf1:	cc                   	int3   
   140015cf2:	cc                   	int3   
   140015cf3:	cc                   	int3   
   140015cf4:	cc                   	int3   
   140015cf5:	cc                   	int3   
   140015cf6:	cc                   	int3   
   140015cf7:	cc                   	int3   
   140015cf8:	cc                   	int3   
   140015cf9:	cc                   	int3   
   140015cfa:	cc                   	int3   
   140015cfb:	cc                   	int3   
   140015cfc:	cc                   	int3   
   140015cfd:	cc                   	int3   
   140015cfe:	cc                   	int3   
   140015cff:	cc                   	int3   
   140015d00:	cc                   	int3   
   140015d01:	cc                   	int3   
   140015d02:	cc                   	int3   
   140015d03:	cc                   	int3   
   140015d04:	cc                   	int3   
   140015d05:	cc                   	int3   
   140015d06:	cc                   	int3   
   140015d07:	cc                   	int3   
   140015d08:	cc                   	int3   
   140015d09:	cc                   	int3   
   140015d0a:	cc                   	int3   
   140015d0b:	cc                   	int3   
   140015d0c:	cc                   	int3   
   140015d0d:	cc                   	int3   
   140015d0e:	cc                   	int3   
   140015d0f:	cc                   	int3   
   140015d10:	cc                   	int3   
   140015d11:	cc                   	int3   
   140015d12:	cc                   	int3   
   140015d13:	cc                   	int3   
   140015d14:	cc                   	int3   
   140015d15:	cc                   	int3   
   140015d16:	cc                   	int3   
   140015d17:	cc                   	int3   
   140015d18:	cc                   	int3   
   140015d19:	cc                   	int3   
   140015d1a:	cc                   	int3   
   140015d1b:	cc                   	int3   
   140015d1c:	cc                   	int3   
   140015d1d:	cc                   	int3   
   140015d1e:	cc                   	int3   
   140015d1f:	cc                   	int3   
   140015d20:	cc                   	int3   
   140015d21:	cc                   	int3   
   140015d22:	cc                   	int3   
   140015d23:	cc                   	int3   
   140015d24:	cc                   	int3   
   140015d25:	cc                   	int3   
   140015d26:	cc                   	int3   
   140015d27:	cc                   	int3   
   140015d28:	cc                   	int3   
   140015d29:	cc                   	int3   
   140015d2a:	cc                   	int3   
   140015d2b:	cc                   	int3   
   140015d2c:	cc                   	int3   
   140015d2d:	cc                   	int3   
   140015d2e:	cc                   	int3   
   140015d2f:	cc                   	int3   
   140015d30:	cc                   	int3   
   140015d31:	cc                   	int3   
   140015d32:	cc                   	int3   
   140015d33:	cc                   	int3   
   140015d34:	cc                   	int3   
   140015d35:	cc                   	int3   
   140015d36:	cc                   	int3   
   140015d37:	cc                   	int3   
   140015d38:	cc                   	int3   
   140015d39:	cc                   	int3   
   140015d3a:	cc                   	int3   
   140015d3b:	cc                   	int3   
   140015d3c:	cc                   	int3   
   140015d3d:	cc                   	int3   
   140015d3e:	cc                   	int3   
   140015d3f:	cc                   	int3   
   140015d40:	cc                   	int3   
   140015d41:	cc                   	int3   
   140015d42:	cc                   	int3   
   140015d43:	cc                   	int3   
   140015d44:	cc                   	int3   
   140015d45:	cc                   	int3   
   140015d46:	cc                   	int3   
   140015d47:	cc                   	int3   
   140015d48:	cc                   	int3   
   140015d49:	cc                   	int3   
   140015d4a:	cc                   	int3   
   140015d4b:	cc                   	int3   
   140015d4c:	cc                   	int3   
   140015d4d:	cc                   	int3   
   140015d4e:	cc                   	int3   
   140015d4f:	cc                   	int3   
   140015d50:	cc                   	int3   
   140015d51:	cc                   	int3   
   140015d52:	cc                   	int3   
   140015d53:	cc                   	int3   
   140015d54:	cc                   	int3   
   140015d55:	cc                   	int3   
   140015d56:	cc                   	int3   
   140015d57:	cc                   	int3   
   140015d58:	cc                   	int3   
   140015d59:	cc                   	int3   
   140015d5a:	cc                   	int3   
   140015d5b:	cc                   	int3   
   140015d5c:	cc                   	int3   
   140015d5d:	cc                   	int3   
   140015d5e:	cc                   	int3   
   140015d5f:	cc                   	int3   
   140015d60:	cc                   	int3   
   140015d61:	cc                   	int3   
   140015d62:	cc                   	int3   
   140015d63:	cc                   	int3   
   140015d64:	cc                   	int3   
   140015d65:	cc                   	int3   
   140015d66:	cc                   	int3   
   140015d67:	cc                   	int3   
   140015d68:	cc                   	int3   
   140015d69:	cc                   	int3   
   140015d6a:	cc                   	int3   
   140015d6b:	cc                   	int3   
   140015d6c:	cc                   	int3   
   140015d6d:	cc                   	int3   
   140015d6e:	cc                   	int3   
   140015d6f:	cc                   	int3   
   140015d70:	cc                   	int3   
   140015d71:	cc                   	int3   
   140015d72:	cc                   	int3   
   140015d73:	cc                   	int3   
   140015d74:	cc                   	int3   
   140015d75:	cc                   	int3   
   140015d76:	cc                   	int3   
   140015d77:	cc                   	int3   
   140015d78:	cc                   	int3   
   140015d79:	cc                   	int3   
   140015d7a:	cc                   	int3   
   140015d7b:	cc                   	int3   
   140015d7c:	cc                   	int3   
   140015d7d:	cc                   	int3   
   140015d7e:	cc                   	int3   
   140015d7f:	cc                   	int3   
   140015d80:	cc                   	int3   
   140015d81:	cc                   	int3   
   140015d82:	cc                   	int3   
   140015d83:	cc                   	int3   
   140015d84:	cc                   	int3   
   140015d85:	cc                   	int3   
   140015d86:	cc                   	int3   
   140015d87:	cc                   	int3   
   140015d88:	cc                   	int3   
   140015d89:	cc                   	int3   
   140015d8a:	cc                   	int3   
   140015d8b:	cc                   	int3   
   140015d8c:	cc                   	int3   
   140015d8d:	cc                   	int3   
   140015d8e:	cc                   	int3   
   140015d8f:	cc                   	int3   
   140015d90:	cc                   	int3   
   140015d91:	cc                   	int3   
   140015d92:	cc                   	int3   
   140015d93:	cc                   	int3   
   140015d94:	cc                   	int3   
   140015d95:	cc                   	int3   
   140015d96:	cc                   	int3   
   140015d97:	cc                   	int3   
   140015d98:	cc                   	int3   
   140015d99:	cc                   	int3   
   140015d9a:	cc                   	int3   
   140015d9b:	cc                   	int3   
   140015d9c:	cc                   	int3   
   140015d9d:	cc                   	int3   
   140015d9e:	cc                   	int3   
   140015d9f:	cc                   	int3   
   140015da0:	cc                   	int3   
   140015da1:	cc                   	int3   
   140015da2:	cc                   	int3   
   140015da3:	cc                   	int3   
   140015da4:	cc                   	int3   
   140015da5:	cc                   	int3   
   140015da6:	cc                   	int3   
   140015da7:	cc                   	int3   
   140015da8:	cc                   	int3   
   140015da9:	cc                   	int3   
   140015daa:	cc                   	int3   
   140015dab:	cc                   	int3   
   140015dac:	cc                   	int3   
   140015dad:	cc                   	int3   
   140015dae:	cc                   	int3   
   140015daf:	cc                   	int3   
   140015db0:	cc                   	int3   
   140015db1:	cc                   	int3   
   140015db2:	cc                   	int3   
   140015db3:	cc                   	int3   
   140015db4:	cc                   	int3   
   140015db5:	cc                   	int3   
   140015db6:	cc                   	int3   
   140015db7:	cc                   	int3   
   140015db8:	cc                   	int3   
   140015db9:	cc                   	int3   
   140015dba:	cc                   	int3   
   140015dbb:	cc                   	int3   
   140015dbc:	cc                   	int3   
   140015dbd:	cc                   	int3   
   140015dbe:	cc                   	int3   
   140015dbf:	cc                   	int3   
   140015dc0:	cc                   	int3   
   140015dc1:	cc                   	int3   
   140015dc2:	cc                   	int3   
   140015dc3:	cc                   	int3   
   140015dc4:	cc                   	int3   
   140015dc5:	cc                   	int3   
   140015dc6:	cc                   	int3   
   140015dc7:	cc                   	int3   
   140015dc8:	cc                   	int3   
   140015dc9:	cc                   	int3   
   140015dca:	cc                   	int3   
   140015dcb:	cc                   	int3   
   140015dcc:	cc                   	int3   
   140015dcd:	cc                   	int3   
   140015dce:	cc                   	int3   
   140015dcf:	cc                   	int3   
   140015dd0:	cc                   	int3   
   140015dd1:	cc                   	int3   
   140015dd2:	cc                   	int3   
   140015dd3:	cc                   	int3   
   140015dd4:	cc                   	int3   
   140015dd5:	cc                   	int3   
   140015dd6:	cc                   	int3   
   140015dd7:	cc                   	int3   
   140015dd8:	cc                   	int3   
   140015dd9:	cc                   	int3   
   140015dda:	cc                   	int3   
   140015ddb:	cc                   	int3   
   140015ddc:	cc                   	int3   
   140015ddd:	cc                   	int3   
   140015dde:	cc                   	int3   
   140015ddf:	cc                   	int3   
   140015de0:	cc                   	int3   
   140015de1:	cc                   	int3   
   140015de2:	cc                   	int3   
   140015de3:	cc                   	int3   
   140015de4:	cc                   	int3   
   140015de5:	cc                   	int3   
   140015de6:	cc                   	int3   
   140015de7:	cc                   	int3   
   140015de8:	cc                   	int3   
   140015de9:	cc                   	int3   
   140015dea:	cc                   	int3   
   140015deb:	cc                   	int3   
   140015dec:	cc                   	int3   
   140015ded:	cc                   	int3   
   140015dee:	cc                   	int3   
   140015def:	cc                   	int3   
   140015df0:	cc                   	int3   
   140015df1:	cc                   	int3   
   140015df2:	cc                   	int3   
   140015df3:	cc                   	int3   
   140015df4:	cc                   	int3   
   140015df5:	cc                   	int3   
   140015df6:	cc                   	int3   
   140015df7:	cc                   	int3   
   140015df8:	cc                   	int3   
   140015df9:	cc                   	int3   
   140015dfa:	cc                   	int3   
   140015dfb:	cc                   	int3   
   140015dfc:	cc                   	int3   
   140015dfd:	cc                   	int3   
   140015dfe:	cc                   	int3   
   140015dff:	cc                   	int3   
   140015e00:	cc                   	int3   
   140015e01:	cc                   	int3   
   140015e02:	cc                   	int3   
   140015e03:	cc                   	int3   
   140015e04:	cc                   	int3   
   140015e05:	cc                   	int3   
   140015e06:	cc                   	int3   
   140015e07:	cc                   	int3   
   140015e08:	cc                   	int3   
   140015e09:	cc                   	int3   
   140015e0a:	cc                   	int3   
   140015e0b:	cc                   	int3   
   140015e0c:	cc                   	int3   
   140015e0d:	cc                   	int3   
   140015e0e:	cc                   	int3   
   140015e0f:	cc                   	int3   
   140015e10:	cc                   	int3   
   140015e11:	cc                   	int3   
   140015e12:	cc                   	int3   
   140015e13:	cc                   	int3   
   140015e14:	cc                   	int3   
   140015e15:	cc                   	int3   
   140015e16:	cc                   	int3   
   140015e17:	cc                   	int3   
   140015e18:	cc                   	int3   
   140015e19:	cc                   	int3   
   140015e1a:	cc                   	int3   
   140015e1b:	cc                   	int3   
   140015e1c:	cc                   	int3   
   140015e1d:	cc                   	int3   
   140015e1e:	cc                   	int3   
   140015e1f:	cc                   	int3   
   140015e20:	cc                   	int3   
   140015e21:	cc                   	int3   
   140015e22:	cc                   	int3   
   140015e23:	cc                   	int3   
   140015e24:	cc                   	int3   
   140015e25:	cc                   	int3   
   140015e26:	cc                   	int3   
   140015e27:	cc                   	int3   
   140015e28:	cc                   	int3   
   140015e29:	cc                   	int3   
   140015e2a:	cc                   	int3   
   140015e2b:	cc                   	int3   
   140015e2c:	cc                   	int3   
   140015e2d:	cc                   	int3   
   140015e2e:	cc                   	int3   
   140015e2f:	cc                   	int3   
   140015e30:	cc                   	int3   
   140015e31:	cc                   	int3   
   140015e32:	cc                   	int3   
   140015e33:	cc                   	int3   
   140015e34:	cc                   	int3   
   140015e35:	cc                   	int3   
   140015e36:	cc                   	int3   
   140015e37:	cc                   	int3   
   140015e38:	cc                   	int3   
   140015e39:	cc                   	int3   
   140015e3a:	cc                   	int3   
   140015e3b:	cc                   	int3   
   140015e3c:	cc                   	int3   
   140015e3d:	cc                   	int3   
   140015e3e:	cc                   	int3   
   140015e3f:	cc                   	int3   
   140015e40:	cc                   	int3   
   140015e41:	cc                   	int3   
   140015e42:	cc                   	int3   
   140015e43:	cc                   	int3   
   140015e44:	cc                   	int3   
   140015e45:	cc                   	int3   
   140015e46:	cc                   	int3   
   140015e47:	cc                   	int3   
   140015e48:	cc                   	int3   
   140015e49:	cc                   	int3   
   140015e4a:	cc                   	int3   
   140015e4b:	cc                   	int3   
   140015e4c:	cc                   	int3   
   140015e4d:	cc                   	int3   
   140015e4e:	cc                   	int3   
   140015e4f:	cc                   	int3   
   140015e50:	cc                   	int3   
   140015e51:	cc                   	int3   
   140015e52:	cc                   	int3   
   140015e53:	cc                   	int3   
   140015e54:	cc                   	int3   
   140015e55:	cc                   	int3   
   140015e56:	cc                   	int3   
   140015e57:	cc                   	int3   
   140015e58:	cc                   	int3   
   140015e59:	cc                   	int3   
   140015e5a:	cc                   	int3   
   140015e5b:	cc                   	int3   
   140015e5c:	cc                   	int3   
   140015e5d:	cc                   	int3   
   140015e5e:	cc                   	int3   
   140015e5f:	cc                   	int3   
   140015e60:	cc                   	int3   
   140015e61:	cc                   	int3   
   140015e62:	cc                   	int3   
   140015e63:	cc                   	int3   
   140015e64:	cc                   	int3   
   140015e65:	cc                   	int3   
   140015e66:	cc                   	int3   
   140015e67:	cc                   	int3   
   140015e68:	cc                   	int3   
   140015e69:	cc                   	int3   
   140015e6a:	cc                   	int3   
   140015e6b:	cc                   	int3   
   140015e6c:	cc                   	int3   
   140015e6d:	cc                   	int3   
   140015e6e:	cc                   	int3   
   140015e6f:	cc                   	int3   
   140015e70:	cc                   	int3   
   140015e71:	cc                   	int3   
   140015e72:	cc                   	int3   
   140015e73:	cc                   	int3   
   140015e74:	cc                   	int3   
   140015e75:	cc                   	int3   
   140015e76:	cc                   	int3   
   140015e77:	cc                   	int3   
   140015e78:	cc                   	int3   
   140015e79:	cc                   	int3   
   140015e7a:	cc                   	int3   
   140015e7b:	cc                   	int3   
   140015e7c:	cc                   	int3   
   140015e7d:	cc                   	int3   
   140015e7e:	cc                   	int3   
   140015e7f:	cc                   	int3   
   140015e80:	cc                   	int3   
   140015e81:	cc                   	int3   
   140015e82:	cc                   	int3   
   140015e83:	cc                   	int3   
   140015e84:	cc                   	int3   
   140015e85:	cc                   	int3   
   140015e86:	cc                   	int3   
   140015e87:	cc                   	int3   
   140015e88:	cc                   	int3   
   140015e89:	cc                   	int3   
   140015e8a:	cc                   	int3   
   140015e8b:	cc                   	int3   
   140015e8c:	cc                   	int3   
   140015e8d:	cc                   	int3   
   140015e8e:	cc                   	int3   
   140015e8f:	cc                   	int3   
   140015e90:	cc                   	int3   
   140015e91:	cc                   	int3   
   140015e92:	cc                   	int3   
   140015e93:	cc                   	int3   
   140015e94:	cc                   	int3   
   140015e95:	cc                   	int3   
   140015e96:	cc                   	int3   
   140015e97:	cc                   	int3   
   140015e98:	cc                   	int3   
   140015e99:	cc                   	int3   
   140015e9a:	cc                   	int3   
   140015e9b:	cc                   	int3   
   140015e9c:	cc                   	int3   
   140015e9d:	cc                   	int3   
   140015e9e:	cc                   	int3   
   140015e9f:	cc                   	int3   
   140015ea0:	cc                   	int3   
   140015ea1:	cc                   	int3   
   140015ea2:	cc                   	int3   
   140015ea3:	cc                   	int3   
   140015ea4:	cc                   	int3   
   140015ea5:	cc                   	int3   
   140015ea6:	cc                   	int3   
   140015ea7:	cc                   	int3   
   140015ea8:	cc                   	int3   
   140015ea9:	cc                   	int3   
   140015eaa:	cc                   	int3   
   140015eab:	cc                   	int3   
   140015eac:	cc                   	int3   
   140015ead:	cc                   	int3   
   140015eae:	cc                   	int3   
   140015eaf:	cc                   	int3   
   140015eb0:	cc                   	int3   
   140015eb1:	cc                   	int3   
   140015eb2:	cc                   	int3   
   140015eb3:	cc                   	int3   
   140015eb4:	cc                   	int3   
   140015eb5:	cc                   	int3   
   140015eb6:	cc                   	int3   
   140015eb7:	cc                   	int3   
   140015eb8:	cc                   	int3   
   140015eb9:	cc                   	int3   
   140015eba:	cc                   	int3   
   140015ebb:	cc                   	int3   
   140015ebc:	cc                   	int3   
   140015ebd:	cc                   	int3   
   140015ebe:	cc                   	int3   
   140015ebf:	cc                   	int3   
   140015ec0:	cc                   	int3   
   140015ec1:	cc                   	int3   
   140015ec2:	cc                   	int3   
   140015ec3:	cc                   	int3   
   140015ec4:	cc                   	int3   
   140015ec5:	cc                   	int3   
   140015ec6:	cc                   	int3   
   140015ec7:	cc                   	int3   
   140015ec8:	cc                   	int3   
   140015ec9:	cc                   	int3   
   140015eca:	cc                   	int3   
   140015ecb:	cc                   	int3   
   140015ecc:	cc                   	int3   
   140015ecd:	cc                   	int3   
   140015ece:	cc                   	int3   
   140015ecf:	cc                   	int3   
   140015ed0:	cc                   	int3   
   140015ed1:	cc                   	int3   
   140015ed2:	cc                   	int3   
   140015ed3:	cc                   	int3   
   140015ed4:	cc                   	int3   
   140015ed5:	cc                   	int3   
   140015ed6:	cc                   	int3   
   140015ed7:	cc                   	int3   
   140015ed8:	cc                   	int3   
   140015ed9:	cc                   	int3   
   140015eda:	cc                   	int3   
   140015edb:	cc                   	int3   
   140015edc:	cc                   	int3   
   140015edd:	cc                   	int3   
   140015ede:	cc                   	int3   
   140015edf:	cc                   	int3   
   140015ee0:	cc                   	int3   
   140015ee1:	cc                   	int3   
   140015ee2:	cc                   	int3   
   140015ee3:	cc                   	int3   
   140015ee4:	cc                   	int3   
   140015ee5:	cc                   	int3   
   140015ee6:	cc                   	int3   
   140015ee7:	cc                   	int3   
   140015ee8:	cc                   	int3   
   140015ee9:	cc                   	int3   
   140015eea:	cc                   	int3   
   140015eeb:	cc                   	int3   
   140015eec:	cc                   	int3   
   140015eed:	cc                   	int3   
   140015eee:	cc                   	int3   
   140015eef:	cc                   	int3   
   140015ef0:	cc                   	int3   
   140015ef1:	cc                   	int3   
   140015ef2:	cc                   	int3   
   140015ef3:	cc                   	int3   
   140015ef4:	cc                   	int3   
   140015ef5:	cc                   	int3   
   140015ef6:	cc                   	int3   
   140015ef7:	cc                   	int3   
   140015ef8:	cc                   	int3   
   140015ef9:	cc                   	int3   
   140015efa:	cc                   	int3   
   140015efb:	cc                   	int3   
   140015efc:	cc                   	int3   
   140015efd:	cc                   	int3   
   140015efe:	cc                   	int3   
   140015eff:	cc                   	int3   
   140015f00:	cc                   	int3   
   140015f01:	cc                   	int3   
   140015f02:	cc                   	int3   
   140015f03:	cc                   	int3   
   140015f04:	cc                   	int3   
   140015f05:	cc                   	int3   
   140015f06:	cc                   	int3   
   140015f07:	cc                   	int3   
   140015f08:	cc                   	int3   
   140015f09:	cc                   	int3   
   140015f0a:	cc                   	int3   
   140015f0b:	cc                   	int3   
   140015f0c:	cc                   	int3   
   140015f0d:	cc                   	int3   
   140015f0e:	cc                   	int3   
   140015f0f:	cc                   	int3   
   140015f10:	cc                   	int3   
   140015f11:	cc                   	int3   
   140015f12:	cc                   	int3   
   140015f13:	cc                   	int3   
   140015f14:	cc                   	int3   
   140015f15:	cc                   	int3   
   140015f16:	cc                   	int3   
   140015f17:	cc                   	int3   
   140015f18:	cc                   	int3   
   140015f19:	cc                   	int3   
   140015f1a:	cc                   	int3   
   140015f1b:	cc                   	int3   
   140015f1c:	cc                   	int3   
   140015f1d:	cc                   	int3   
   140015f1e:	cc                   	int3   
   140015f1f:	cc                   	int3   
   140015f20:	cc                   	int3   
   140015f21:	cc                   	int3   
   140015f22:	cc                   	int3   
   140015f23:	cc                   	int3   
   140015f24:	cc                   	int3   
   140015f25:	cc                   	int3   
   140015f26:	cc                   	int3   
   140015f27:	cc                   	int3   
   140015f28:	cc                   	int3   
   140015f29:	cc                   	int3   
   140015f2a:	cc                   	int3   
   140015f2b:	cc                   	int3   
   140015f2c:	cc                   	int3   
   140015f2d:	cc                   	int3   
   140015f2e:	cc                   	int3   
   140015f2f:	cc                   	int3   
   140015f30:	cc                   	int3   
   140015f31:	cc                   	int3   
   140015f32:	cc                   	int3   
   140015f33:	cc                   	int3   
   140015f34:	cc                   	int3   
   140015f35:	cc                   	int3   
   140015f36:	cc                   	int3   
   140015f37:	cc                   	int3   
   140015f38:	cc                   	int3   
   140015f39:	cc                   	int3   
   140015f3a:	cc                   	int3   
   140015f3b:	cc                   	int3   
   140015f3c:	cc                   	int3   
   140015f3d:	cc                   	int3   
   140015f3e:	cc                   	int3   
   140015f3f:	cc                   	int3   
   140015f40:	cc                   	int3   
   140015f41:	cc                   	int3   
   140015f42:	cc                   	int3   
   140015f43:	cc                   	int3   
   140015f44:	cc                   	int3   
   140015f45:	cc                   	int3   
   140015f46:	cc                   	int3   
   140015f47:	cc                   	int3   
   140015f48:	cc                   	int3   
   140015f49:	cc                   	int3   
   140015f4a:	cc                   	int3   
   140015f4b:	cc                   	int3   
   140015f4c:	cc                   	int3   
   140015f4d:	cc                   	int3   
   140015f4e:	cc                   	int3   
   140015f4f:	cc                   	int3   
   140015f50:	cc                   	int3   
   140015f51:	cc                   	int3   
   140015f52:	cc                   	int3   
   140015f53:	cc                   	int3   
   140015f54:	cc                   	int3   
   140015f55:	cc                   	int3   
   140015f56:	cc                   	int3   
   140015f57:	cc                   	int3   
   140015f58:	cc                   	int3   
   140015f59:	cc                   	int3   
   140015f5a:	cc                   	int3   
   140015f5b:	cc                   	int3   
   140015f5c:	cc                   	int3   
   140015f5d:	cc                   	int3   
   140015f5e:	cc                   	int3   
   140015f5f:	cc                   	int3   
   140015f60:	cc                   	int3   
   140015f61:	cc                   	int3   
   140015f62:	cc                   	int3   
   140015f63:	cc                   	int3   
   140015f64:	cc                   	int3   
   140015f65:	cc                   	int3   
   140015f66:	cc                   	int3   
   140015f67:	cc                   	int3   
   140015f68:	cc                   	int3   
   140015f69:	cc                   	int3   
   140015f6a:	cc                   	int3   
   140015f6b:	cc                   	int3   
   140015f6c:	cc                   	int3   
   140015f6d:	cc                   	int3   
   140015f6e:	cc                   	int3   
   140015f6f:	cc                   	int3   
   140015f70:	cc                   	int3   
   140015f71:	cc                   	int3   
   140015f72:	cc                   	int3   
   140015f73:	cc                   	int3   
   140015f74:	cc                   	int3   
   140015f75:	cc                   	int3   
   140015f76:	cc                   	int3   
   140015f77:	cc                   	int3   
   140015f78:	cc                   	int3   
   140015f79:	cc                   	int3   
   140015f7a:	cc                   	int3   
   140015f7b:	cc                   	int3   
   140015f7c:	cc                   	int3   
   140015f7d:	cc                   	int3   
   140015f7e:	cc                   	int3   
   140015f7f:	cc                   	int3   
   140015f80:	cc                   	int3   
   140015f81:	cc                   	int3   
   140015f82:	cc                   	int3   
   140015f83:	cc                   	int3   
   140015f84:	cc                   	int3   
   140015f85:	cc                   	int3   
   140015f86:	cc                   	int3   
   140015f87:	cc                   	int3   
   140015f88:	cc                   	int3   
   140015f89:	cc                   	int3   
   140015f8a:	cc                   	int3   
   140015f8b:	cc                   	int3   
   140015f8c:	cc                   	int3   
   140015f8d:	cc                   	int3   
   140015f8e:	cc                   	int3   
   140015f8f:	cc                   	int3   
   140015f90:	cc                   	int3   
   140015f91:	cc                   	int3   
   140015f92:	cc                   	int3   
   140015f93:	cc                   	int3   
   140015f94:	cc                   	int3   
   140015f95:	cc                   	int3   
   140015f96:	cc                   	int3   
   140015f97:	cc                   	int3   
   140015f98:	cc                   	int3   
   140015f99:	cc                   	int3   
   140015f9a:	cc                   	int3   
   140015f9b:	cc                   	int3   
   140015f9c:	cc                   	int3   
   140015f9d:	cc                   	int3   
   140015f9e:	cc                   	int3   
   140015f9f:	cc                   	int3   
   140015fa0:	cc                   	int3   
   140015fa1:	cc                   	int3   
   140015fa2:	cc                   	int3   
   140015fa3:	cc                   	int3   
   140015fa4:	cc                   	int3   
   140015fa5:	cc                   	int3   
   140015fa6:	cc                   	int3   
   140015fa7:	cc                   	int3   
   140015fa8:	cc                   	int3   
   140015fa9:	cc                   	int3   
   140015faa:	cc                   	int3   
   140015fab:	cc                   	int3   
   140015fac:	cc                   	int3   
   140015fad:	cc                   	int3   
   140015fae:	cc                   	int3   
   140015faf:	cc                   	int3   
   140015fb0:	cc                   	int3   
   140015fb1:	cc                   	int3   
   140015fb2:	cc                   	int3   
   140015fb3:	cc                   	int3   
   140015fb4:	cc                   	int3   
   140015fb5:	cc                   	int3   
   140015fb6:	cc                   	int3   
   140015fb7:	cc                   	int3   
   140015fb8:	cc                   	int3   
   140015fb9:	cc                   	int3   
   140015fba:	cc                   	int3   
   140015fbb:	cc                   	int3   
   140015fbc:	cc                   	int3   
   140015fbd:	cc                   	int3   
   140015fbe:	cc                   	int3   
   140015fbf:	cc                   	int3   
   140015fc0:	cc                   	int3   
   140015fc1:	cc                   	int3   
   140015fc2:	cc                   	int3   
   140015fc3:	cc                   	int3   
   140015fc4:	cc                   	int3   
   140015fc5:	cc                   	int3   
   140015fc6:	cc                   	int3   
   140015fc7:	cc                   	int3   
   140015fc8:	cc                   	int3   
   140015fc9:	cc                   	int3   
   140015fca:	cc                   	int3   
   140015fcb:	cc                   	int3   
   140015fcc:	cc                   	int3   
   140015fcd:	cc                   	int3   
   140015fce:	cc                   	int3   
   140015fcf:	cc                   	int3   
   140015fd0:	cc                   	int3   
   140015fd1:	cc                   	int3   
   140015fd2:	cc                   	int3   
   140015fd3:	cc                   	int3   
   140015fd4:	cc                   	int3   
   140015fd5:	cc                   	int3   
   140015fd6:	cc                   	int3   
   140015fd7:	cc                   	int3   
   140015fd8:	cc                   	int3   
   140015fd9:	cc                   	int3   
   140015fda:	cc                   	int3   
   140015fdb:	cc                   	int3   
   140015fdc:	cc                   	int3   
   140015fdd:	cc                   	int3   
   140015fde:	cc                   	int3   
   140015fdf:	cc                   	int3   
   140015fe0:	cc                   	int3   
   140015fe1:	cc                   	int3   
   140015fe2:	cc                   	int3   
   140015fe3:	cc                   	int3   
   140015fe4:	cc                   	int3   
   140015fe5:	cc                   	int3   
   140015fe6:	cc                   	int3   
   140015fe7:	cc                   	int3   
   140015fe8:	cc                   	int3   
   140015fe9:	cc                   	int3   
   140015fea:	cc                   	int3   
   140015feb:	cc                   	int3   
   140015fec:	cc                   	int3   
   140015fed:	cc                   	int3   
   140015fee:	cc                   	int3   
   140015fef:	cc                   	int3   
   140015ff0:	cc                   	int3   
   140015ff1:	cc                   	int3   
   140015ff2:	cc                   	int3   
   140015ff3:	cc                   	int3   
   140015ff4:	cc                   	int3   
   140015ff5:	cc                   	int3   
   140015ff6:	cc                   	int3   
   140015ff7:	cc                   	int3   
   140015ff8:	cc                   	int3   
   140015ff9:	cc                   	int3   
   140015ffa:	cc                   	int3   
   140015ffb:	cc                   	int3   
   140015ffc:	cc                   	int3   
   140015ffd:	cc                   	int3   
   140015ffe:	cc                   	int3   
   140015fff:	cc                   	int3   
   140016000:	cc                   	int3   
   140016001:	cc                   	int3   
   140016002:	cc                   	int3   
   140016003:	cc                   	int3   
   140016004:	cc                   	int3   
   140016005:	cc                   	int3   
   140016006:	cc                   	int3   
   140016007:	cc                   	int3   
   140016008:	cc                   	int3   
   140016009:	cc                   	int3   
   14001600a:	cc                   	int3   
   14001600b:	cc                   	int3   
   14001600c:	cc                   	int3   
   14001600d:	cc                   	int3   
   14001600e:	cc                   	int3   
   14001600f:	cc                   	int3   
   140016010:	cc                   	int3   
   140016011:	cc                   	int3   
   140016012:	cc                   	int3   
   140016013:	cc                   	int3   
   140016014:	cc                   	int3   
   140016015:	cc                   	int3   
   140016016:	cc                   	int3   
   140016017:	cc                   	int3   
   140016018:	cc                   	int3   
   140016019:	cc                   	int3   
   14001601a:	cc                   	int3   
   14001601b:	cc                   	int3   
   14001601c:	cc                   	int3   
   14001601d:	cc                   	int3   
   14001601e:	cc                   	int3   
   14001601f:	cc                   	int3   
   140016020:	cc                   	int3   
   140016021:	cc                   	int3   
   140016022:	cc                   	int3   
   140016023:	cc                   	int3   
   140016024:	cc                   	int3   
   140016025:	cc                   	int3   
   140016026:	cc                   	int3   
   140016027:	cc                   	int3   
   140016028:	cc                   	int3   
   140016029:	cc                   	int3   
   14001602a:	cc                   	int3   
   14001602b:	cc                   	int3   
   14001602c:	cc                   	int3   
   14001602d:	cc                   	int3   
   14001602e:	cc                   	int3   
   14001602f:	cc                   	int3   
   140016030:	cc                   	int3   
   140016031:	cc                   	int3   
   140016032:	cc                   	int3   
   140016033:	cc                   	int3   
   140016034:	cc                   	int3   
   140016035:	cc                   	int3   
   140016036:	cc                   	int3   
   140016037:	cc                   	int3   
   140016038:	cc                   	int3   
   140016039:	cc                   	int3   
   14001603a:	cc                   	int3   
   14001603b:	cc                   	int3   
   14001603c:	cc                   	int3   
   14001603d:	cc                   	int3   
   14001603e:	cc                   	int3   
   14001603f:	cc                   	int3   
   140016040:	cc                   	int3   
   140016041:	cc                   	int3   
   140016042:	cc                   	int3   
   140016043:	cc                   	int3   
   140016044:	cc                   	int3   
   140016045:	cc                   	int3   
   140016046:	cc                   	int3   
   140016047:	cc                   	int3   
   140016048:	cc                   	int3   
   140016049:	cc                   	int3   
   14001604a:	cc                   	int3   
   14001604b:	cc                   	int3   
   14001604c:	cc                   	int3   
   14001604d:	cc                   	int3   
   14001604e:	cc                   	int3   
   14001604f:	cc                   	int3   
   140016050:	cc                   	int3   
   140016051:	cc                   	int3   
   140016052:	cc                   	int3   
   140016053:	cc                   	int3   
   140016054:	cc                   	int3   
   140016055:	cc                   	int3   
   140016056:	cc                   	int3   
   140016057:	cc                   	int3   
   140016058:	cc                   	int3   
   140016059:	cc                   	int3   
   14001605a:	cc                   	int3   
   14001605b:	cc                   	int3   
   14001605c:	cc                   	int3   
   14001605d:	cc                   	int3   
   14001605e:	cc                   	int3   
   14001605f:	cc                   	int3   
   140016060:	cc                   	int3   
   140016061:	cc                   	int3   
   140016062:	cc                   	int3   
   140016063:	cc                   	int3   
   140016064:	cc                   	int3   
   140016065:	cc                   	int3   
   140016066:	cc                   	int3   
   140016067:	cc                   	int3   
   140016068:	cc                   	int3   
   140016069:	cc                   	int3   
   14001606a:	cc                   	int3   
   14001606b:	cc                   	int3   
   14001606c:	cc                   	int3   
   14001606d:	cc                   	int3   
   14001606e:	cc                   	int3   
   14001606f:	cc                   	int3   
   140016070:	cc                   	int3   
   140016071:	cc                   	int3   
   140016072:	cc                   	int3   
   140016073:	cc                   	int3   
   140016074:	cc                   	int3   
   140016075:	cc                   	int3   
   140016076:	cc                   	int3   
   140016077:	cc                   	int3   
   140016078:	cc                   	int3   
   140016079:	cc                   	int3   
   14001607a:	cc                   	int3   
   14001607b:	cc                   	int3   
   14001607c:	cc                   	int3   
   14001607d:	cc                   	int3   
   14001607e:	cc                   	int3   
   14001607f:	cc                   	int3   
   140016080:	cc                   	int3   
   140016081:	cc                   	int3   
   140016082:	cc                   	int3   
   140016083:	cc                   	int3   
   140016084:	cc                   	int3   
   140016085:	cc                   	int3   
   140016086:	cc                   	int3   
   140016087:	cc                   	int3   
   140016088:	cc                   	int3   
   140016089:	cc                   	int3   
   14001608a:	cc                   	int3   
   14001608b:	cc                   	int3   
   14001608c:	cc                   	int3   
   14001608d:	cc                   	int3   
   14001608e:	cc                   	int3   
   14001608f:	cc                   	int3   
   140016090:	cc                   	int3   
   140016091:	cc                   	int3   
   140016092:	cc                   	int3   
   140016093:	cc                   	int3   
   140016094:	cc                   	int3   
   140016095:	cc                   	int3   
   140016096:	cc                   	int3   
   140016097:	cc                   	int3   
   140016098:	cc                   	int3   
   140016099:	cc                   	int3   
   14001609a:	cc                   	int3   
   14001609b:	cc                   	int3   
   14001609c:	cc                   	int3   
   14001609d:	cc                   	int3   
   14001609e:	cc                   	int3   
   14001609f:	cc                   	int3   
   1400160a0:	cc                   	int3   
   1400160a1:	cc                   	int3   
   1400160a2:	cc                   	int3   
   1400160a3:	cc                   	int3   
   1400160a4:	cc                   	int3   
   1400160a5:	cc                   	int3   
   1400160a6:	cc                   	int3   
   1400160a7:	cc                   	int3   
   1400160a8:	cc                   	int3   
   1400160a9:	cc                   	int3   
   1400160aa:	cc                   	int3   
   1400160ab:	cc                   	int3   
   1400160ac:	cc                   	int3   
   1400160ad:	cc                   	int3   
   1400160ae:	cc                   	int3   
   1400160af:	cc                   	int3   
   1400160b0:	cc                   	int3   
   1400160b1:	cc                   	int3   
   1400160b2:	cc                   	int3   
   1400160b3:	cc                   	int3   
   1400160b4:	cc                   	int3   
   1400160b5:	cc                   	int3   
   1400160b6:	cc                   	int3   
   1400160b7:	cc                   	int3   
   1400160b8:	cc                   	int3   
   1400160b9:	cc                   	int3   
   1400160ba:	cc                   	int3   
   1400160bb:	cc                   	int3   
   1400160bc:	cc                   	int3   
   1400160bd:	cc                   	int3   
   1400160be:	cc                   	int3   
   1400160bf:	cc                   	int3   
   1400160c0:	cc                   	int3   
   1400160c1:	cc                   	int3   
   1400160c2:	cc                   	int3   
   1400160c3:	cc                   	int3   
   1400160c4:	cc                   	int3   
   1400160c5:	cc                   	int3   
   1400160c6:	cc                   	int3   
   1400160c7:	cc                   	int3   
   1400160c8:	cc                   	int3   
   1400160c9:	cc                   	int3   
   1400160ca:	cc                   	int3   
   1400160cb:	cc                   	int3   
   1400160cc:	cc                   	int3   
   1400160cd:	cc                   	int3   
   1400160ce:	cc                   	int3   
   1400160cf:	cc                   	int3   
   1400160d0:	cc                   	int3   
   1400160d1:	cc                   	int3   
   1400160d2:	cc                   	int3   
   1400160d3:	cc                   	int3   
   1400160d4:	cc                   	int3   
   1400160d5:	cc                   	int3   
   1400160d6:	cc                   	int3   
   1400160d7:	cc                   	int3   
   1400160d8:	cc                   	int3   
   1400160d9:	cc                   	int3   
   1400160da:	cc                   	int3   
   1400160db:	cc                   	int3   
   1400160dc:	cc                   	int3   
   1400160dd:	cc                   	int3   
   1400160de:	cc                   	int3   
   1400160df:	cc                   	int3   
   1400160e0:	cc                   	int3   
   1400160e1:	cc                   	int3   
   1400160e2:	cc                   	int3   
   1400160e3:	cc                   	int3   
   1400160e4:	cc                   	int3   
   1400160e5:	cc                   	int3   
   1400160e6:	cc                   	int3   
   1400160e7:	cc                   	int3   
   1400160e8:	cc                   	int3   
   1400160e9:	cc                   	int3   
   1400160ea:	cc                   	int3   
   1400160eb:	cc                   	int3   
   1400160ec:	cc                   	int3   
   1400160ed:	cc                   	int3   
   1400160ee:	cc                   	int3   
   1400160ef:	cc                   	int3   
   1400160f0:	cc                   	int3   
   1400160f1:	cc                   	int3   
   1400160f2:	cc                   	int3   
   1400160f3:	cc                   	int3   
   1400160f4:	cc                   	int3   
   1400160f5:	cc                   	int3   
   1400160f6:	cc                   	int3   
   1400160f7:	cc                   	int3   
   1400160f8:	cc                   	int3   
   1400160f9:	cc                   	int3   
   1400160fa:	cc                   	int3   
   1400160fb:	cc                   	int3   
   1400160fc:	cc                   	int3   
   1400160fd:	cc                   	int3   
   1400160fe:	cc                   	int3   
   1400160ff:	cc                   	int3   
   140016100:	cc                   	int3   
   140016101:	cc                   	int3   
   140016102:	cc                   	int3   
   140016103:	cc                   	int3   
   140016104:	cc                   	int3   
   140016105:	cc                   	int3   
   140016106:	cc                   	int3   
   140016107:	cc                   	int3   
   140016108:	cc                   	int3   
   140016109:	cc                   	int3   
   14001610a:	cc                   	int3   
   14001610b:	cc                   	int3   
   14001610c:	cc                   	int3   
   14001610d:	cc                   	int3   
   14001610e:	cc                   	int3   
   14001610f:	cc                   	int3   
   140016110:	cc                   	int3   
   140016111:	cc                   	int3   
   140016112:	cc                   	int3   
   140016113:	cc                   	int3   
   140016114:	cc                   	int3   
   140016115:	cc                   	int3   
   140016116:	cc                   	int3   
   140016117:	cc                   	int3   
   140016118:	cc                   	int3   
   140016119:	cc                   	int3   
   14001611a:	cc                   	int3   
   14001611b:	cc                   	int3   
   14001611c:	cc                   	int3   
   14001611d:	cc                   	int3   
   14001611e:	cc                   	int3   
   14001611f:	cc                   	int3   
   140016120:	cc                   	int3   
   140016121:	cc                   	int3   
   140016122:	cc                   	int3   
   140016123:	cc                   	int3   
   140016124:	cc                   	int3   
   140016125:	cc                   	int3   
   140016126:	cc                   	int3   
   140016127:	cc                   	int3   
   140016128:	cc                   	int3   
   140016129:	cc                   	int3   
   14001612a:	cc                   	int3   
   14001612b:	cc                   	int3   
   14001612c:	cc                   	int3   
   14001612d:	cc                   	int3   
   14001612e:	cc                   	int3   
   14001612f:	cc                   	int3   
   140016130:	cc                   	int3   
   140016131:	cc                   	int3   
   140016132:	cc                   	int3   
   140016133:	cc                   	int3   
   140016134:	cc                   	int3   
   140016135:	cc                   	int3   
   140016136:	cc                   	int3   
   140016137:	cc                   	int3   
   140016138:	cc                   	int3   
   140016139:	cc                   	int3   
   14001613a:	cc                   	int3   
   14001613b:	cc                   	int3   
   14001613c:	cc                   	int3   
   14001613d:	cc                   	int3   
   14001613e:	cc                   	int3   
   14001613f:	cc                   	int3   
   140016140:	cc                   	int3   
   140016141:	cc                   	int3   
   140016142:	cc                   	int3   
   140016143:	cc                   	int3   
   140016144:	cc                   	int3   
   140016145:	cc                   	int3   
   140016146:	cc                   	int3   
   140016147:	cc                   	int3   
   140016148:	cc                   	int3   
   140016149:	cc                   	int3   
   14001614a:	cc                   	int3   
   14001614b:	cc                   	int3   
   14001614c:	cc                   	int3   
   14001614d:	cc                   	int3   
   14001614e:	cc                   	int3   
   14001614f:	cc                   	int3   
   140016150:	cc                   	int3   
   140016151:	cc                   	int3   
   140016152:	cc                   	int3   
   140016153:	cc                   	int3   
   140016154:	cc                   	int3   
   140016155:	cc                   	int3   
   140016156:	cc                   	int3   
   140016157:	cc                   	int3   
   140016158:	cc                   	int3   
   140016159:	cc                   	int3   
   14001615a:	cc                   	int3   
   14001615b:	cc                   	int3   
   14001615c:	cc                   	int3   
   14001615d:	cc                   	int3   
   14001615e:	cc                   	int3   
   14001615f:	cc                   	int3   
   140016160:	cc                   	int3   
   140016161:	cc                   	int3   
   140016162:	cc                   	int3   
   140016163:	cc                   	int3   
   140016164:	cc                   	int3   
   140016165:	cc                   	int3   
   140016166:	cc                   	int3   
   140016167:	cc                   	int3   
   140016168:	cc                   	int3   
   140016169:	cc                   	int3   
   14001616a:	cc                   	int3   
   14001616b:	cc                   	int3   
   14001616c:	cc                   	int3   
   14001616d:	cc                   	int3   
   14001616e:	cc                   	int3   
   14001616f:	cc                   	int3   
   140016170:	cc                   	int3   
   140016171:	cc                   	int3   
   140016172:	cc                   	int3   
   140016173:	cc                   	int3   
   140016174:	cc                   	int3   
   140016175:	cc                   	int3   
   140016176:	cc                   	int3   
   140016177:	cc                   	int3   
   140016178:	cc                   	int3   
   140016179:	cc                   	int3   
   14001617a:	cc                   	int3   
   14001617b:	cc                   	int3   
   14001617c:	cc                   	int3   
   14001617d:	cc                   	int3   
   14001617e:	cc                   	int3   
   14001617f:	cc                   	int3   
   140016180:	cc                   	int3   
   140016181:	cc                   	int3   
   140016182:	cc                   	int3   
   140016183:	cc                   	int3   
   140016184:	cc                   	int3   
   140016185:	cc                   	int3   
   140016186:	cc                   	int3   
   140016187:	cc                   	int3   
   140016188:	cc                   	int3   
   140016189:	cc                   	int3   
   14001618a:	cc                   	int3   
   14001618b:	cc                   	int3   
   14001618c:	cc                   	int3   
   14001618d:	cc                   	int3   
   14001618e:	cc                   	int3   
   14001618f:	cc                   	int3   
   140016190:	cc                   	int3   
   140016191:	cc                   	int3   
   140016192:	cc                   	int3   
   140016193:	cc                   	int3   
   140016194:	cc                   	int3   
   140016195:	cc                   	int3   
   140016196:	cc                   	int3   
   140016197:	cc                   	int3   
   140016198:	cc                   	int3   
   140016199:	cc                   	int3   
   14001619a:	cc                   	int3   
   14001619b:	cc                   	int3   
   14001619c:	cc                   	int3   
   14001619d:	cc                   	int3   
   14001619e:	cc                   	int3   
   14001619f:	cc                   	int3   
   1400161a0:	cc                   	int3   
   1400161a1:	cc                   	int3   
   1400161a2:	cc                   	int3   
   1400161a3:	cc                   	int3   
   1400161a4:	cc                   	int3   
   1400161a5:	cc                   	int3   
   1400161a6:	cc                   	int3   
   1400161a7:	cc                   	int3   
   1400161a8:	cc                   	int3   
   1400161a9:	cc                   	int3   
   1400161aa:	cc                   	int3   
   1400161ab:	cc                   	int3   
   1400161ac:	cc                   	int3   
   1400161ad:	cc                   	int3   
   1400161ae:	cc                   	int3   
   1400161af:	cc                   	int3   
   1400161b0:	cc                   	int3   
   1400161b1:	cc                   	int3   
   1400161b2:	cc                   	int3   
   1400161b3:	cc                   	int3   
   1400161b4:	cc                   	int3   
   1400161b5:	cc                   	int3   
   1400161b6:	cc                   	int3   
   1400161b7:	cc                   	int3   
   1400161b8:	cc                   	int3   
   1400161b9:	cc                   	int3   
   1400161ba:	cc                   	int3   
   1400161bb:	cc                   	int3   
   1400161bc:	cc                   	int3   
   1400161bd:	cc                   	int3   
   1400161be:	cc                   	int3   
   1400161bf:	cc                   	int3   
   1400161c0:	cc                   	int3   
   1400161c1:	cc                   	int3   
   1400161c2:	cc                   	int3   
   1400161c3:	cc                   	int3   
   1400161c4:	cc                   	int3   
   1400161c5:	cc                   	int3   
   1400161c6:	cc                   	int3   
   1400161c7:	cc                   	int3   
   1400161c8:	cc                   	int3   
   1400161c9:	cc                   	int3   
   1400161ca:	cc                   	int3   
   1400161cb:	cc                   	int3   
   1400161cc:	cc                   	int3   
   1400161cd:	cc                   	int3   
   1400161ce:	cc                   	int3   
   1400161cf:	cc                   	int3   
   1400161d0:	cc                   	int3   
   1400161d1:	cc                   	int3   
   1400161d2:	cc                   	int3   
   1400161d3:	cc                   	int3   
   1400161d4:	cc                   	int3   
   1400161d5:	cc                   	int3   
   1400161d6:	cc                   	int3   
   1400161d7:	cc                   	int3   
   1400161d8:	cc                   	int3   
   1400161d9:	cc                   	int3   
   1400161da:	cc                   	int3   
   1400161db:	cc                   	int3   
   1400161dc:	cc                   	int3   
   1400161dd:	cc                   	int3   
   1400161de:	cc                   	int3   
   1400161df:	cc                   	int3   
   1400161e0:	cc                   	int3   
   1400161e1:	cc                   	int3   
   1400161e2:	cc                   	int3   
   1400161e3:	cc                   	int3   
   1400161e4:	cc                   	int3   
   1400161e5:	cc                   	int3   
   1400161e6:	cc                   	int3   
   1400161e7:	cc                   	int3   
   1400161e8:	cc                   	int3   
   1400161e9:	cc                   	int3   
   1400161ea:	cc                   	int3   
   1400161eb:	cc                   	int3   
   1400161ec:	cc                   	int3   
   1400161ed:	cc                   	int3   
   1400161ee:	cc                   	int3   
   1400161ef:	cc                   	int3   
   1400161f0:	cc                   	int3   
   1400161f1:	cc                   	int3   
   1400161f2:	cc                   	int3   
   1400161f3:	cc                   	int3   
   1400161f4:	cc                   	int3   
   1400161f5:	cc                   	int3   
   1400161f6:	cc                   	int3   
   1400161f7:	cc                   	int3   
   1400161f8:	cc                   	int3   
   1400161f9:	cc                   	int3   
   1400161fa:	cc                   	int3   
   1400161fb:	cc                   	int3   
   1400161fc:	cc                   	int3   
   1400161fd:	cc                   	int3   
   1400161fe:	cc                   	int3   
   1400161ff:	cc                   	int3   
   140016200:	cc                   	int3   
   140016201:	cc                   	int3   
   140016202:	cc                   	int3   
   140016203:	cc                   	int3   
   140016204:	cc                   	int3   
   140016205:	cc                   	int3   
   140016206:	cc                   	int3   
   140016207:	cc                   	int3   
   140016208:	cc                   	int3   
   140016209:	cc                   	int3   
   14001620a:	cc                   	int3   
   14001620b:	cc                   	int3   
   14001620c:	cc                   	int3   
   14001620d:	cc                   	int3   
   14001620e:	cc                   	int3   
   14001620f:	cc                   	int3   
   140016210:	cc                   	int3   
   140016211:	cc                   	int3   
   140016212:	cc                   	int3   
   140016213:	cc                   	int3   
   140016214:	cc                   	int3   
   140016215:	cc                   	int3   
   140016216:	cc                   	int3   
   140016217:	cc                   	int3   
   140016218:	cc                   	int3   
   140016219:	cc                   	int3   
   14001621a:	cc                   	int3   
   14001621b:	cc                   	int3   
   14001621c:	cc                   	int3   
   14001621d:	cc                   	int3   
   14001621e:	cc                   	int3   
   14001621f:	cc                   	int3   
   140016220:	cc                   	int3   
   140016221:	cc                   	int3   
   140016222:	cc                   	int3   
   140016223:	cc                   	int3   
   140016224:	cc                   	int3   
   140016225:	cc                   	int3   
   140016226:	cc                   	int3   
   140016227:	cc                   	int3   
   140016228:	cc                   	int3   
   140016229:	cc                   	int3   
   14001622a:	cc                   	int3   
   14001622b:	cc                   	int3   
   14001622c:	cc                   	int3   
   14001622d:	cc                   	int3   
   14001622e:	cc                   	int3   
   14001622f:	cc                   	int3   
   140016230:	cc                   	int3   
   140016231:	cc                   	int3   
   140016232:	cc                   	int3   
   140016233:	cc                   	int3   
   140016234:	cc                   	int3   
   140016235:	cc                   	int3   
   140016236:	cc                   	int3   
   140016237:	cc                   	int3   
   140016238:	cc                   	int3   
   140016239:	cc                   	int3   
   14001623a:	cc                   	int3   
   14001623b:	cc                   	int3   
   14001623c:	cc                   	int3   
   14001623d:	cc                   	int3   
   14001623e:	cc                   	int3   
   14001623f:	cc                   	int3   
   140016240:	cc                   	int3   
   140016241:	cc                   	int3   
   140016242:	cc                   	int3   
   140016243:	cc                   	int3   
   140016244:	cc                   	int3   
   140016245:	cc                   	int3   
   140016246:	cc                   	int3   
   140016247:	cc                   	int3   
   140016248:	cc                   	int3   
   140016249:	cc                   	int3   
   14001624a:	cc                   	int3   
   14001624b:	cc                   	int3   
   14001624c:	cc                   	int3   
   14001624d:	cc                   	int3   
   14001624e:	cc                   	int3   
   14001624f:	cc                   	int3   
   140016250:	cc                   	int3   
   140016251:	cc                   	int3   
   140016252:	cc                   	int3   
   140016253:	cc                   	int3   
   140016254:	cc                   	int3   
   140016255:	cc                   	int3   
   140016256:	cc                   	int3   
   140016257:	cc                   	int3   
   140016258:	cc                   	int3   
   140016259:	cc                   	int3   
   14001625a:	cc                   	int3   
   14001625b:	cc                   	int3   
   14001625c:	cc                   	int3   
   14001625d:	cc                   	int3   
   14001625e:	cc                   	int3   
   14001625f:	cc                   	int3   
   140016260:	cc                   	int3   
   140016261:	cc                   	int3   
   140016262:	cc                   	int3   
   140016263:	cc                   	int3   
   140016264:	cc                   	int3   
   140016265:	cc                   	int3   
   140016266:	cc                   	int3   
   140016267:	cc                   	int3   
   140016268:	cc                   	int3   
   140016269:	cc                   	int3   
   14001626a:	cc                   	int3   
   14001626b:	cc                   	int3   
   14001626c:	cc                   	int3   
   14001626d:	cc                   	int3   
   14001626e:	cc                   	int3   
   14001626f:	cc                   	int3   
   140016270:	cc                   	int3   
   140016271:	cc                   	int3   
   140016272:	cc                   	int3   
   140016273:	cc                   	int3   
   140016274:	cc                   	int3   
   140016275:	cc                   	int3   
   140016276:	cc                   	int3   
   140016277:	cc                   	int3   
   140016278:	cc                   	int3   
   140016279:	cc                   	int3   
   14001627a:	cc                   	int3   
   14001627b:	cc                   	int3   
   14001627c:	cc                   	int3   
   14001627d:	cc                   	int3   
   14001627e:	cc                   	int3   
   14001627f:	cc                   	int3   
   140016280:	cc                   	int3   
   140016281:	cc                   	int3   
   140016282:	cc                   	int3   
   140016283:	cc                   	int3   
   140016284:	cc                   	int3   
   140016285:	cc                   	int3   
   140016286:	cc                   	int3   
   140016287:	cc                   	int3   
   140016288:	cc                   	int3   
   140016289:	cc                   	int3   
   14001628a:	cc                   	int3   
   14001628b:	cc                   	int3   
   14001628c:	cc                   	int3   
   14001628d:	cc                   	int3   
   14001628e:	cc                   	int3   
   14001628f:	cc                   	int3   
   140016290:	cc                   	int3   
   140016291:	cc                   	int3   
   140016292:	cc                   	int3   
   140016293:	cc                   	int3   
   140016294:	cc                   	int3   
   140016295:	cc                   	int3   
   140016296:	cc                   	int3   
   140016297:	cc                   	int3   
   140016298:	cc                   	int3   
   140016299:	cc                   	int3   
   14001629a:	cc                   	int3   
   14001629b:	cc                   	int3   
   14001629c:	cc                   	int3   
   14001629d:	cc                   	int3   
   14001629e:	cc                   	int3   
   14001629f:	cc                   	int3   
   1400162a0:	cc                   	int3   
   1400162a1:	cc                   	int3   
   1400162a2:	cc                   	int3   
   1400162a3:	cc                   	int3   
   1400162a4:	cc                   	int3   
   1400162a5:	cc                   	int3   
   1400162a6:	cc                   	int3   
   1400162a7:	cc                   	int3   
   1400162a8:	cc                   	int3   
   1400162a9:	cc                   	int3   
   1400162aa:	cc                   	int3   
   1400162ab:	cc                   	int3   
   1400162ac:	cc                   	int3   
   1400162ad:	cc                   	int3   
   1400162ae:	cc                   	int3   
   1400162af:	cc                   	int3   
   1400162b0:	cc                   	int3   
   1400162b1:	cc                   	int3   
   1400162b2:	cc                   	int3   
   1400162b3:	cc                   	int3   
   1400162b4:	cc                   	int3   
   1400162b5:	cc                   	int3   
   1400162b6:	cc                   	int3   
   1400162b7:	cc                   	int3   
   1400162b8:	cc                   	int3   
   1400162b9:	cc                   	int3   
   1400162ba:	cc                   	int3   
   1400162bb:	cc                   	int3   
   1400162bc:	cc                   	int3   
   1400162bd:	cc                   	int3   
   1400162be:	cc                   	int3   
   1400162bf:	cc                   	int3   
   1400162c0:	cc                   	int3   
   1400162c1:	cc                   	int3   
   1400162c2:	cc                   	int3   
   1400162c3:	cc                   	int3   
   1400162c4:	cc                   	int3   
   1400162c5:	cc                   	int3   
   1400162c6:	cc                   	int3   
   1400162c7:	cc                   	int3   
   1400162c8:	cc                   	int3   
   1400162c9:	cc                   	int3   
   1400162ca:	cc                   	int3   
   1400162cb:	cc                   	int3   
   1400162cc:	cc                   	int3   
   1400162cd:	cc                   	int3   
   1400162ce:	cc                   	int3   
   1400162cf:	cc                   	int3   
   1400162d0:	cc                   	int3   
   1400162d1:	cc                   	int3   
   1400162d2:	cc                   	int3   
   1400162d3:	cc                   	int3   
   1400162d4:	cc                   	int3   
   1400162d5:	cc                   	int3   
   1400162d6:	cc                   	int3   
   1400162d7:	cc                   	int3   
   1400162d8:	cc                   	int3   
   1400162d9:	cc                   	int3   
   1400162da:	cc                   	int3   
   1400162db:	cc                   	int3   
   1400162dc:	cc                   	int3   
   1400162dd:	cc                   	int3   
   1400162de:	cc                   	int3   
   1400162df:	cc                   	int3   
   1400162e0:	cc                   	int3   
   1400162e1:	cc                   	int3   
   1400162e2:	cc                   	int3   
   1400162e3:	cc                   	int3   
   1400162e4:	cc                   	int3   
   1400162e5:	cc                   	int3   
   1400162e6:	cc                   	int3   
   1400162e7:	cc                   	int3   
   1400162e8:	cc                   	int3   
   1400162e9:	cc                   	int3   
   1400162ea:	cc                   	int3   
   1400162eb:	cc                   	int3   
   1400162ec:	cc                   	int3   
   1400162ed:	cc                   	int3   
   1400162ee:	cc                   	int3   
   1400162ef:	cc                   	int3   
   1400162f0:	cc                   	int3   
   1400162f1:	cc                   	int3   
   1400162f2:	cc                   	int3   
   1400162f3:	cc                   	int3   
   1400162f4:	cc                   	int3   
   1400162f5:	cc                   	int3   
   1400162f6:	cc                   	int3   
   1400162f7:	cc                   	int3   
   1400162f8:	cc                   	int3   
   1400162f9:	cc                   	int3   
   1400162fa:	cc                   	int3   
   1400162fb:	cc                   	int3   
   1400162fc:	cc                   	int3   
   1400162fd:	cc                   	int3   
   1400162fe:	cc                   	int3   
   1400162ff:	cc                   	int3   
   140016300:	cc                   	int3   
   140016301:	cc                   	int3   
   140016302:	cc                   	int3   
   140016303:	cc                   	int3   
   140016304:	cc                   	int3   
   140016305:	cc                   	int3   
   140016306:	cc                   	int3   
   140016307:	cc                   	int3   
   140016308:	cc                   	int3   
   140016309:	cc                   	int3   
   14001630a:	cc                   	int3   
   14001630b:	cc                   	int3   
   14001630c:	cc                   	int3   
   14001630d:	cc                   	int3   
   14001630e:	cc                   	int3   
   14001630f:	cc                   	int3   
   140016310:	cc                   	int3   
   140016311:	cc                   	int3   
   140016312:	cc                   	int3   
   140016313:	cc                   	int3   
   140016314:	cc                   	int3   
   140016315:	cc                   	int3   
   140016316:	cc                   	int3   
   140016317:	cc                   	int3   
   140016318:	cc                   	int3   
   140016319:	cc                   	int3   
   14001631a:	cc                   	int3   
   14001631b:	cc                   	int3   
   14001631c:	cc                   	int3   
   14001631d:	cc                   	int3   
   14001631e:	cc                   	int3   
   14001631f:	cc                   	int3   
   140016320:	cc                   	int3   
   140016321:	cc                   	int3   
   140016322:	cc                   	int3   
   140016323:	cc                   	int3   
   140016324:	cc                   	int3   
   140016325:	cc                   	int3   
   140016326:	cc                   	int3   
   140016327:	cc                   	int3   
   140016328:	cc                   	int3   
   140016329:	cc                   	int3   
   14001632a:	cc                   	int3   
   14001632b:	cc                   	int3   
   14001632c:	cc                   	int3   
   14001632d:	cc                   	int3   
   14001632e:	cc                   	int3   
   14001632f:	cc                   	int3   
   140016330:	cc                   	int3   
   140016331:	cc                   	int3   
   140016332:	cc                   	int3   
   140016333:	cc                   	int3   
   140016334:	cc                   	int3   
   140016335:	cc                   	int3   
   140016336:	cc                   	int3   
   140016337:	cc                   	int3   
   140016338:	cc                   	int3   
   140016339:	cc                   	int3   
   14001633a:	cc                   	int3   
   14001633b:	cc                   	int3   
   14001633c:	cc                   	int3   
   14001633d:	cc                   	int3   
   14001633e:	cc                   	int3   
   14001633f:	cc                   	int3   
   140016340:	cc                   	int3   
   140016341:	cc                   	int3   
   140016342:	cc                   	int3   
   140016343:	cc                   	int3   
   140016344:	cc                   	int3   
   140016345:	cc                   	int3   
   140016346:	cc                   	int3   
   140016347:	cc                   	int3   
   140016348:	cc                   	int3   
   140016349:	cc                   	int3   
   14001634a:	cc                   	int3   
   14001634b:	cc                   	int3   
   14001634c:	cc                   	int3   
   14001634d:	cc                   	int3   
   14001634e:	cc                   	int3   
   14001634f:	cc                   	int3   
   140016350:	cc                   	int3   
   140016351:	cc                   	int3   
   140016352:	cc                   	int3   
   140016353:	cc                   	int3   
   140016354:	cc                   	int3   
   140016355:	cc                   	int3   
   140016356:	cc                   	int3   
   140016357:	cc                   	int3   
   140016358:	cc                   	int3   
   140016359:	cc                   	int3   
   14001635a:	cc                   	int3   
   14001635b:	cc                   	int3   
   14001635c:	cc                   	int3   
   14001635d:	cc                   	int3   
   14001635e:	cc                   	int3   
   14001635f:	cc                   	int3   
   140016360:	cc                   	int3   
   140016361:	cc                   	int3   
   140016362:	cc                   	int3   
   140016363:	cc                   	int3   
   140016364:	cc                   	int3   
   140016365:	cc                   	int3   
   140016366:	cc                   	int3   
   140016367:	cc                   	int3   
   140016368:	cc                   	int3   
   140016369:	cc                   	int3   
   14001636a:	cc                   	int3   
   14001636b:	cc                   	int3   
   14001636c:	cc                   	int3   
   14001636d:	cc                   	int3   
   14001636e:	cc                   	int3   
   14001636f:	cc                   	int3   
   140016370:	cc                   	int3   
   140016371:	cc                   	int3   
   140016372:	cc                   	int3   
   140016373:	cc                   	int3   
   140016374:	cc                   	int3   
   140016375:	cc                   	int3   
   140016376:	cc                   	int3   
   140016377:	cc                   	int3   
   140016378:	cc                   	int3   
   140016379:	cc                   	int3   
   14001637a:	cc                   	int3   
   14001637b:	cc                   	int3   
   14001637c:	cc                   	int3   
   14001637d:	cc                   	int3   
   14001637e:	cc                   	int3   
   14001637f:	cc                   	int3   
   140016380:	cc                   	int3   
   140016381:	cc                   	int3   
   140016382:	cc                   	int3   
   140016383:	cc                   	int3   
   140016384:	cc                   	int3   
   140016385:	cc                   	int3   
   140016386:	cc                   	int3   
   140016387:	cc                   	int3   
   140016388:	cc                   	int3   
   140016389:	cc                   	int3   
   14001638a:	cc                   	int3   
   14001638b:	cc                   	int3   
   14001638c:	cc                   	int3   
   14001638d:	cc                   	int3   
   14001638e:	cc                   	int3   
   14001638f:	cc                   	int3   
   140016390:	cc                   	int3   
   140016391:	cc                   	int3   
   140016392:	cc                   	int3   
   140016393:	cc                   	int3   
   140016394:	cc                   	int3   
   140016395:	cc                   	int3   
   140016396:	cc                   	int3   
   140016397:	cc                   	int3   
   140016398:	cc                   	int3   
   140016399:	cc                   	int3   
   14001639a:	cc                   	int3   
   14001639b:	cc                   	int3   
   14001639c:	cc                   	int3   
   14001639d:	cc                   	int3   
   14001639e:	cc                   	int3   
   14001639f:	cc                   	int3   
   1400163a0:	cc                   	int3   
   1400163a1:	cc                   	int3   
   1400163a2:	cc                   	int3   
   1400163a3:	cc                   	int3   
   1400163a4:	cc                   	int3   
   1400163a5:	cc                   	int3   
   1400163a6:	cc                   	int3   
   1400163a7:	cc                   	int3   
   1400163a8:	cc                   	int3   
   1400163a9:	cc                   	int3   
   1400163aa:	cc                   	int3   
   1400163ab:	cc                   	int3   
   1400163ac:	cc                   	int3   
   1400163ad:	cc                   	int3   
   1400163ae:	cc                   	int3   
   1400163af:	cc                   	int3   
   1400163b0:	cc                   	int3   
   1400163b1:	cc                   	int3   
   1400163b2:	cc                   	int3   
   1400163b3:	cc                   	int3   
   1400163b4:	cc                   	int3   
   1400163b5:	cc                   	int3   
   1400163b6:	cc                   	int3   
   1400163b7:	cc                   	int3   
   1400163b8:	cc                   	int3   
   1400163b9:	cc                   	int3   
   1400163ba:	cc                   	int3   
   1400163bb:	cc                   	int3   
   1400163bc:	cc                   	int3   
   1400163bd:	cc                   	int3   
   1400163be:	cc                   	int3   
   1400163bf:	cc                   	int3   
   1400163c0:	cc                   	int3   
   1400163c1:	cc                   	int3   
   1400163c2:	cc                   	int3   
   1400163c3:	cc                   	int3   
   1400163c4:	cc                   	int3   
   1400163c5:	cc                   	int3   
   1400163c6:	cc                   	int3   
   1400163c7:	cc                   	int3   
   1400163c8:	cc                   	int3   
   1400163c9:	cc                   	int3   
   1400163ca:	cc                   	int3   
   1400163cb:	cc                   	int3   
   1400163cc:	cc                   	int3   
   1400163cd:	cc                   	int3   
   1400163ce:	cc                   	int3   
   1400163cf:	cc                   	int3   
   1400163d0:	cc                   	int3   
   1400163d1:	cc                   	int3   
   1400163d2:	cc                   	int3   
   1400163d3:	cc                   	int3   
   1400163d4:	cc                   	int3   
   1400163d5:	cc                   	int3   
   1400163d6:	cc                   	int3   
   1400163d7:	cc                   	int3   
   1400163d8:	cc                   	int3   
   1400163d9:	cc                   	int3   
   1400163da:	cc                   	int3   
   1400163db:	cc                   	int3   
   1400163dc:	cc                   	int3   
   1400163dd:	cc                   	int3   
   1400163de:	cc                   	int3   
   1400163df:	cc                   	int3   
   1400163e0:	cc                   	int3   
   1400163e1:	cc                   	int3   
   1400163e2:	cc                   	int3   
   1400163e3:	cc                   	int3   
   1400163e4:	cc                   	int3   
   1400163e5:	cc                   	int3   
   1400163e6:	cc                   	int3   
   1400163e7:	cc                   	int3   
   1400163e8:	cc                   	int3   
   1400163e9:	cc                   	int3   
   1400163ea:	cc                   	int3   
   1400163eb:	cc                   	int3   
   1400163ec:	cc                   	int3   
   1400163ed:	cc                   	int3   
   1400163ee:	cc                   	int3   
   1400163ef:	cc                   	int3   
   1400163f0:	cc                   	int3   
   1400163f1:	cc                   	int3   
   1400163f2:	cc                   	int3   
   1400163f3:	cc                   	int3   
   1400163f4:	cc                   	int3   
   1400163f5:	cc                   	int3   
   1400163f6:	cc                   	int3   
   1400163f7:	cc                   	int3   
   1400163f8:	cc                   	int3   
   1400163f9:	cc                   	int3   
   1400163fa:	cc                   	int3   
   1400163fb:	cc                   	int3   
   1400163fc:	cc                   	int3   
   1400163fd:	cc                   	int3   
   1400163fe:	cc                   	int3   
   1400163ff:	cc                   	int3   
   140016400:	cc                   	int3   
   140016401:	cc                   	int3   
   140016402:	cc                   	int3   
   140016403:	cc                   	int3   
   140016404:	cc                   	int3   
   140016405:	cc                   	int3   
   140016406:	cc                   	int3   
   140016407:	cc                   	int3   
   140016408:	cc                   	int3   
   140016409:	cc                   	int3   
   14001640a:	cc                   	int3   
   14001640b:	cc                   	int3   
   14001640c:	cc                   	int3   
   14001640d:	cc                   	int3   
   14001640e:	cc                   	int3   
   14001640f:	cc                   	int3   
   140016410:	cc                   	int3   
   140016411:	cc                   	int3   
   140016412:	cc                   	int3   
   140016413:	cc                   	int3   
   140016414:	cc                   	int3   
   140016415:	cc                   	int3   
   140016416:	cc                   	int3   
   140016417:	cc                   	int3   
   140016418:	cc                   	int3   
   140016419:	cc                   	int3   
   14001641a:	cc                   	int3   
   14001641b:	cc                   	int3   
   14001641c:	cc                   	int3   
   14001641d:	cc                   	int3   
   14001641e:	cc                   	int3   
   14001641f:	cc                   	int3   
   140016420:	cc                   	int3   
   140016421:	cc                   	int3   
   140016422:	cc                   	int3   
   140016423:	cc                   	int3   
   140016424:	cc                   	int3   
   140016425:	cc                   	int3   
   140016426:	cc                   	int3   
   140016427:	cc                   	int3   
   140016428:	cc                   	int3   
   140016429:	cc                   	int3   
   14001642a:	cc                   	int3   
   14001642b:	cc                   	int3   
   14001642c:	cc                   	int3   
   14001642d:	cc                   	int3   
   14001642e:	cc                   	int3   
   14001642f:	cc                   	int3   
   140016430:	cc                   	int3   
   140016431:	cc                   	int3   
   140016432:	cc                   	int3   
   140016433:	cc                   	int3   
   140016434:	cc                   	int3   
   140016435:	cc                   	int3   
   140016436:	cc                   	int3   
   140016437:	cc                   	int3   
   140016438:	cc                   	int3   
   140016439:	cc                   	int3   
   14001643a:	cc                   	int3   
   14001643b:	cc                   	int3   
   14001643c:	cc                   	int3   
   14001643d:	cc                   	int3   
   14001643e:	cc                   	int3   
   14001643f:	cc                   	int3   
   140016440:	cc                   	int3   
   140016441:	cc                   	int3   
   140016442:	cc                   	int3   
   140016443:	cc                   	int3   
   140016444:	cc                   	int3   
   140016445:	cc                   	int3   
   140016446:	cc                   	int3   
   140016447:	cc                   	int3   
   140016448:	cc                   	int3   
   140016449:	cc                   	int3   
   14001644a:	cc                   	int3   
   14001644b:	cc                   	int3   
   14001644c:	cc                   	int3   
   14001644d:	cc                   	int3   
   14001644e:	cc                   	int3   
   14001644f:	cc                   	int3   
   140016450:	cc                   	int3   
   140016451:	cc                   	int3   
   140016452:	cc                   	int3   
   140016453:	cc                   	int3   
   140016454:	cc                   	int3   
   140016455:	cc                   	int3   
   140016456:	cc                   	int3   
   140016457:	cc                   	int3   
   140016458:	cc                   	int3   
   140016459:	cc                   	int3   
   14001645a:	cc                   	int3   
   14001645b:	cc                   	int3   
   14001645c:	cc                   	int3   
   14001645d:	cc                   	int3   
   14001645e:	cc                   	int3   
   14001645f:	cc                   	int3   
   140016460:	cc                   	int3   
   140016461:	cc                   	int3   
   140016462:	cc                   	int3   
   140016463:	cc                   	int3   
   140016464:	cc                   	int3   
   140016465:	cc                   	int3   
   140016466:	cc                   	int3   
   140016467:	cc                   	int3   
   140016468:	cc                   	int3   
   140016469:	cc                   	int3   
   14001646a:	cc                   	int3   
   14001646b:	cc                   	int3   
   14001646c:	cc                   	int3   
   14001646d:	cc                   	int3   
   14001646e:	cc                   	int3   
   14001646f:	cc                   	int3   
   140016470:	cc                   	int3   
   140016471:	cc                   	int3   
   140016472:	cc                   	int3   
   140016473:	cc                   	int3   
   140016474:	cc                   	int3   
   140016475:	cc                   	int3   
   140016476:	cc                   	int3   
   140016477:	cc                   	int3   
   140016478:	cc                   	int3   
   140016479:	cc                   	int3   
   14001647a:	cc                   	int3   
   14001647b:	cc                   	int3   
   14001647c:	cc                   	int3   
   14001647d:	cc                   	int3   
   14001647e:	cc                   	int3   
   14001647f:	cc                   	int3   
   140016480:	cc                   	int3   
   140016481:	cc                   	int3   
   140016482:	cc                   	int3   
   140016483:	cc                   	int3   
   140016484:	cc                   	int3   
   140016485:	cc                   	int3   
   140016486:	cc                   	int3   
   140016487:	cc                   	int3   
   140016488:	cc                   	int3   
   140016489:	cc                   	int3   
   14001648a:	cc                   	int3   
   14001648b:	cc                   	int3   
   14001648c:	cc                   	int3   
   14001648d:	cc                   	int3   
   14001648e:	cc                   	int3   
   14001648f:	cc                   	int3   
   140016490:	cc                   	int3   
   140016491:	cc                   	int3   
   140016492:	cc                   	int3   
   140016493:	cc                   	int3   
   140016494:	cc                   	int3   
   140016495:	cc                   	int3   
   140016496:	cc                   	int3   
   140016497:	cc                   	int3   
   140016498:	cc                   	int3   
   140016499:	cc                   	int3   
   14001649a:	cc                   	int3   
   14001649b:	cc                   	int3   
   14001649c:	cc                   	int3   
   14001649d:	cc                   	int3   
   14001649e:	cc                   	int3   
   14001649f:	cc                   	int3   
   1400164a0:	cc                   	int3   
   1400164a1:	cc                   	int3   
   1400164a2:	cc                   	int3   
   1400164a3:	cc                   	int3   
   1400164a4:	cc                   	int3   
   1400164a5:	cc                   	int3   
   1400164a6:	cc                   	int3   
   1400164a7:	cc                   	int3   
   1400164a8:	cc                   	int3   
   1400164a9:	cc                   	int3   
   1400164aa:	cc                   	int3   
   1400164ab:	cc                   	int3   
   1400164ac:	cc                   	int3   
   1400164ad:	cc                   	int3   
   1400164ae:	cc                   	int3   
   1400164af:	cc                   	int3   
   1400164b0:	cc                   	int3   
   1400164b1:	cc                   	int3   
   1400164b2:	cc                   	int3   
   1400164b3:	cc                   	int3   
   1400164b4:	cc                   	int3   
   1400164b5:	cc                   	int3   
   1400164b6:	cc                   	int3   
   1400164b7:	cc                   	int3   
   1400164b8:	cc                   	int3   
   1400164b9:	cc                   	int3   
   1400164ba:	cc                   	int3   
   1400164bb:	cc                   	int3   
   1400164bc:	cc                   	int3   
   1400164bd:	cc                   	int3   
   1400164be:	cc                   	int3   
   1400164bf:	cc                   	int3   
   1400164c0:	cc                   	int3   
   1400164c1:	cc                   	int3   
   1400164c2:	cc                   	int3   
   1400164c3:	cc                   	int3   
   1400164c4:	cc                   	int3   
   1400164c5:	cc                   	int3   
   1400164c6:	cc                   	int3   
   1400164c7:	cc                   	int3   
   1400164c8:	cc                   	int3   
   1400164c9:	cc                   	int3   
   1400164ca:	cc                   	int3   
   1400164cb:	cc                   	int3   
   1400164cc:	cc                   	int3   
   1400164cd:	cc                   	int3   
   1400164ce:	cc                   	int3   
   1400164cf:	cc                   	int3   
   1400164d0:	cc                   	int3   
   1400164d1:	cc                   	int3   
   1400164d2:	cc                   	int3   
   1400164d3:	cc                   	int3   
   1400164d4:	cc                   	int3   
   1400164d5:	cc                   	int3   
   1400164d6:	cc                   	int3   
   1400164d7:	cc                   	int3   
   1400164d8:	cc                   	int3   
   1400164d9:	cc                   	int3   
   1400164da:	cc                   	int3   
   1400164db:	cc                   	int3   
   1400164dc:	cc                   	int3   
   1400164dd:	cc                   	int3   
   1400164de:	cc                   	int3   
   1400164df:	cc                   	int3   
   1400164e0:	cc                   	int3   
   1400164e1:	cc                   	int3   
   1400164e2:	cc                   	int3   
   1400164e3:	cc                   	int3   
   1400164e4:	cc                   	int3   
   1400164e5:	cc                   	int3   
   1400164e6:	cc                   	int3   
   1400164e7:	cc                   	int3   
   1400164e8:	cc                   	int3   
   1400164e9:	cc                   	int3   
   1400164ea:	cc                   	int3   
   1400164eb:	cc                   	int3   
   1400164ec:	cc                   	int3   
   1400164ed:	cc                   	int3   
   1400164ee:	cc                   	int3   
   1400164ef:	cc                   	int3   
   1400164f0:	cc                   	int3   
   1400164f1:	cc                   	int3   
   1400164f2:	cc                   	int3   
   1400164f3:	cc                   	int3   
   1400164f4:	cc                   	int3   
   1400164f5:	cc                   	int3   
   1400164f6:	cc                   	int3   
   1400164f7:	cc                   	int3   
   1400164f8:	cc                   	int3   
   1400164f9:	cc                   	int3   
   1400164fa:	cc                   	int3   
   1400164fb:	cc                   	int3   
   1400164fc:	cc                   	int3   
   1400164fd:	cc                   	int3   
   1400164fe:	cc                   	int3   
   1400164ff:	cc                   	int3   
   140016500:	cc                   	int3   
   140016501:	cc                   	int3   
   140016502:	cc                   	int3   
   140016503:	cc                   	int3   
   140016504:	cc                   	int3   
   140016505:	cc                   	int3   
   140016506:	cc                   	int3   
   140016507:	cc                   	int3   
   140016508:	cc                   	int3   
   140016509:	cc                   	int3   
   14001650a:	cc                   	int3   
   14001650b:	cc                   	int3   
   14001650c:	cc                   	int3   
   14001650d:	cc                   	int3   
   14001650e:	cc                   	int3   
   14001650f:	cc                   	int3   
   140016510:	cc                   	int3   
   140016511:	cc                   	int3   
   140016512:	cc                   	int3   
   140016513:	cc                   	int3   
   140016514:	cc                   	int3   
   140016515:	cc                   	int3   
   140016516:	cc                   	int3   
   140016517:	cc                   	int3   
   140016518:	cc                   	int3   
   140016519:	cc                   	int3   
   14001651a:	cc                   	int3   
   14001651b:	cc                   	int3   
   14001651c:	cc                   	int3   
   14001651d:	cc                   	int3   
   14001651e:	cc                   	int3   
   14001651f:	cc                   	int3   
   140016520:	cc                   	int3   
   140016521:	cc                   	int3   
   140016522:	cc                   	int3   
   140016523:	cc                   	int3   
   140016524:	cc                   	int3   
   140016525:	cc                   	int3   
   140016526:	cc                   	int3   
   140016527:	cc                   	int3   
   140016528:	cc                   	int3   
   140016529:	cc                   	int3   
   14001652a:	cc                   	int3   
   14001652b:	cc                   	int3   
   14001652c:	cc                   	int3   
   14001652d:	cc                   	int3   
   14001652e:	cc                   	int3   
   14001652f:	cc                   	int3   
   140016530:	cc                   	int3   
   140016531:	cc                   	int3   
   140016532:	cc                   	int3   
   140016533:	cc                   	int3   
   140016534:	cc                   	int3   
   140016535:	cc                   	int3   
   140016536:	cc                   	int3   
   140016537:	cc                   	int3   
   140016538:	cc                   	int3   
   140016539:	cc                   	int3   
   14001653a:	cc                   	int3   
   14001653b:	cc                   	int3   
   14001653c:	cc                   	int3   
   14001653d:	cc                   	int3   
   14001653e:	cc                   	int3   
   14001653f:	cc                   	int3   
   140016540:	cc                   	int3   
   140016541:	cc                   	int3   
   140016542:	cc                   	int3   
   140016543:	cc                   	int3   
   140016544:	cc                   	int3   
   140016545:	cc                   	int3   
   140016546:	cc                   	int3   
   140016547:	cc                   	int3   
   140016548:	cc                   	int3   
   140016549:	cc                   	int3   
   14001654a:	cc                   	int3   
   14001654b:	cc                   	int3   
   14001654c:	cc                   	int3   
   14001654d:	cc                   	int3   
   14001654e:	cc                   	int3   
   14001654f:	cc                   	int3   
   140016550:	cc                   	int3   
   140016551:	cc                   	int3   
   140016552:	cc                   	int3   
   140016553:	cc                   	int3   
   140016554:	cc                   	int3   
   140016555:	cc                   	int3   
   140016556:	cc                   	int3   
   140016557:	cc                   	int3   
   140016558:	cc                   	int3   
   140016559:	cc                   	int3   
   14001655a:	cc                   	int3   
   14001655b:	cc                   	int3   
   14001655c:	cc                   	int3   
   14001655d:	cc                   	int3   
   14001655e:	cc                   	int3   
   14001655f:	cc                   	int3   
   140016560:	cc                   	int3   
   140016561:	cc                   	int3   
   140016562:	cc                   	int3   
   140016563:	cc                   	int3   
   140016564:	cc                   	int3   
   140016565:	cc                   	int3   
   140016566:	cc                   	int3   
   140016567:	cc                   	int3   
   140016568:	cc                   	int3   
   140016569:	cc                   	int3   
   14001656a:	cc                   	int3   
   14001656b:	cc                   	int3   
   14001656c:	cc                   	int3   
   14001656d:	cc                   	int3   
   14001656e:	cc                   	int3   
   14001656f:	cc                   	int3   
   140016570:	cc                   	int3   
   140016571:	cc                   	int3   
   140016572:	cc                   	int3   
   140016573:	cc                   	int3   
   140016574:	cc                   	int3   
   140016575:	cc                   	int3   
   140016576:	cc                   	int3   
   140016577:	cc                   	int3   
   140016578:	cc                   	int3   
   140016579:	cc                   	int3   
   14001657a:	cc                   	int3   
   14001657b:	cc                   	int3   
   14001657c:	cc                   	int3   
   14001657d:	cc                   	int3   
   14001657e:	cc                   	int3   
   14001657f:	cc                   	int3   
   140016580:	cc                   	int3   
   140016581:	cc                   	int3   
   140016582:	cc                   	int3   
   140016583:	cc                   	int3   
   140016584:	cc                   	int3   
   140016585:	cc                   	int3   
   140016586:	cc                   	int3   
   140016587:	cc                   	int3   
   140016588:	cc                   	int3   
   140016589:	cc                   	int3   
   14001658a:	cc                   	int3   
   14001658b:	cc                   	int3   
   14001658c:	cc                   	int3   
   14001658d:	cc                   	int3   
   14001658e:	cc                   	int3   
   14001658f:	cc                   	int3   
   140016590:	cc                   	int3   
   140016591:	cc                   	int3   
   140016592:	cc                   	int3   
   140016593:	cc                   	int3   
   140016594:	cc                   	int3   
   140016595:	cc                   	int3   
   140016596:	cc                   	int3   
   140016597:	cc                   	int3   
   140016598:	cc                   	int3   
   140016599:	cc                   	int3   
   14001659a:	cc                   	int3   
   14001659b:	cc                   	int3   
   14001659c:	cc                   	int3   
   14001659d:	cc                   	int3   
   14001659e:	cc                   	int3   
   14001659f:	cc                   	int3   
   1400165a0:	cc                   	int3   
   1400165a1:	cc                   	int3   
   1400165a2:	cc                   	int3   
   1400165a3:	cc                   	int3   
   1400165a4:	cc                   	int3   
   1400165a5:	cc                   	int3   
   1400165a6:	cc                   	int3   
   1400165a7:	cc                   	int3   
   1400165a8:	cc                   	int3   
   1400165a9:	cc                   	int3   
   1400165aa:	cc                   	int3   
   1400165ab:	cc                   	int3   
   1400165ac:	cc                   	int3   
   1400165ad:	cc                   	int3   
   1400165ae:	cc                   	int3   
   1400165af:	cc                   	int3   
   1400165b0:	cc                   	int3   
   1400165b1:	cc                   	int3   
   1400165b2:	cc                   	int3   
   1400165b3:	cc                   	int3   
   1400165b4:	cc                   	int3   
   1400165b5:	cc                   	int3   
   1400165b6:	cc                   	int3   
   1400165b7:	cc                   	int3   
   1400165b8:	cc                   	int3   
   1400165b9:	cc                   	int3   
   1400165ba:	cc                   	int3   
   1400165bb:	cc                   	int3   
   1400165bc:	cc                   	int3   
   1400165bd:	cc                   	int3   
   1400165be:	cc                   	int3   
   1400165bf:	cc                   	int3   
   1400165c0:	cc                   	int3   
   1400165c1:	cc                   	int3   
   1400165c2:	cc                   	int3   
   1400165c3:	cc                   	int3   
   1400165c4:	cc                   	int3   
   1400165c5:	cc                   	int3   
   1400165c6:	cc                   	int3   
   1400165c7:	cc                   	int3   
   1400165c8:	cc                   	int3   
   1400165c9:	cc                   	int3   
   1400165ca:	cc                   	int3   
   1400165cb:	cc                   	int3   
   1400165cc:	cc                   	int3   
   1400165cd:	cc                   	int3   
   1400165ce:	cc                   	int3   
   1400165cf:	cc                   	int3   
   1400165d0:	cc                   	int3   
   1400165d1:	cc                   	int3   
   1400165d2:	cc                   	int3   
   1400165d3:	cc                   	int3   
   1400165d4:	cc                   	int3   
   1400165d5:	cc                   	int3   
   1400165d6:	cc                   	int3   
   1400165d7:	cc                   	int3   
   1400165d8:	cc                   	int3   
   1400165d9:	cc                   	int3   
   1400165da:	cc                   	int3   
   1400165db:	cc                   	int3   
   1400165dc:	cc                   	int3   
   1400165dd:	cc                   	int3   
   1400165de:	cc                   	int3   
   1400165df:	cc                   	int3   
   1400165e0:	cc                   	int3   
   1400165e1:	cc                   	int3   
   1400165e2:	cc                   	int3   
   1400165e3:	cc                   	int3   
   1400165e4:	cc                   	int3   
   1400165e5:	cc                   	int3   
   1400165e6:	cc                   	int3   
   1400165e7:	cc                   	int3   
   1400165e8:	cc                   	int3   
   1400165e9:	cc                   	int3   
   1400165ea:	cc                   	int3   
   1400165eb:	cc                   	int3   
   1400165ec:	cc                   	int3   
   1400165ed:	cc                   	int3   
   1400165ee:	cc                   	int3   
   1400165ef:	cc                   	int3   
   1400165f0:	cc                   	int3   
   1400165f1:	cc                   	int3   
   1400165f2:	cc                   	int3   
   1400165f3:	cc                   	int3   
   1400165f4:	cc                   	int3   
   1400165f5:	cc                   	int3   
   1400165f6:	cc                   	int3   
   1400165f7:	cc                   	int3   
   1400165f8:	cc                   	int3   
   1400165f9:	cc                   	int3   
   1400165fa:	cc                   	int3   
   1400165fb:	cc                   	int3   
   1400165fc:	cc                   	int3   
   1400165fd:	cc                   	int3   
   1400165fe:	cc                   	int3   
   1400165ff:	cc                   	int3   
   140016600:	cc                   	int3   
   140016601:	cc                   	int3   
   140016602:	cc                   	int3   
   140016603:	cc                   	int3   
   140016604:	cc                   	int3   
   140016605:	cc                   	int3   
   140016606:	cc                   	int3   
   140016607:	cc                   	int3   
   140016608:	cc                   	int3   
   140016609:	cc                   	int3   
   14001660a:	cc                   	int3   
   14001660b:	cc                   	int3   
   14001660c:	cc                   	int3   
   14001660d:	cc                   	int3   
   14001660e:	cc                   	int3   
   14001660f:	cc                   	int3   
   140016610:	cc                   	int3   
   140016611:	cc                   	int3   
   140016612:	cc                   	int3   
   140016613:	cc                   	int3   
   140016614:	cc                   	int3   
   140016615:	cc                   	int3   
   140016616:	cc                   	int3   
   140016617:	cc                   	int3   
   140016618:	cc                   	int3   
   140016619:	cc                   	int3   
   14001661a:	cc                   	int3   
   14001661b:	cc                   	int3   
   14001661c:	cc                   	int3   
   14001661d:	cc                   	int3   
   14001661e:	cc                   	int3   
   14001661f:	cc                   	int3   
   140016620:	cc                   	int3   
   140016621:	cc                   	int3   
   140016622:	cc                   	int3   
   140016623:	cc                   	int3   
   140016624:	cc                   	int3   
   140016625:	cc                   	int3   
   140016626:	cc                   	int3   
   140016627:	cc                   	int3   
   140016628:	cc                   	int3   
   140016629:	cc                   	int3   
   14001662a:	cc                   	int3   
   14001662b:	cc                   	int3   
   14001662c:	cc                   	int3   
   14001662d:	cc                   	int3   
   14001662e:	cc                   	int3   
   14001662f:	cc                   	int3   
   140016630:	cc                   	int3   
   140016631:	cc                   	int3   
   140016632:	cc                   	int3   
   140016633:	cc                   	int3   
   140016634:	cc                   	int3   
   140016635:	cc                   	int3   
   140016636:	cc                   	int3   
   140016637:	cc                   	int3   
   140016638:	cc                   	int3   
   140016639:	cc                   	int3   
   14001663a:	cc                   	int3   
   14001663b:	cc                   	int3   
   14001663c:	cc                   	int3   
   14001663d:	cc                   	int3   
   14001663e:	cc                   	int3   
   14001663f:	cc                   	int3   
   140016640:	cc                   	int3   
   140016641:	cc                   	int3   
   140016642:	cc                   	int3   
   140016643:	cc                   	int3   
   140016644:	cc                   	int3   
   140016645:	cc                   	int3   
   140016646:	cc                   	int3   
   140016647:	cc                   	int3   
   140016648:	cc                   	int3   
   140016649:	cc                   	int3   
   14001664a:	cc                   	int3   
   14001664b:	cc                   	int3   
   14001664c:	cc                   	int3   
   14001664d:	cc                   	int3   
   14001664e:	cc                   	int3   
   14001664f:	cc                   	int3   
   140016650:	cc                   	int3   
   140016651:	cc                   	int3   
   140016652:	cc                   	int3   
   140016653:	cc                   	int3   
   140016654:	cc                   	int3   
   140016655:	cc                   	int3   
   140016656:	cc                   	int3   
   140016657:	cc                   	int3   
   140016658:	cc                   	int3   
   140016659:	cc                   	int3   
   14001665a:	cc                   	int3   
   14001665b:	cc                   	int3   
   14001665c:	cc                   	int3   
   14001665d:	cc                   	int3   
   14001665e:	cc                   	int3   
   14001665f:	cc                   	int3   
   140016660:	cc                   	int3   
   140016661:	cc                   	int3   
   140016662:	cc                   	int3   
   140016663:	cc                   	int3   
   140016664:	cc                   	int3   
   140016665:	cc                   	int3   
   140016666:	cc                   	int3   
   140016667:	cc                   	int3   
   140016668:	cc                   	int3   
   140016669:	cc                   	int3   
   14001666a:	cc                   	int3   
   14001666b:	cc                   	int3   
   14001666c:	cc                   	int3   
   14001666d:	cc                   	int3   
   14001666e:	cc                   	int3   
   14001666f:	cc                   	int3   
   140016670:	cc                   	int3   
   140016671:	cc                   	int3   
   140016672:	cc                   	int3   
   140016673:	cc                   	int3   
   140016674:	cc                   	int3   
   140016675:	cc                   	int3   
   140016676:	cc                   	int3   
   140016677:	cc                   	int3   
   140016678:	cc                   	int3   
   140016679:	cc                   	int3   
   14001667a:	cc                   	int3   
   14001667b:	cc                   	int3   
   14001667c:	cc                   	int3   
   14001667d:	cc                   	int3   
   14001667e:	cc                   	int3   
   14001667f:	cc                   	int3   
   140016680:	cc                   	int3   
   140016681:	cc                   	int3   
   140016682:	cc                   	int3   
   140016683:	cc                   	int3   
   140016684:	cc                   	int3   
   140016685:	cc                   	int3   
   140016686:	cc                   	int3   
   140016687:	cc                   	int3   
   140016688:	cc                   	int3   
   140016689:	cc                   	int3   
   14001668a:	cc                   	int3   
   14001668b:	cc                   	int3   
   14001668c:	cc                   	int3   
   14001668d:	cc                   	int3   
   14001668e:	cc                   	int3   
   14001668f:	cc                   	int3   
   140016690:	cc                   	int3   
   140016691:	cc                   	int3   
   140016692:	cc                   	int3   
   140016693:	cc                   	int3   
   140016694:	cc                   	int3   
   140016695:	cc                   	int3   
   140016696:	cc                   	int3   
   140016697:	cc                   	int3   
   140016698:	cc                   	int3   
   140016699:	cc                   	int3   
   14001669a:	cc                   	int3   
   14001669b:	cc                   	int3   
   14001669c:	cc                   	int3   
   14001669d:	cc                   	int3   
   14001669e:	cc                   	int3   
   14001669f:	cc                   	int3   
   1400166a0:	cc                   	int3   
   1400166a1:	cc                   	int3   
   1400166a2:	cc                   	int3   
   1400166a3:	cc                   	int3   
   1400166a4:	cc                   	int3   
   1400166a5:	cc                   	int3   
   1400166a6:	cc                   	int3   
   1400166a7:	cc                   	int3   
   1400166a8:	cc                   	int3   
   1400166a9:	cc                   	int3   
   1400166aa:	cc                   	int3   
   1400166ab:	cc                   	int3   
   1400166ac:	cc                   	int3   
   1400166ad:	cc                   	int3   
   1400166ae:	cc                   	int3   
   1400166af:	cc                   	int3   
   1400166b0:	cc                   	int3   
   1400166b1:	cc                   	int3   
   1400166b2:	cc                   	int3   
   1400166b3:	cc                   	int3   
   1400166b4:	cc                   	int3   
   1400166b5:	cc                   	int3   
   1400166b6:	cc                   	int3   
   1400166b7:	cc                   	int3   
   1400166b8:	cc                   	int3   
   1400166b9:	cc                   	int3   
   1400166ba:	cc                   	int3   
   1400166bb:	cc                   	int3   
   1400166bc:	cc                   	int3   
   1400166bd:	cc                   	int3   
   1400166be:	cc                   	int3   
   1400166bf:	cc                   	int3   
   1400166c0:	cc                   	int3   
   1400166c1:	cc                   	int3   
   1400166c2:	cc                   	int3   
   1400166c3:	cc                   	int3   
   1400166c4:	cc                   	int3   
   1400166c5:	cc                   	int3   
   1400166c6:	cc                   	int3   
   1400166c7:	cc                   	int3   
   1400166c8:	cc                   	int3   
   1400166c9:	cc                   	int3   
   1400166ca:	cc                   	int3   
   1400166cb:	cc                   	int3   
   1400166cc:	cc                   	int3   
   1400166cd:	cc                   	int3   
   1400166ce:	cc                   	int3   
   1400166cf:	cc                   	int3   
   1400166d0:	cc                   	int3   
   1400166d1:	cc                   	int3   
   1400166d2:	cc                   	int3   
   1400166d3:	cc                   	int3   
   1400166d4:	cc                   	int3   
   1400166d5:	cc                   	int3   
   1400166d6:	cc                   	int3   
   1400166d7:	cc                   	int3   
   1400166d8:	cc                   	int3   
   1400166d9:	cc                   	int3   
   1400166da:	cc                   	int3   
   1400166db:	cc                   	int3   
   1400166dc:	cc                   	int3   
   1400166dd:	cc                   	int3   
   1400166de:	cc                   	int3   
   1400166df:	cc                   	int3   
   1400166e0:	cc                   	int3   
   1400166e1:	cc                   	int3   
   1400166e2:	cc                   	int3   
   1400166e3:	cc                   	int3   
   1400166e4:	cc                   	int3   
   1400166e5:	cc                   	int3   
   1400166e6:	cc                   	int3   
   1400166e7:	cc                   	int3   
   1400166e8:	cc                   	int3   
   1400166e9:	cc                   	int3   
   1400166ea:	cc                   	int3   
   1400166eb:	cc                   	int3   
   1400166ec:	cc                   	int3   
   1400166ed:	cc                   	int3   
   1400166ee:	cc                   	int3   
   1400166ef:	cc                   	int3   
   1400166f0:	cc                   	int3   
   1400166f1:	cc                   	int3   
   1400166f2:	cc                   	int3   
   1400166f3:	cc                   	int3   
   1400166f4:	cc                   	int3   
   1400166f5:	cc                   	int3   
   1400166f6:	cc                   	int3   
   1400166f7:	cc                   	int3   
   1400166f8:	cc                   	int3   
   1400166f9:	cc                   	int3   
   1400166fa:	cc                   	int3   
   1400166fb:	cc                   	int3   
   1400166fc:	cc                   	int3   
   1400166fd:	cc                   	int3   
   1400166fe:	cc                   	int3   
   1400166ff:	cc                   	int3   
   140016700:	cc                   	int3   
   140016701:	cc                   	int3   
   140016702:	cc                   	int3   
   140016703:	cc                   	int3   
   140016704:	cc                   	int3   
   140016705:	cc                   	int3   
   140016706:	cc                   	int3   
   140016707:	cc                   	int3   
   140016708:	cc                   	int3   
   140016709:	cc                   	int3   
   14001670a:	cc                   	int3   
   14001670b:	cc                   	int3   
   14001670c:	cc                   	int3   
   14001670d:	cc                   	int3   
   14001670e:	cc                   	int3   
   14001670f:	cc                   	int3   
   140016710:	cc                   	int3   
   140016711:	cc                   	int3   
   140016712:	cc                   	int3   
   140016713:	cc                   	int3   
   140016714:	cc                   	int3   
   140016715:	cc                   	int3   
   140016716:	cc                   	int3   
   140016717:	cc                   	int3   
   140016718:	cc                   	int3   
   140016719:	cc                   	int3   
   14001671a:	cc                   	int3   
   14001671b:	cc                   	int3   
   14001671c:	cc                   	int3   
   14001671d:	cc                   	int3   
   14001671e:	cc                   	int3   
   14001671f:	cc                   	int3   
   140016720:	cc                   	int3   
   140016721:	cc                   	int3   
   140016722:	cc                   	int3   
   140016723:	cc                   	int3   
   140016724:	cc                   	int3   
   140016725:	cc                   	int3   
   140016726:	cc                   	int3   
   140016727:	cc                   	int3   
   140016728:	cc                   	int3   
   140016729:	cc                   	int3   
   14001672a:	cc                   	int3   
   14001672b:	cc                   	int3   
   14001672c:	cc                   	int3   
   14001672d:	cc                   	int3   
   14001672e:	cc                   	int3   
   14001672f:	cc                   	int3   
   140016730:	cc                   	int3   
   140016731:	cc                   	int3   
   140016732:	cc                   	int3   
   140016733:	cc                   	int3   
   140016734:	cc                   	int3   
   140016735:	cc                   	int3   
   140016736:	cc                   	int3   
   140016737:	cc                   	int3   
   140016738:	cc                   	int3   
   140016739:	cc                   	int3   
   14001673a:	cc                   	int3   
   14001673b:	cc                   	int3   
   14001673c:	cc                   	int3   
   14001673d:	cc                   	int3   
   14001673e:	cc                   	int3   
   14001673f:	cc                   	int3   
   140016740:	cc                   	int3   
   140016741:	cc                   	int3   
   140016742:	cc                   	int3   
   140016743:	cc                   	int3   
   140016744:	cc                   	int3   
   140016745:	cc                   	int3   
   140016746:	cc                   	int3   
   140016747:	cc                   	int3   
   140016748:	cc                   	int3   
   140016749:	cc                   	int3   
   14001674a:	cc                   	int3   
   14001674b:	cc                   	int3   
   14001674c:	cc                   	int3   
   14001674d:	cc                   	int3   
   14001674e:	cc                   	int3   
   14001674f:	cc                   	int3   
   140016750:	cc                   	int3   
   140016751:	cc                   	int3   
   140016752:	cc                   	int3   
   140016753:	cc                   	int3   
   140016754:	cc                   	int3   
   140016755:	cc                   	int3   
   140016756:	cc                   	int3   
   140016757:	cc                   	int3   
   140016758:	cc                   	int3   
   140016759:	cc                   	int3   
   14001675a:	cc                   	int3   
   14001675b:	cc                   	int3   
   14001675c:	cc                   	int3   
   14001675d:	cc                   	int3   
   14001675e:	cc                   	int3   
   14001675f:	cc                   	int3   
   140016760:	cc                   	int3   
   140016761:	cc                   	int3   
   140016762:	cc                   	int3   
   140016763:	cc                   	int3   
   140016764:	cc                   	int3   
   140016765:	cc                   	int3   
   140016766:	cc                   	int3   
   140016767:	cc                   	int3   
   140016768:	cc                   	int3   
   140016769:	cc                   	int3   
   14001676a:	cc                   	int3   
   14001676b:	cc                   	int3   
   14001676c:	cc                   	int3   
   14001676d:	cc                   	int3   
   14001676e:	cc                   	int3   
   14001676f:	cc                   	int3   
   140016770:	cc                   	int3   
   140016771:	cc                   	int3   
   140016772:	cc                   	int3   
   140016773:	cc                   	int3   
   140016774:	cc                   	int3   
   140016775:	cc                   	int3   
   140016776:	cc                   	int3   
   140016777:	cc                   	int3   
   140016778:	cc                   	int3   
   140016779:	cc                   	int3   
   14001677a:	cc                   	int3   
   14001677b:	cc                   	int3   
   14001677c:	cc                   	int3   
   14001677d:	cc                   	int3   
   14001677e:	cc                   	int3   
   14001677f:	cc                   	int3   
   140016780:	cc                   	int3   
   140016781:	cc                   	int3   
   140016782:	cc                   	int3   
   140016783:	cc                   	int3   
   140016784:	cc                   	int3   
   140016785:	cc                   	int3   
   140016786:	cc                   	int3   
   140016787:	cc                   	int3   
   140016788:	cc                   	int3   
   140016789:	cc                   	int3   
   14001678a:	cc                   	int3   
   14001678b:	cc                   	int3   
   14001678c:	cc                   	int3   
   14001678d:	cc                   	int3   
   14001678e:	cc                   	int3   
   14001678f:	cc                   	int3   
   140016790:	cc                   	int3   
   140016791:	cc                   	int3   
   140016792:	cc                   	int3   
   140016793:	cc                   	int3   
   140016794:	cc                   	int3   
   140016795:	cc                   	int3   
   140016796:	cc                   	int3   
   140016797:	cc                   	int3   
   140016798:	cc                   	int3   
   140016799:	cc                   	int3   
   14001679a:	cc                   	int3   
   14001679b:	cc                   	int3   
   14001679c:	cc                   	int3   
   14001679d:	cc                   	int3   
   14001679e:	cc                   	int3   
   14001679f:	cc                   	int3   
   1400167a0:	cc                   	int3   
   1400167a1:	cc                   	int3   
   1400167a2:	cc                   	int3   
   1400167a3:	cc                   	int3   
   1400167a4:	cc                   	int3   
   1400167a5:	cc                   	int3   
   1400167a6:	cc                   	int3   
   1400167a7:	cc                   	int3   
   1400167a8:	cc                   	int3   
   1400167a9:	cc                   	int3   
   1400167aa:	cc                   	int3   
   1400167ab:	cc                   	int3   
   1400167ac:	cc                   	int3   
   1400167ad:	cc                   	int3   
   1400167ae:	cc                   	int3   
   1400167af:	cc                   	int3   
   1400167b0:	cc                   	int3   
   1400167b1:	cc                   	int3   
   1400167b2:	cc                   	int3   
   1400167b3:	cc                   	int3   
   1400167b4:	cc                   	int3   
   1400167b5:	cc                   	int3   
   1400167b6:	cc                   	int3   
   1400167b7:	cc                   	int3   
   1400167b8:	cc                   	int3   
   1400167b9:	cc                   	int3   
   1400167ba:	cc                   	int3   
   1400167bb:	cc                   	int3   
   1400167bc:	cc                   	int3   
   1400167bd:	cc                   	int3   
   1400167be:	cc                   	int3   
   1400167bf:	cc                   	int3   
   1400167c0:	cc                   	int3   
   1400167c1:	cc                   	int3   
   1400167c2:	cc                   	int3   
   1400167c3:	cc                   	int3   
   1400167c4:	cc                   	int3   
   1400167c5:	cc                   	int3   
   1400167c6:	cc                   	int3   
   1400167c7:	cc                   	int3   
   1400167c8:	cc                   	int3   
   1400167c9:	cc                   	int3   
   1400167ca:	cc                   	int3   
   1400167cb:	cc                   	int3   
   1400167cc:	cc                   	int3   
   1400167cd:	cc                   	int3   
   1400167ce:	cc                   	int3   
   1400167cf:	cc                   	int3   
   1400167d0:	cc                   	int3   
   1400167d1:	cc                   	int3   
   1400167d2:	cc                   	int3   
   1400167d3:	cc                   	int3   
   1400167d4:	cc                   	int3   
   1400167d5:	cc                   	int3   
   1400167d6:	cc                   	int3   
   1400167d7:	cc                   	int3   
   1400167d8:	cc                   	int3   
   1400167d9:	cc                   	int3   
   1400167da:	cc                   	int3   
   1400167db:	cc                   	int3   
   1400167dc:	cc                   	int3   
   1400167dd:	cc                   	int3   
   1400167de:	cc                   	int3   
   1400167df:	cc                   	int3   
   1400167e0:	cc                   	int3   
   1400167e1:	cc                   	int3   
   1400167e2:	cc                   	int3   
   1400167e3:	cc                   	int3   
   1400167e4:	cc                   	int3   
   1400167e5:	cc                   	int3   
   1400167e6:	cc                   	int3   
   1400167e7:	cc                   	int3   
   1400167e8:	cc                   	int3   
   1400167e9:	cc                   	int3   
   1400167ea:	cc                   	int3   
   1400167eb:	cc                   	int3   
   1400167ec:	cc                   	int3   
   1400167ed:	cc                   	int3   
   1400167ee:	cc                   	int3   
   1400167ef:	cc                   	int3   
   1400167f0:	cc                   	int3   
   1400167f1:	cc                   	int3   
   1400167f2:	cc                   	int3   
   1400167f3:	cc                   	int3   
   1400167f4:	cc                   	int3   
   1400167f5:	cc                   	int3   
   1400167f6:	cc                   	int3   
   1400167f7:	cc                   	int3   
   1400167f8:	cc                   	int3   
   1400167f9:	cc                   	int3   
   1400167fa:	cc                   	int3   
   1400167fb:	cc                   	int3   
   1400167fc:	cc                   	int3   
   1400167fd:	cc                   	int3   
   1400167fe:	cc                   	int3   
   1400167ff:	cc                   	int3   
   140016800:	cc                   	int3   
   140016801:	cc                   	int3   
   140016802:	cc                   	int3   
   140016803:	cc                   	int3   
   140016804:	cc                   	int3   
   140016805:	cc                   	int3   
   140016806:	cc                   	int3   
   140016807:	cc                   	int3   
   140016808:	cc                   	int3   
   140016809:	cc                   	int3   
   14001680a:	cc                   	int3   
   14001680b:	cc                   	int3   
   14001680c:	cc                   	int3   
   14001680d:	cc                   	int3   
   14001680e:	cc                   	int3   
   14001680f:	cc                   	int3   
   140016810:	cc                   	int3   
   140016811:	cc                   	int3   
   140016812:	cc                   	int3   
   140016813:	cc                   	int3   
   140016814:	cc                   	int3   
   140016815:	cc                   	int3   
   140016816:	cc                   	int3   
   140016817:	cc                   	int3   
   140016818:	cc                   	int3   
   140016819:	cc                   	int3   
   14001681a:	cc                   	int3   
   14001681b:	cc                   	int3   
   14001681c:	cc                   	int3   
   14001681d:	cc                   	int3   
   14001681e:	cc                   	int3   
   14001681f:	cc                   	int3   
   140016820:	cc                   	int3   
   140016821:	cc                   	int3   
   140016822:	cc                   	int3   
   140016823:	cc                   	int3   
   140016824:	cc                   	int3   
   140016825:	cc                   	int3   
   140016826:	cc                   	int3   
   140016827:	cc                   	int3   
   140016828:	cc                   	int3   
   140016829:	cc                   	int3   
   14001682a:	cc                   	int3   
   14001682b:	cc                   	int3   
   14001682c:	cc                   	int3   
   14001682d:	cc                   	int3   
   14001682e:	cc                   	int3   
   14001682f:	cc                   	int3   
   140016830:	cc                   	int3   
   140016831:	cc                   	int3   
   140016832:	cc                   	int3   
   140016833:	cc                   	int3   
   140016834:	cc                   	int3   
   140016835:	cc                   	int3   
   140016836:	cc                   	int3   
   140016837:	cc                   	int3   
   140016838:	cc                   	int3   
   140016839:	cc                   	int3   
   14001683a:	cc                   	int3   
   14001683b:	cc                   	int3   
   14001683c:	cc                   	int3   
   14001683d:	cc                   	int3   
   14001683e:	cc                   	int3   
   14001683f:	cc                   	int3   
   140016840:	cc                   	int3   
   140016841:	cc                   	int3   
   140016842:	cc                   	int3   
   140016843:	cc                   	int3   
   140016844:	cc                   	int3   
   140016845:	cc                   	int3   
   140016846:	cc                   	int3   
   140016847:	cc                   	int3   
   140016848:	cc                   	int3   
   140016849:	cc                   	int3   
   14001684a:	cc                   	int3   
   14001684b:	cc                   	int3   
   14001684c:	cc                   	int3   
   14001684d:	cc                   	int3   
   14001684e:	cc                   	int3   
   14001684f:	cc                   	int3   
   140016850:	cc                   	int3   
   140016851:	cc                   	int3   
   140016852:	cc                   	int3   
   140016853:	cc                   	int3   
   140016854:	cc                   	int3   
   140016855:	cc                   	int3   
   140016856:	cc                   	int3   
   140016857:	cc                   	int3   
   140016858:	cc                   	int3   
   140016859:	cc                   	int3   
   14001685a:	cc                   	int3   
   14001685b:	cc                   	int3   
   14001685c:	cc                   	int3   
   14001685d:	cc                   	int3   
   14001685e:	cc                   	int3   
   14001685f:	cc                   	int3   
   140016860:	cc                   	int3   
   140016861:	cc                   	int3   
   140016862:	cc                   	int3   
   140016863:	cc                   	int3   
   140016864:	cc                   	int3   
   140016865:	cc                   	int3   
   140016866:	cc                   	int3   
   140016867:	cc                   	int3   
   140016868:	cc                   	int3   
   140016869:	cc                   	int3   
   14001686a:	cc                   	int3   
   14001686b:	cc                   	int3   
   14001686c:	cc                   	int3   
   14001686d:	cc                   	int3   
   14001686e:	cc                   	int3   
   14001686f:	cc                   	int3   
   140016870:	cc                   	int3   
   140016871:	cc                   	int3   
   140016872:	cc                   	int3   
   140016873:	cc                   	int3   
   140016874:	cc                   	int3   
   140016875:	cc                   	int3   
   140016876:	cc                   	int3   
   140016877:	cc                   	int3   
   140016878:	cc                   	int3   
   140016879:	cc                   	int3   
   14001687a:	cc                   	int3   
   14001687b:	cc                   	int3   
   14001687c:	cc                   	int3   
   14001687d:	cc                   	int3   
   14001687e:	cc                   	int3   
   14001687f:	cc                   	int3   
   140016880:	cc                   	int3   
   140016881:	cc                   	int3   
   140016882:	cc                   	int3   
   140016883:	cc                   	int3   
   140016884:	cc                   	int3   
   140016885:	cc                   	int3   
   140016886:	66 66 0f 1f 84 00 00 	data16 nop WORD PTR [rax+rax*1+0x0]
   14001688d:	00 00 00 
   140016890:	ff e0                	jmp    rax
   140016892:	cc                   	int3   
   140016893:	cc                   	int3   
   140016894:	cc                   	int3   
   140016895:	cc                   	int3   
   140016896:	cc                   	int3   
   140016897:	cc                   	int3   
   140016898:	cc                   	int3   
   140016899:	cc                   	int3   
   14001689a:	cc                   	int3   
   14001689b:	cc                   	int3   
   14001689c:	cc                   	int3   
   14001689d:	cc                   	int3   
   14001689e:	cc                   	int3   
   14001689f:	cc                   	int3   
   1400168a0:	cc                   	int3   
   1400168a1:	cc                   	int3   
   1400168a2:	cc                   	int3   
   1400168a3:	cc                   	int3   
   1400168a4:	cc                   	int3   
   1400168a5:	cc                   	int3   
   1400168a6:	cc                   	int3   
   1400168a7:	cc                   	int3   
   1400168a8:	cc                   	int3   
   1400168a9:	cc                   	int3   
   1400168aa:	cc                   	int3   
   1400168ab:	cc                   	int3   
   1400168ac:	cc                   	int3   
   1400168ad:	cc                   	int3   
   1400168ae:	cc                   	int3   
   1400168af:	cc                   	int3   
   1400168b0:	cc                   	int3   
   1400168b1:	cc                   	int3   
   1400168b2:	cc                   	int3   
   1400168b3:	cc                   	int3   
   1400168b4:	cc                   	int3   
   1400168b5:	cc                   	int3   
   1400168b6:	cc                   	int3   
   1400168b7:	cc                   	int3   
   1400168b8:	cc                   	int3   
   1400168b9:	cc                   	int3   
   1400168ba:	cc                   	int3   
   1400168bb:	cc                   	int3   
   1400168bc:	cc                   	int3   
   1400168bd:	cc                   	int3   
   1400168be:	cc                   	int3   
   1400168bf:	cc                   	int3   
   1400168c0:	cc                   	int3   
   1400168c1:	cc                   	int3   
   1400168c2:	cc                   	int3   
   1400168c3:	cc                   	int3   
   1400168c4:	cc                   	int3   
   1400168c5:	cc                   	int3   
   1400168c6:	cc                   	int3   
   1400168c7:	cc                   	int3   
   1400168c8:	cc                   	int3   
   1400168c9:	cc                   	int3   
   1400168ca:	cc                   	int3   
   1400168cb:	cc                   	int3   
   1400168cc:	cc                   	int3   
   1400168cd:	cc                   	int3   
   1400168ce:	cc                   	int3   
   1400168cf:	cc                   	int3   
   1400168d0:	cc                   	int3   
   1400168d1:	cc                   	int3   
   1400168d2:	cc                   	int3   
   1400168d3:	cc                   	int3   
   1400168d4:	cc                   	int3   
   1400168d5:	cc                   	int3   
   1400168d6:	cc                   	int3   
   1400168d7:	cc                   	int3   
   1400168d8:	cc                   	int3   
   1400168d9:	cc                   	int3   
   1400168da:	cc                   	int3   
   1400168db:	cc                   	int3   
   1400168dc:	cc                   	int3   
   1400168dd:	cc                   	int3   
   1400168de:	cc                   	int3   
   1400168df:	cc                   	int3   
   1400168e0:	cc                   	int3   
   1400168e1:	cc                   	int3   
   1400168e2:	cc                   	int3   
   1400168e3:	cc                   	int3   
   1400168e4:	cc                   	int3   
   1400168e5:	cc                   	int3   
   1400168e6:	cc                   	int3   
   1400168e7:	cc                   	int3   
   1400168e8:	cc                   	int3   
   1400168e9:	cc                   	int3   
   1400168ea:	cc                   	int3   
   1400168eb:	cc                   	int3   
   1400168ec:	cc                   	int3   
   1400168ed:	cc                   	int3   
   1400168ee:	cc                   	int3   
   1400168ef:	cc                   	int3   
   1400168f0:	cc                   	int3   
   1400168f1:	cc                   	int3   
   1400168f2:	cc                   	int3   
   1400168f3:	cc                   	int3   
   1400168f4:	cc                   	int3   
   1400168f5:	cc                   	int3   
   1400168f6:	cc                   	int3   
   1400168f7:	cc                   	int3   
   1400168f8:	cc                   	int3   
   1400168f9:	cc                   	int3   
   1400168fa:	cc                   	int3   
   1400168fb:	cc                   	int3   
   1400168fc:	cc                   	int3   
   1400168fd:	cc                   	int3   
   1400168fe:	cc                   	int3   
   1400168ff:	cc                   	int3   
   140016900:	cc                   	int3   
   140016901:	cc                   	int3   
   140016902:	cc                   	int3   
   140016903:	cc                   	int3   
   140016904:	cc                   	int3   
   140016905:	cc                   	int3   
   140016906:	cc                   	int3   
   140016907:	cc                   	int3   
   140016908:	cc                   	int3   
   140016909:	cc                   	int3   
   14001690a:	cc                   	int3   
   14001690b:	cc                   	int3   
   14001690c:	cc                   	int3   
   14001690d:	cc                   	int3   
   14001690e:	cc                   	int3   
   14001690f:	cc                   	int3   
   140016910:	cc                   	int3   
   140016911:	cc                   	int3   
   140016912:	cc                   	int3   
   140016913:	cc                   	int3   
   140016914:	cc                   	int3   
   140016915:	cc                   	int3   
   140016916:	cc                   	int3   
   140016917:	cc                   	int3   
   140016918:	cc                   	int3   
   140016919:	cc                   	int3   
   14001691a:	cc                   	int3   
   14001691b:	cc                   	int3   
   14001691c:	cc                   	int3   
   14001691d:	cc                   	int3   
   14001691e:	cc                   	int3   
   14001691f:	cc                   	int3   
   140016920:	cc                   	int3   
   140016921:	cc                   	int3   
   140016922:	cc                   	int3   
   140016923:	cc                   	int3   
   140016924:	cc                   	int3   
   140016925:	cc                   	int3   
   140016926:	cc                   	int3   
   140016927:	cc                   	int3   
   140016928:	cc                   	int3   
   140016929:	cc                   	int3   
   14001692a:	cc                   	int3   
   14001692b:	cc                   	int3   
   14001692c:	cc                   	int3   
   14001692d:	cc                   	int3   
   14001692e:	cc                   	int3   
   14001692f:	cc                   	int3   
   140016930:	cc                   	int3   
   140016931:	cc                   	int3   
   140016932:	cc                   	int3   
   140016933:	cc                   	int3   
   140016934:	cc                   	int3   
   140016935:	cc                   	int3   
   140016936:	cc                   	int3   
   140016937:	cc                   	int3   
   140016938:	cc                   	int3   
   140016939:	cc                   	int3   
   14001693a:	cc                   	int3   
   14001693b:	cc                   	int3   
   14001693c:	cc                   	int3   
   14001693d:	cc                   	int3   
   14001693e:	cc                   	int3   
   14001693f:	cc                   	int3   
   140016940:	cc                   	int3   
   140016941:	cc                   	int3   
   140016942:	cc                   	int3   
   140016943:	cc                   	int3   
   140016944:	cc                   	int3   
   140016945:	cc                   	int3   
   140016946:	cc                   	int3   
   140016947:	cc                   	int3   
   140016948:	cc                   	int3   
   140016949:	cc                   	int3   
   14001694a:	cc                   	int3   
   14001694b:	cc                   	int3   
   14001694c:	cc                   	int3   
   14001694d:	cc                   	int3   
   14001694e:	cc                   	int3   
   14001694f:	cc                   	int3   
   140016950:	cc                   	int3   
   140016951:	cc                   	int3   
   140016952:	cc                   	int3   
   140016953:	cc                   	int3   
   140016954:	cc                   	int3   
   140016955:	cc                   	int3   
   140016956:	cc                   	int3   
   140016957:	cc                   	int3   
   140016958:	cc                   	int3   
   140016959:	cc                   	int3   
   14001695a:	cc                   	int3   
   14001695b:	cc                   	int3   
   14001695c:	cc                   	int3   
   14001695d:	cc                   	int3   
   14001695e:	cc                   	int3   
   14001695f:	cc                   	int3   
   140016960:	cc                   	int3   
   140016961:	cc                   	int3   
   140016962:	cc                   	int3   
   140016963:	cc                   	int3   
   140016964:	cc                   	int3   
   140016965:	cc                   	int3   
   140016966:	cc                   	int3   
   140016967:	cc                   	int3   
   140016968:	cc                   	int3   
   140016969:	cc                   	int3   
   14001696a:	cc                   	int3   
   14001696b:	cc                   	int3   
   14001696c:	cc                   	int3   
   14001696d:	cc                   	int3   
   14001696e:	cc                   	int3   
   14001696f:	cc                   	int3   
   140016970:	cc                   	int3   
   140016971:	cc                   	int3   
   140016972:	cc                   	int3   
   140016973:	cc                   	int3   
   140016974:	cc                   	int3   
   140016975:	cc                   	int3   
   140016976:	cc                   	int3   
   140016977:	cc                   	int3   
   140016978:	cc                   	int3   
   140016979:	cc                   	int3   
   14001697a:	cc                   	int3   
   14001697b:	cc                   	int3   
   14001697c:	cc                   	int3   
   14001697d:	cc                   	int3   
   14001697e:	cc                   	int3   
   14001697f:	cc                   	int3   
   140016980:	cc                   	int3   
   140016981:	cc                   	int3   
   140016982:	cc                   	int3   
   140016983:	cc                   	int3   
   140016984:	cc                   	int3   
   140016985:	cc                   	int3   
   140016986:	cc                   	int3   
   140016987:	cc                   	int3   
   140016988:	cc                   	int3   
   140016989:	cc                   	int3   
   14001698a:	cc                   	int3   
   14001698b:	cc                   	int3   
   14001698c:	cc                   	int3   
   14001698d:	cc                   	int3   
   14001698e:	cc                   	int3   
   14001698f:	cc                   	int3   
   140016990:	cc                   	int3   
   140016991:	cc                   	int3   
   140016992:	cc                   	int3   
   140016993:	cc                   	int3   
   140016994:	cc                   	int3   
   140016995:	cc                   	int3   
   140016996:	cc                   	int3   
   140016997:	cc                   	int3   
   140016998:	cc                   	int3   
   140016999:	cc                   	int3   
   14001699a:	cc                   	int3   
   14001699b:	cc                   	int3   
   14001699c:	cc                   	int3   
   14001699d:	cc                   	int3   
   14001699e:	cc                   	int3   
   14001699f:	cc                   	int3   
   1400169a0:	cc                   	int3   
   1400169a1:	cc                   	int3   
   1400169a2:	cc                   	int3   
   1400169a3:	cc                   	int3   
   1400169a4:	cc                   	int3   
   1400169a5:	cc                   	int3   
   1400169a6:	cc                   	int3   
   1400169a7:	cc                   	int3   
   1400169a8:	cc                   	int3   
   1400169a9:	cc                   	int3   
   1400169aa:	cc                   	int3   
   1400169ab:	cc                   	int3   
   1400169ac:	cc                   	int3   
   1400169ad:	cc                   	int3   
   1400169ae:	cc                   	int3   
   1400169af:	cc                   	int3   
   1400169b0:	cc                   	int3   
   1400169b1:	cc                   	int3   
   1400169b2:	cc                   	int3   
   1400169b3:	cc                   	int3   
   1400169b4:	cc                   	int3   
   1400169b5:	cc                   	int3   
   1400169b6:	cc                   	int3   
   1400169b7:	cc                   	int3   
   1400169b8:	cc                   	int3   
   1400169b9:	cc                   	int3   
   1400169ba:	cc                   	int3   
   1400169bb:	cc                   	int3   
   1400169bc:	cc                   	int3   
   1400169bd:	cc                   	int3   
   1400169be:	cc                   	int3   
   1400169bf:	cc                   	int3   
   1400169c0:	cc                   	int3   
   1400169c1:	cc                   	int3   
   1400169c2:	cc                   	int3   
   1400169c3:	cc                   	int3   
   1400169c4:	cc                   	int3   
   1400169c5:	cc                   	int3   
   1400169c6:	cc                   	int3   
   1400169c7:	cc                   	int3   
   1400169c8:	cc                   	int3   
   1400169c9:	cc                   	int3   
   1400169ca:	cc                   	int3   
   1400169cb:	cc                   	int3   
   1400169cc:	cc                   	int3   
   1400169cd:	cc                   	int3   
   1400169ce:	cc                   	int3   
   1400169cf:	cc                   	int3   
   1400169d0:	cc                   	int3   
   1400169d1:	cc                   	int3   
   1400169d2:	cc                   	int3   
   1400169d3:	cc                   	int3   
   1400169d4:	cc                   	int3   
   1400169d5:	cc                   	int3   
   1400169d6:	cc                   	int3   
   1400169d7:	cc                   	int3   
   1400169d8:	cc                   	int3   
   1400169d9:	cc                   	int3   
   1400169da:	cc                   	int3   
   1400169db:	cc                   	int3   
   1400169dc:	cc                   	int3   
   1400169dd:	cc                   	int3   
   1400169de:	cc                   	int3   
   1400169df:	cc                   	int3   
   1400169e0:	cc                   	int3   
   1400169e1:	cc                   	int3   
   1400169e2:	cc                   	int3   
   1400169e3:	cc                   	int3   
   1400169e4:	cc                   	int3   
   1400169e5:	cc                   	int3   
   1400169e6:	cc                   	int3   
   1400169e7:	cc                   	int3   
   1400169e8:	cc                   	int3   
   1400169e9:	cc                   	int3   
   1400169ea:	cc                   	int3   
   1400169eb:	cc                   	int3   
   1400169ec:	cc                   	int3   
   1400169ed:	cc                   	int3   
   1400169ee:	cc                   	int3   
   1400169ef:	cc                   	int3   
   1400169f0:	cc                   	int3   
   1400169f1:	cc                   	int3   
   1400169f2:	cc                   	int3   
   1400169f3:	cc                   	int3   
   1400169f4:	cc                   	int3   
   1400169f5:	cc                   	int3   
   1400169f6:	cc                   	int3   
   1400169f7:	cc                   	int3   
   1400169f8:	cc                   	int3   
   1400169f9:	cc                   	int3   
   1400169fa:	cc                   	int3   
   1400169fb:	cc                   	int3   
   1400169fc:	cc                   	int3   
   1400169fd:	cc                   	int3   
   1400169fe:	cc                   	int3   
   1400169ff:	cc                   	int3   
   140016a00:	cc                   	int3   
   140016a01:	cc                   	int3   
   140016a02:	cc                   	int3   
   140016a03:	cc                   	int3   
   140016a04:	cc                   	int3   
   140016a05:	cc                   	int3   
   140016a06:	cc                   	int3   
   140016a07:	cc                   	int3   
   140016a08:	cc                   	int3   
   140016a09:	cc                   	int3   
   140016a0a:	cc                   	int3   
   140016a0b:	cc                   	int3   
   140016a0c:	cc                   	int3   
   140016a0d:	cc                   	int3   
   140016a0e:	cc                   	int3   
   140016a0f:	cc                   	int3   
   140016a10:	cc                   	int3   
   140016a11:	cc                   	int3   
   140016a12:	cc                   	int3   
   140016a13:	cc                   	int3   
   140016a14:	cc                   	int3   
   140016a15:	cc                   	int3   
   140016a16:	cc                   	int3   
   140016a17:	cc                   	int3   
   140016a18:	cc                   	int3   
   140016a19:	cc                   	int3   
   140016a1a:	cc                   	int3   
   140016a1b:	cc                   	int3   
   140016a1c:	cc                   	int3   
   140016a1d:	cc                   	int3   
   140016a1e:	cc                   	int3   
   140016a1f:	cc                   	int3   
   140016a20:	cc                   	int3   
   140016a21:	cc                   	int3   
   140016a22:	cc                   	int3   
   140016a23:	cc                   	int3   
   140016a24:	cc                   	int3   
   140016a25:	cc                   	int3   
   140016a26:	cc                   	int3   
   140016a27:	cc                   	int3   
   140016a28:	cc                   	int3   
   140016a29:	cc                   	int3   
   140016a2a:	cc                   	int3   
   140016a2b:	cc                   	int3   
   140016a2c:	cc                   	int3   
   140016a2d:	cc                   	int3   
   140016a2e:	cc                   	int3   
   140016a2f:	cc                   	int3   
   140016a30:	cc                   	int3   
   140016a31:	cc                   	int3   
   140016a32:	cc                   	int3   
   140016a33:	cc                   	int3   
   140016a34:	cc                   	int3   
   140016a35:	cc                   	int3   
   140016a36:	cc                   	int3   
   140016a37:	cc                   	int3   
   140016a38:	cc                   	int3   
   140016a39:	cc                   	int3   
   140016a3a:	cc                   	int3   
   140016a3b:	cc                   	int3   
   140016a3c:	cc                   	int3   
   140016a3d:	cc                   	int3   
   140016a3e:	cc                   	int3   
   140016a3f:	cc                   	int3   
   140016a40:	cc                   	int3   
   140016a41:	cc                   	int3   
   140016a42:	cc                   	int3   
   140016a43:	cc                   	int3   
   140016a44:	cc                   	int3   
   140016a45:	cc                   	int3   
   140016a46:	cc                   	int3   
   140016a47:	cc                   	int3   
   140016a48:	cc                   	int3   
   140016a49:	cc                   	int3   
   140016a4a:	cc                   	int3   
   140016a4b:	cc                   	int3   
   140016a4c:	cc                   	int3   
   140016a4d:	cc                   	int3   
   140016a4e:	cc                   	int3   
   140016a4f:	cc                   	int3   
   140016a50:	cc                   	int3   
   140016a51:	cc                   	int3   
   140016a52:	cc                   	int3   
   140016a53:	cc                   	int3   
   140016a54:	cc                   	int3   
   140016a55:	cc                   	int3   
   140016a56:	cc                   	int3   
   140016a57:	cc                   	int3   
   140016a58:	cc                   	int3   
   140016a59:	cc                   	int3   
   140016a5a:	cc                   	int3   
   140016a5b:	cc                   	int3   
   140016a5c:	cc                   	int3   
   140016a5d:	cc                   	int3   
   140016a5e:	cc                   	int3   
   140016a5f:	cc                   	int3   
   140016a60:	cc                   	int3   
   140016a61:	cc                   	int3   
   140016a62:	cc                   	int3   
   140016a63:	cc                   	int3   
   140016a64:	cc                   	int3   
   140016a65:	cc                   	int3   
   140016a66:	cc                   	int3   
   140016a67:	cc                   	int3   
   140016a68:	cc                   	int3   
   140016a69:	cc                   	int3   
   140016a6a:	cc                   	int3   
   140016a6b:	cc                   	int3   
   140016a6c:	cc                   	int3   
   140016a6d:	cc                   	int3   
   140016a6e:	cc                   	int3   
   140016a6f:	cc                   	int3   
   140016a70:	cc                   	int3   
   140016a71:	cc                   	int3   
   140016a72:	cc                   	int3   
   140016a73:	cc                   	int3   
   140016a74:	cc                   	int3   
   140016a75:	cc                   	int3   
   140016a76:	cc                   	int3   
   140016a77:	cc                   	int3   
   140016a78:	cc                   	int3   
   140016a79:	cc                   	int3   
   140016a7a:	cc                   	int3   
   140016a7b:	cc                   	int3   
   140016a7c:	cc                   	int3   
   140016a7d:	cc                   	int3   
   140016a7e:	cc                   	int3   
   140016a7f:	cc                   	int3   
   140016a80:	cc                   	int3   
   140016a81:	cc                   	int3   
   140016a82:	cc                   	int3   
   140016a83:	cc                   	int3   
   140016a84:	cc                   	int3   
   140016a85:	cc                   	int3   
   140016a86:	cc                   	int3   
   140016a87:	cc                   	int3   
   140016a88:	cc                   	int3   
   140016a89:	cc                   	int3   
   140016a8a:	cc                   	int3   
   140016a8b:	cc                   	int3   
   140016a8c:	cc                   	int3   
   140016a8d:	cc                   	int3   
   140016a8e:	cc                   	int3   
   140016a8f:	cc                   	int3   
   140016a90:	cc                   	int3   
   140016a91:	cc                   	int3   
   140016a92:	cc                   	int3   
   140016a93:	cc                   	int3   
   140016a94:	cc                   	int3   
   140016a95:	cc                   	int3   
   140016a96:	cc                   	int3   
   140016a97:	cc                   	int3   
   140016a98:	cc                   	int3   
   140016a99:	cc                   	int3   
   140016a9a:	cc                   	int3   
   140016a9b:	cc                   	int3   
   140016a9c:	cc                   	int3   
   140016a9d:	cc                   	int3   
   140016a9e:	cc                   	int3   
   140016a9f:	cc                   	int3   
   140016aa0:	cc                   	int3   
   140016aa1:	cc                   	int3   
   140016aa2:	cc                   	int3   
   140016aa3:	cc                   	int3   
   140016aa4:	cc                   	int3   
   140016aa5:	cc                   	int3   
   140016aa6:	cc                   	int3   
   140016aa7:	cc                   	int3   
   140016aa8:	cc                   	int3   
   140016aa9:	cc                   	int3   
   140016aaa:	cc                   	int3   
   140016aab:	cc                   	int3   
   140016aac:	cc                   	int3   
   140016aad:	cc                   	int3   
   140016aae:	cc                   	int3   
   140016aaf:	cc                   	int3   
   140016ab0:	cc                   	int3   
   140016ab1:	cc                   	int3   
   140016ab2:	cc                   	int3   
   140016ab3:	cc                   	int3   
   140016ab4:	cc                   	int3   
   140016ab5:	cc                   	int3   
   140016ab6:	cc                   	int3   
   140016ab7:	cc                   	int3   
   140016ab8:	cc                   	int3   
   140016ab9:	cc                   	int3   
   140016aba:	cc                   	int3   
   140016abb:	cc                   	int3   
   140016abc:	cc                   	int3   
   140016abd:	cc                   	int3   
   140016abe:	cc                   	int3   
   140016abf:	cc                   	int3   
   140016ac0:	cc                   	int3   
   140016ac1:	cc                   	int3   
   140016ac2:	cc                   	int3   
   140016ac3:	cc                   	int3   
   140016ac4:	cc                   	int3   
   140016ac5:	cc                   	int3   
   140016ac6:	cc                   	int3   
   140016ac7:	cc                   	int3   
   140016ac8:	cc                   	int3   
   140016ac9:	cc                   	int3   
   140016aca:	cc                   	int3   
   140016acb:	cc                   	int3   
   140016acc:	cc                   	int3   
   140016acd:	cc                   	int3   
   140016ace:	cc                   	int3   
   140016acf:	cc                   	int3   
   140016ad0:	cc                   	int3   
   140016ad1:	cc                   	int3   
   140016ad2:	cc                   	int3   
   140016ad3:	cc                   	int3   
   140016ad4:	cc                   	int3   
   140016ad5:	cc                   	int3   
   140016ad6:	cc                   	int3   
   140016ad7:	cc                   	int3   
   140016ad8:	cc                   	int3   
   140016ad9:	cc                   	int3   
   140016ada:	cc                   	int3   
   140016adb:	cc                   	int3   
   140016adc:	cc                   	int3   
   140016add:	cc                   	int3   
   140016ade:	cc                   	int3   
   140016adf:	cc                   	int3   
   140016ae0:	cc                   	int3   
   140016ae1:	cc                   	int3   
   140016ae2:	cc                   	int3   
   140016ae3:	cc                   	int3   
   140016ae4:	cc                   	int3   
   140016ae5:	cc                   	int3   
   140016ae6:	cc                   	int3   
   140016ae7:	cc                   	int3   
   140016ae8:	cc                   	int3   
   140016ae9:	cc                   	int3   
   140016aea:	cc                   	int3   
   140016aeb:	cc                   	int3   
   140016aec:	cc                   	int3   
   140016aed:	cc                   	int3   
   140016aee:	cc                   	int3   
   140016aef:	cc                   	int3   
   140016af0:	cc                   	int3   
   140016af1:	cc                   	int3   
   140016af2:	cc                   	int3   
   140016af3:	cc                   	int3   
   140016af4:	cc                   	int3   
   140016af5:	cc                   	int3   
   140016af6:	cc                   	int3   
   140016af7:	cc                   	int3   
   140016af8:	cc                   	int3   
   140016af9:	cc                   	int3   
   140016afa:	cc                   	int3   
   140016afb:	cc                   	int3   
   140016afc:	cc                   	int3   
   140016afd:	cc                   	int3   
   140016afe:	cc                   	int3   
   140016aff:	cc                   	int3   
   140016b00:	cc                   	int3   
   140016b01:	cc                   	int3   
   140016b02:	cc                   	int3   
   140016b03:	cc                   	int3   
   140016b04:	cc                   	int3   
   140016b05:	cc                   	int3   
   140016b06:	cc                   	int3   
   140016b07:	cc                   	int3   
   140016b08:	cc                   	int3   
   140016b09:	cc                   	int3   
   140016b0a:	cc                   	int3   
   140016b0b:	cc                   	int3   
   140016b0c:	cc                   	int3   
   140016b0d:	cc                   	int3   
   140016b0e:	cc                   	int3   
   140016b0f:	cc                   	int3   
   140016b10:	cc                   	int3   
   140016b11:	cc                   	int3   
   140016b12:	cc                   	int3   
   140016b13:	cc                   	int3   
   140016b14:	cc                   	int3   
   140016b15:	cc                   	int3   
   140016b16:	cc                   	int3   
   140016b17:	cc                   	int3   
   140016b18:	cc                   	int3   
   140016b19:	cc                   	int3   
   140016b1a:	cc                   	int3   
   140016b1b:	cc                   	int3   
   140016b1c:	cc                   	int3   
   140016b1d:	cc                   	int3   
   140016b1e:	cc                   	int3   
   140016b1f:	cc                   	int3   
   140016b20:	cc                   	int3   
   140016b21:	cc                   	int3   
   140016b22:	cc                   	int3   
   140016b23:	cc                   	int3   
   140016b24:	cc                   	int3   
   140016b25:	cc                   	int3   
   140016b26:	cc                   	int3   
   140016b27:	cc                   	int3   
   140016b28:	cc                   	int3   
   140016b29:	cc                   	int3   
   140016b2a:	cc                   	int3   
   140016b2b:	cc                   	int3   
   140016b2c:	cc                   	int3   
   140016b2d:	cc                   	int3   
   140016b2e:	cc                   	int3   
   140016b2f:	cc                   	int3   
   140016b30:	cc                   	int3   
   140016b31:	cc                   	int3   
   140016b32:	cc                   	int3   
   140016b33:	cc                   	int3   
   140016b34:	cc                   	int3   
   140016b35:	cc                   	int3   
   140016b36:	cc                   	int3   
   140016b37:	cc                   	int3   
   140016b38:	cc                   	int3   
   140016b39:	cc                   	int3   
   140016b3a:	cc                   	int3   
   140016b3b:	cc                   	int3   
   140016b3c:	cc                   	int3   
   140016b3d:	cc                   	int3   
   140016b3e:	cc                   	int3   
   140016b3f:	cc                   	int3   
   140016b40:	cc                   	int3   
   140016b41:	cc                   	int3   
   140016b42:	cc                   	int3   
   140016b43:	cc                   	int3   
   140016b44:	cc                   	int3   
   140016b45:	cc                   	int3   
   140016b46:	cc                   	int3   
   140016b47:	cc                   	int3   
   140016b48:	cc                   	int3   
   140016b49:	cc                   	int3   
   140016b4a:	cc                   	int3   
   140016b4b:	cc                   	int3   
   140016b4c:	cc                   	int3   
   140016b4d:	cc                   	int3   
   140016b4e:	cc                   	int3   
   140016b4f:	cc                   	int3   
   140016b50:	cc                   	int3   
   140016b51:	cc                   	int3   
   140016b52:	cc                   	int3   
   140016b53:	cc                   	int3   
   140016b54:	cc                   	int3   
   140016b55:	cc                   	int3   
   140016b56:	cc                   	int3   
   140016b57:	cc                   	int3   
   140016b58:	cc                   	int3   
   140016b59:	cc                   	int3   
   140016b5a:	cc                   	int3   
   140016b5b:	cc                   	int3   
   140016b5c:	cc                   	int3   
   140016b5d:	cc                   	int3   
   140016b5e:	cc                   	int3   
   140016b5f:	cc                   	int3   
   140016b60:	cc                   	int3   
   140016b61:	cc                   	int3   
   140016b62:	cc                   	int3   
   140016b63:	cc                   	int3   
   140016b64:	cc                   	int3   
   140016b65:	cc                   	int3   
   140016b66:	cc                   	int3   
   140016b67:	cc                   	int3   
   140016b68:	cc                   	int3   
   140016b69:	cc                   	int3   
   140016b6a:	cc                   	int3   
   140016b6b:	cc                   	int3   
   140016b6c:	cc                   	int3   
   140016b6d:	cc                   	int3   
   140016b6e:	cc                   	int3   
   140016b6f:	cc                   	int3   
   140016b70:	cc                   	int3   
   140016b71:	cc                   	int3   
   140016b72:	cc                   	int3   
   140016b73:	cc                   	int3   
   140016b74:	cc                   	int3   
   140016b75:	cc                   	int3   
   140016b76:	cc                   	int3   
   140016b77:	cc                   	int3   
   140016b78:	cc                   	int3   
   140016b79:	cc                   	int3   
   140016b7a:	cc                   	int3   
   140016b7b:	cc                   	int3   
   140016b7c:	cc                   	int3   
   140016b7d:	cc                   	int3   
   140016b7e:	cc                   	int3   
   140016b7f:	cc                   	int3   
   140016b80:	cc                   	int3   
   140016b81:	cc                   	int3   
   140016b82:	cc                   	int3   
   140016b83:	cc                   	int3   
   140016b84:	cc                   	int3   
   140016b85:	cc                   	int3   
   140016b86:	cc                   	int3   
   140016b87:	cc                   	int3   
   140016b88:	cc                   	int3   
   140016b89:	cc                   	int3   
   140016b8a:	cc                   	int3   
   140016b8b:	cc                   	int3   
   140016b8c:	cc                   	int3   
   140016b8d:	cc                   	int3   
   140016b8e:	cc                   	int3   
   140016b8f:	cc                   	int3   
   140016b90:	cc                   	int3   
   140016b91:	cc                   	int3   
   140016b92:	cc                   	int3   
   140016b93:	cc                   	int3   
   140016b94:	cc                   	int3   
   140016b95:	cc                   	int3   
   140016b96:	cc                   	int3   
   140016b97:	cc                   	int3   
   140016b98:	cc                   	int3   
   140016b99:	cc                   	int3   
   140016b9a:	cc                   	int3   
   140016b9b:	cc                   	int3   
   140016b9c:	cc                   	int3   
   140016b9d:	cc                   	int3   
   140016b9e:	cc                   	int3   
   140016b9f:	cc                   	int3   
   140016ba0:	cc                   	int3   
   140016ba1:	cc                   	int3   
   140016ba2:	cc                   	int3   
   140016ba3:	cc                   	int3   
   140016ba4:	cc                   	int3   
   140016ba5:	cc                   	int3   
   140016ba6:	cc                   	int3   
   140016ba7:	cc                   	int3   
   140016ba8:	cc                   	int3   
   140016ba9:	cc                   	int3   
   140016baa:	cc                   	int3   
   140016bab:	cc                   	int3   
   140016bac:	cc                   	int3   
   140016bad:	cc                   	int3   
   140016bae:	cc                   	int3   
   140016baf:	cc                   	int3   
   140016bb0:	cc                   	int3   
   140016bb1:	cc                   	int3   
   140016bb2:	cc                   	int3   
   140016bb3:	cc                   	int3   
   140016bb4:	cc                   	int3   
   140016bb5:	cc                   	int3   
   140016bb6:	cc                   	int3   
   140016bb7:	cc                   	int3   
   140016bb8:	cc                   	int3   
   140016bb9:	cc                   	int3   
   140016bba:	cc                   	int3   
   140016bbb:	cc                   	int3   
   140016bbc:	cc                   	int3   
   140016bbd:	cc                   	int3   
   140016bbe:	cc                   	int3   
   140016bbf:	cc                   	int3   
   140016bc0:	cc                   	int3   
   140016bc1:	cc                   	int3   
   140016bc2:	cc                   	int3   
   140016bc3:	cc                   	int3   
   140016bc4:	cc                   	int3   
   140016bc5:	cc                   	int3   
   140016bc6:	cc                   	int3   
   140016bc7:	cc                   	int3   
   140016bc8:	cc                   	int3   
   140016bc9:	cc                   	int3   
   140016bca:	cc                   	int3   
   140016bcb:	cc                   	int3   
   140016bcc:	cc                   	int3   
   140016bcd:	cc                   	int3   
   140016bce:	cc                   	int3   
   140016bcf:	cc                   	int3   
   140016bd0:	cc                   	int3   
   140016bd1:	cc                   	int3   
   140016bd2:	cc                   	int3   
   140016bd3:	cc                   	int3   
   140016bd4:	cc                   	int3   
   140016bd5:	cc                   	int3   
   140016bd6:	cc                   	int3   
   140016bd7:	cc                   	int3   
   140016bd8:	cc                   	int3   
   140016bd9:	cc                   	int3   
   140016bda:	cc                   	int3   
   140016bdb:	cc                   	int3   
   140016bdc:	cc                   	int3   
   140016bdd:	cc                   	int3   
   140016bde:	cc                   	int3   
   140016bdf:	cc                   	int3   
   140016be0:	cc                   	int3   
   140016be1:	cc                   	int3   
   140016be2:	cc                   	int3   
   140016be3:	cc                   	int3   
   140016be4:	cc                   	int3   
   140016be5:	cc                   	int3   
   140016be6:	cc                   	int3   
   140016be7:	cc                   	int3   
   140016be8:	cc                   	int3   
   140016be9:	cc                   	int3   
   140016bea:	cc                   	int3   
   140016beb:	cc                   	int3   
   140016bec:	cc                   	int3   
   140016bed:	cc                   	int3   
   140016bee:	cc                   	int3   
   140016bef:	cc                   	int3   
   140016bf0:	cc                   	int3   
   140016bf1:	cc                   	int3   
   140016bf2:	cc                   	int3   
   140016bf3:	cc                   	int3   
   140016bf4:	cc                   	int3   
   140016bf5:	cc                   	int3   
   140016bf6:	cc                   	int3   
   140016bf7:	cc                   	int3   
   140016bf8:	cc                   	int3   
   140016bf9:	cc                   	int3   
   140016bfa:	cc                   	int3   
   140016bfb:	cc                   	int3   
   140016bfc:	cc                   	int3   
   140016bfd:	cc                   	int3   
   140016bfe:	cc                   	int3   
   140016bff:	cc                   	int3   
   140016c00:	cc                   	int3   
   140016c01:	cc                   	int3   
   140016c02:	cc                   	int3   
   140016c03:	cc                   	int3   
   140016c04:	cc                   	int3   
   140016c05:	cc                   	int3   
   140016c06:	cc                   	int3   
   140016c07:	cc                   	int3   
   140016c08:	cc                   	int3   
   140016c09:	cc                   	int3   
   140016c0a:	cc                   	int3   
   140016c0b:	cc                   	int3   
   140016c0c:	cc                   	int3   
   140016c0d:	cc                   	int3   
   140016c0e:	cc                   	int3   
   140016c0f:	cc                   	int3   
   140016c10:	cc                   	int3   
   140016c11:	cc                   	int3   
   140016c12:	cc                   	int3   
   140016c13:	cc                   	int3   
   140016c14:	cc                   	int3   
   140016c15:	cc                   	int3   
   140016c16:	cc                   	int3   
   140016c17:	cc                   	int3   
   140016c18:	cc                   	int3   
   140016c19:	cc                   	int3   
   140016c1a:	cc                   	int3   
   140016c1b:	cc                   	int3   
   140016c1c:	cc                   	int3   
   140016c1d:	cc                   	int3   
   140016c1e:	cc                   	int3   
   140016c1f:	cc                   	int3   
   140016c20:	cc                   	int3   
   140016c21:	cc                   	int3   
   140016c22:	cc                   	int3   
   140016c23:	cc                   	int3   
   140016c24:	cc                   	int3   
   140016c25:	cc                   	int3   
   140016c26:	cc                   	int3   
   140016c27:	cc                   	int3   
   140016c28:	cc                   	int3   
   140016c29:	cc                   	int3   
   140016c2a:	cc                   	int3   
   140016c2b:	cc                   	int3   
   140016c2c:	cc                   	int3   
   140016c2d:	cc                   	int3   
   140016c2e:	cc                   	int3   
   140016c2f:	cc                   	int3   
   140016c30:	cc                   	int3   
   140016c31:	cc                   	int3   
   140016c32:	cc                   	int3   
   140016c33:	cc                   	int3   
   140016c34:	cc                   	int3   
   140016c35:	cc                   	int3   
   140016c36:	cc                   	int3   
   140016c37:	cc                   	int3   
   140016c38:	cc                   	int3   
   140016c39:	cc                   	int3   
   140016c3a:	cc                   	int3   
   140016c3b:	cc                   	int3   
   140016c3c:	cc                   	int3   
   140016c3d:	cc                   	int3   
   140016c3e:	cc                   	int3   
   140016c3f:	cc                   	int3   
   140016c40:	cc                   	int3   
   140016c41:	cc                   	int3   
   140016c42:	cc                   	int3   
   140016c43:	cc                   	int3   
   140016c44:	cc                   	int3   
   140016c45:	cc                   	int3   
   140016c46:	cc                   	int3   
   140016c47:	cc                   	int3   
   140016c48:	cc                   	int3   
   140016c49:	cc                   	int3   
   140016c4a:	cc                   	int3   
   140016c4b:	cc                   	int3   
   140016c4c:	cc                   	int3   
   140016c4d:	cc                   	int3   
   140016c4e:	cc                   	int3   
   140016c4f:	cc                   	int3   
   140016c50:	cc                   	int3   
   140016c51:	cc                   	int3   
   140016c52:	cc                   	int3   
   140016c53:	cc                   	int3   
   140016c54:	cc                   	int3   
   140016c55:	cc                   	int3   
   140016c56:	cc                   	int3   
   140016c57:	cc                   	int3   
   140016c58:	cc                   	int3   
   140016c59:	cc                   	int3   
   140016c5a:	cc                   	int3   
   140016c5b:	cc                   	int3   
   140016c5c:	cc                   	int3   
   140016c5d:	cc                   	int3   
   140016c5e:	cc                   	int3   
   140016c5f:	cc                   	int3   
   140016c60:	cc                   	int3   
   140016c61:	cc                   	int3   
   140016c62:	cc                   	int3   
   140016c63:	cc                   	int3   
   140016c64:	cc                   	int3   
   140016c65:	cc                   	int3   
   140016c66:	cc                   	int3   
   140016c67:	cc                   	int3   
   140016c68:	cc                   	int3   
   140016c69:	cc                   	int3   
   140016c6a:	cc                   	int3   
   140016c6b:	cc                   	int3   
   140016c6c:	cc                   	int3   
   140016c6d:	cc                   	int3   
   140016c6e:	cc                   	int3   
   140016c6f:	cc                   	int3   
   140016c70:	cc                   	int3   
   140016c71:	cc                   	int3   
   140016c72:	cc                   	int3   
   140016c73:	cc                   	int3   
   140016c74:	cc                   	int3   
   140016c75:	cc                   	int3   
   140016c76:	cc                   	int3   
   140016c77:	cc                   	int3   
   140016c78:	cc                   	int3   
   140016c79:	cc                   	int3   
   140016c7a:	cc                   	int3   
   140016c7b:	cc                   	int3   
   140016c7c:	cc                   	int3   
   140016c7d:	cc                   	int3   
   140016c7e:	cc                   	int3   
   140016c7f:	cc                   	int3   
   140016c80:	cc                   	int3   
   140016c81:	cc                   	int3   
   140016c82:	cc                   	int3   
   140016c83:	cc                   	int3   
   140016c84:	cc                   	int3   
   140016c85:	cc                   	int3   
   140016c86:	cc                   	int3   
   140016c87:	cc                   	int3   
   140016c88:	cc                   	int3   
   140016c89:	cc                   	int3   
   140016c8a:	cc                   	int3   
   140016c8b:	cc                   	int3   
   140016c8c:	cc                   	int3   
   140016c8d:	cc                   	int3   
   140016c8e:	cc                   	int3   
   140016c8f:	cc                   	int3   
   140016c90:	cc                   	int3   
   140016c91:	cc                   	int3   
   140016c92:	cc                   	int3   
   140016c93:	cc                   	int3   
   140016c94:	cc                   	int3   
   140016c95:	cc                   	int3   
   140016c96:	cc                   	int3   
   140016c97:	cc                   	int3   
   140016c98:	cc                   	int3   
   140016c99:	cc                   	int3   
   140016c9a:	cc                   	int3   
   140016c9b:	cc                   	int3   
   140016c9c:	cc                   	int3   
   140016c9d:	cc                   	int3   
   140016c9e:	cc                   	int3   
   140016c9f:	cc                   	int3   
   140016ca0:	cc                   	int3   
   140016ca1:	cc                   	int3   
   140016ca2:	cc                   	int3   
   140016ca3:	cc                   	int3   
   140016ca4:	cc                   	int3   
   140016ca5:	cc                   	int3   
   140016ca6:	cc                   	int3   
   140016ca7:	cc                   	int3   
   140016ca8:	cc                   	int3   
   140016ca9:	cc                   	int3   
   140016caa:	cc                   	int3   
   140016cab:	cc                   	int3   
   140016cac:	cc                   	int3   
   140016cad:	cc                   	int3   
   140016cae:	cc                   	int3   
   140016caf:	cc                   	int3   
   140016cb0:	cc                   	int3   
   140016cb1:	cc                   	int3   
   140016cb2:	cc                   	int3   
   140016cb3:	cc                   	int3   
   140016cb4:	cc                   	int3   
   140016cb5:	cc                   	int3   
   140016cb6:	cc                   	int3   
   140016cb7:	cc                   	int3   
   140016cb8:	cc                   	int3   
   140016cb9:	cc                   	int3   
   140016cba:	cc                   	int3   
   140016cbb:	cc                   	int3   
   140016cbc:	cc                   	int3   
   140016cbd:	cc                   	int3   
   140016cbe:	cc                   	int3   
   140016cbf:	cc                   	int3   
   140016cc0:	cc                   	int3   
   140016cc1:	cc                   	int3   
   140016cc2:	cc                   	int3   
   140016cc3:	cc                   	int3   
   140016cc4:	cc                   	int3   
   140016cc5:	cc                   	int3   
   140016cc6:	cc                   	int3   
   140016cc7:	cc                   	int3   
   140016cc8:	cc                   	int3   
   140016cc9:	cc                   	int3   
   140016cca:	cc                   	int3   
   140016ccb:	cc                   	int3   
   140016ccc:	cc                   	int3   
   140016ccd:	cc                   	int3   
   140016cce:	cc                   	int3   
   140016ccf:	cc                   	int3   
   140016cd0:	cc                   	int3   
   140016cd1:	cc                   	int3   
   140016cd2:	cc                   	int3   
   140016cd3:	cc                   	int3   
   140016cd4:	cc                   	int3   
   140016cd5:	cc                   	int3   
   140016cd6:	cc                   	int3   
   140016cd7:	cc                   	int3   
   140016cd8:	cc                   	int3   
   140016cd9:	cc                   	int3   
   140016cda:	cc                   	int3   
   140016cdb:	cc                   	int3   
   140016cdc:	cc                   	int3   
   140016cdd:	cc                   	int3   
   140016cde:	cc                   	int3   
   140016cdf:	cc                   	int3   
   140016ce0:	cc                   	int3   
   140016ce1:	cc                   	int3   
   140016ce2:	cc                   	int3   
   140016ce3:	cc                   	int3   
   140016ce4:	cc                   	int3   
   140016ce5:	cc                   	int3   
   140016ce6:	cc                   	int3   
   140016ce7:	cc                   	int3   
   140016ce8:	cc                   	int3   
   140016ce9:	cc                   	int3   
   140016cea:	cc                   	int3   
   140016ceb:	cc                   	int3   
   140016cec:	cc                   	int3   
   140016ced:	cc                   	int3   
   140016cee:	cc                   	int3   
   140016cef:	cc                   	int3   
   140016cf0:	cc                   	int3   
   140016cf1:	cc                   	int3   
   140016cf2:	cc                   	int3   
   140016cf3:	cc                   	int3   
   140016cf4:	cc                   	int3   
   140016cf5:	cc                   	int3   
   140016cf6:	cc                   	int3   
   140016cf7:	cc                   	int3   
   140016cf8:	cc                   	int3   
   140016cf9:	cc                   	int3   
   140016cfa:	cc                   	int3   
   140016cfb:	cc                   	int3   
   140016cfc:	cc                   	int3   
   140016cfd:	cc                   	int3   
   140016cfe:	cc                   	int3   
   140016cff:	cc                   	int3   
   140016d00:	cc                   	int3   
   140016d01:	cc                   	int3   
   140016d02:	cc                   	int3   
   140016d03:	cc                   	int3   
   140016d04:	cc                   	int3   
   140016d05:	cc                   	int3   
   140016d06:	cc                   	int3   
   140016d07:	cc                   	int3   
   140016d08:	cc                   	int3   
   140016d09:	cc                   	int3   
   140016d0a:	cc                   	int3   
   140016d0b:	cc                   	int3   
   140016d0c:	cc                   	int3   
   140016d0d:	cc                   	int3   
   140016d0e:	cc                   	int3   
   140016d0f:	cc                   	int3   
   140016d10:	cc                   	int3   
   140016d11:	cc                   	int3   
   140016d12:	cc                   	int3   
   140016d13:	cc                   	int3   
   140016d14:	cc                   	int3   
   140016d15:	cc                   	int3   
   140016d16:	cc                   	int3   
   140016d17:	cc                   	int3   
   140016d18:	cc                   	int3   
   140016d19:	cc                   	int3   
   140016d1a:	cc                   	int3   
   140016d1b:	cc                   	int3   
   140016d1c:	cc                   	int3   
   140016d1d:	cc                   	int3   
   140016d1e:	cc                   	int3   
   140016d1f:	cc                   	int3   
   140016d20:	cc                   	int3   
   140016d21:	cc                   	int3   
   140016d22:	cc                   	int3   
   140016d23:	cc                   	int3   
   140016d24:	cc                   	int3   
   140016d25:	cc                   	int3   
   140016d26:	cc                   	int3   
   140016d27:	cc                   	int3   
   140016d28:	cc                   	int3   
   140016d29:	cc                   	int3   
   140016d2a:	cc                   	int3   
   140016d2b:	cc                   	int3   
   140016d2c:	cc                   	int3   
   140016d2d:	cc                   	int3   
   140016d2e:	cc                   	int3   
   140016d2f:	cc                   	int3   
   140016d30:	cc                   	int3   
   140016d31:	cc                   	int3   
   140016d32:	cc                   	int3   
   140016d33:	cc                   	int3   
   140016d34:	cc                   	int3   
   140016d35:	cc                   	int3   
   140016d36:	cc                   	int3   
   140016d37:	cc                   	int3   
   140016d38:	cc                   	int3   
   140016d39:	cc                   	int3   
   140016d3a:	cc                   	int3   
   140016d3b:	cc                   	int3   
   140016d3c:	cc                   	int3   
   140016d3d:	cc                   	int3   
   140016d3e:	cc                   	int3   
   140016d3f:	cc                   	int3   
   140016d40:	cc                   	int3   
   140016d41:	cc                   	int3   
   140016d42:	cc                   	int3   
   140016d43:	cc                   	int3   
   140016d44:	cc                   	int3   
   140016d45:	cc                   	int3   
   140016d46:	cc                   	int3   
   140016d47:	cc                   	int3   
   140016d48:	cc                   	int3   
   140016d49:	cc                   	int3   
   140016d4a:	cc                   	int3   
   140016d4b:	cc                   	int3   
   140016d4c:	cc                   	int3   
   140016d4d:	cc                   	int3   
   140016d4e:	cc                   	int3   
   140016d4f:	cc                   	int3   
   140016d50:	cc                   	int3   
   140016d51:	cc                   	int3   
   140016d52:	cc                   	int3   
   140016d53:	cc                   	int3   
   140016d54:	cc                   	int3   
   140016d55:	cc                   	int3   
   140016d56:	cc                   	int3   
   140016d57:	cc                   	int3   
   140016d58:	cc                   	int3   
   140016d59:	cc                   	int3   
   140016d5a:	cc                   	int3   
   140016d5b:	cc                   	int3   
   140016d5c:	cc                   	int3   
   140016d5d:	cc                   	int3   
   140016d5e:	cc                   	int3   
   140016d5f:	cc                   	int3   
   140016d60:	cc                   	int3   
   140016d61:	cc                   	int3   
   140016d62:	cc                   	int3   
   140016d63:	cc                   	int3   
   140016d64:	cc                   	int3   
   140016d65:	cc                   	int3   
   140016d66:	cc                   	int3   
   140016d67:	cc                   	int3   
   140016d68:	cc                   	int3   
   140016d69:	cc                   	int3   
   140016d6a:	cc                   	int3   
   140016d6b:	cc                   	int3   
   140016d6c:	cc                   	int3   
   140016d6d:	cc                   	int3   
   140016d6e:	cc                   	int3   
   140016d6f:	cc                   	int3   
   140016d70:	cc                   	int3   
   140016d71:	cc                   	int3   
   140016d72:	cc                   	int3   
   140016d73:	cc                   	int3   
   140016d74:	cc                   	int3   
   140016d75:	cc                   	int3   
   140016d76:	cc                   	int3   
   140016d77:	cc                   	int3   
   140016d78:	cc                   	int3   
   140016d79:	cc                   	int3   
   140016d7a:	cc                   	int3   
   140016d7b:	cc                   	int3   
   140016d7c:	cc                   	int3   
   140016d7d:	cc                   	int3   
   140016d7e:	cc                   	int3   
   140016d7f:	cc                   	int3   
   140016d80:	cc                   	int3   
   140016d81:	cc                   	int3   
   140016d82:	cc                   	int3   
   140016d83:	cc                   	int3   
   140016d84:	cc                   	int3   
   140016d85:	cc                   	int3   
   140016d86:	cc                   	int3   
   140016d87:	cc                   	int3   
   140016d88:	cc                   	int3   
   140016d89:	cc                   	int3   
   140016d8a:	cc                   	int3   
   140016d8b:	cc                   	int3   
   140016d8c:	cc                   	int3   
   140016d8d:	cc                   	int3   
   140016d8e:	cc                   	int3   
   140016d8f:	cc                   	int3   
   140016d90:	cc                   	int3   
   140016d91:	cc                   	int3   
   140016d92:	cc                   	int3   
   140016d93:	cc                   	int3   
   140016d94:	cc                   	int3   
   140016d95:	cc                   	int3   
   140016d96:	cc                   	int3   
   140016d97:	cc                   	int3   
   140016d98:	cc                   	int3   
   140016d99:	cc                   	int3   
   140016d9a:	cc                   	int3   
   140016d9b:	cc                   	int3   
   140016d9c:	cc                   	int3   
   140016d9d:	cc                   	int3   
   140016d9e:	cc                   	int3   
   140016d9f:	cc                   	int3   
   140016da0:	cc                   	int3   
   140016da1:	cc                   	int3   
   140016da2:	cc                   	int3   
   140016da3:	cc                   	int3   
   140016da4:	cc                   	int3   
   140016da5:	cc                   	int3   
   140016da6:	cc                   	int3   
   140016da7:	cc                   	int3   
   140016da8:	cc                   	int3   
   140016da9:	cc                   	int3   
   140016daa:	cc                   	int3   
   140016dab:	cc                   	int3   
   140016dac:	cc                   	int3   
   140016dad:	cc                   	int3   
   140016dae:	cc                   	int3   
   140016daf:	cc                   	int3   
   140016db0:	cc                   	int3   
   140016db1:	cc                   	int3   
   140016db2:	cc                   	int3   
   140016db3:	cc                   	int3   
   140016db4:	cc                   	int3   
   140016db5:	cc                   	int3   
   140016db6:	cc                   	int3   
   140016db7:	cc                   	int3   
   140016db8:	cc                   	int3   
   140016db9:	cc                   	int3   
   140016dba:	cc                   	int3   
   140016dbb:	cc                   	int3   
   140016dbc:	cc                   	int3   
   140016dbd:	cc                   	int3   
   140016dbe:	cc                   	int3   
   140016dbf:	cc                   	int3   
   140016dc0:	cc                   	int3   
   140016dc1:	cc                   	int3   
   140016dc2:	cc                   	int3   
   140016dc3:	cc                   	int3   
   140016dc4:	cc                   	int3   
   140016dc5:	cc                   	int3   
   140016dc6:	cc                   	int3   
   140016dc7:	cc                   	int3   
   140016dc8:	cc                   	int3   
   140016dc9:	cc                   	int3   
   140016dca:	cc                   	int3   
   140016dcb:	cc                   	int3   
   140016dcc:	cc                   	int3   
   140016dcd:	cc                   	int3   
   140016dce:	cc                   	int3   
   140016dcf:	cc                   	int3   
   140016dd0:	cc                   	int3   
   140016dd1:	cc                   	int3   
   140016dd2:	cc                   	int3   
   140016dd3:	cc                   	int3   
   140016dd4:	cc                   	int3   
   140016dd5:	cc                   	int3   
   140016dd6:	cc                   	int3   
   140016dd7:	cc                   	int3   
   140016dd8:	cc                   	int3   
   140016dd9:	cc                   	int3   
   140016dda:	cc                   	int3   
   140016ddb:	cc                   	int3   
   140016ddc:	cc                   	int3   
   140016ddd:	cc                   	int3   
   140016dde:	cc                   	int3   
   140016ddf:	cc                   	int3   
   140016de0:	cc                   	int3   
   140016de1:	cc                   	int3   
   140016de2:	cc                   	int3   
   140016de3:	cc                   	int3   
   140016de4:	cc                   	int3   
   140016de5:	cc                   	int3   
   140016de6:	cc                   	int3   
   140016de7:	cc                   	int3   
   140016de8:	cc                   	int3   
   140016de9:	cc                   	int3   
   140016dea:	cc                   	int3   
   140016deb:	cc                   	int3   
   140016dec:	cc                   	int3   
   140016ded:	cc                   	int3   
   140016dee:	cc                   	int3   
   140016def:	cc                   	int3   
   140016df0:	cc                   	int3   
   140016df1:	cc                   	int3   
   140016df2:	cc                   	int3   
   140016df3:	cc                   	int3   
   140016df4:	cc                   	int3   
   140016df5:	cc                   	int3   
   140016df6:	cc                   	int3   
   140016df7:	cc                   	int3   
   140016df8:	cc                   	int3   
   140016df9:	cc                   	int3   
   140016dfa:	cc                   	int3   
   140016dfb:	cc                   	int3   
   140016dfc:	cc                   	int3   
   140016dfd:	cc                   	int3   
   140016dfe:	cc                   	int3   
   140016dff:	cc                   	int3   
   140016e00:	cc                   	int3   
   140016e01:	cc                   	int3   
   140016e02:	cc                   	int3   
   140016e03:	cc                   	int3   
   140016e04:	cc                   	int3   
   140016e05:	cc                   	int3   
   140016e06:	cc                   	int3   
   140016e07:	cc                   	int3   
   140016e08:	cc                   	int3   
   140016e09:	cc                   	int3   
   140016e0a:	cc                   	int3   
   140016e0b:	cc                   	int3   
   140016e0c:	cc                   	int3   
   140016e0d:	cc                   	int3   
   140016e0e:	cc                   	int3   
   140016e0f:	cc                   	int3   
   140016e10:	cc                   	int3   
   140016e11:	cc                   	int3   
   140016e12:	cc                   	int3   
   140016e13:	cc                   	int3   
   140016e14:	cc                   	int3   
   140016e15:	cc                   	int3   
   140016e16:	cc                   	int3   
   140016e17:	cc                   	int3   
   140016e18:	cc                   	int3   
   140016e19:	cc                   	int3   
   140016e1a:	cc                   	int3   
   140016e1b:	cc                   	int3   
   140016e1c:	cc                   	int3   
   140016e1d:	cc                   	int3   
   140016e1e:	cc                   	int3   
   140016e1f:	cc                   	int3   
   140016e20:	cc                   	int3   
   140016e21:	cc                   	int3   
   140016e22:	cc                   	int3   
   140016e23:	cc                   	int3   
   140016e24:	cc                   	int3   
   140016e25:	cc                   	int3   
   140016e26:	cc                   	int3   
   140016e27:	cc                   	int3   
   140016e28:	cc                   	int3   
   140016e29:	cc                   	int3   
   140016e2a:	cc                   	int3   
   140016e2b:	cc                   	int3   
   140016e2c:	cc                   	int3   
   140016e2d:	cc                   	int3   
   140016e2e:	cc                   	int3   
   140016e2f:	cc                   	int3   
   140016e30:	cc                   	int3   
   140016e31:	cc                   	int3   
   140016e32:	cc                   	int3   
   140016e33:	cc                   	int3   
   140016e34:	cc                   	int3   
   140016e35:	cc                   	int3   
   140016e36:	cc                   	int3   
   140016e37:	cc                   	int3   
   140016e38:	cc                   	int3   
   140016e39:	cc                   	int3   
   140016e3a:	cc                   	int3   
   140016e3b:	cc                   	int3   
   140016e3c:	cc                   	int3   
   140016e3d:	cc                   	int3   
   140016e3e:	cc                   	int3   
   140016e3f:	cc                   	int3   
   140016e40:	cc                   	int3   
   140016e41:	cc                   	int3   
   140016e42:	cc                   	int3   
   140016e43:	cc                   	int3   
   140016e44:	cc                   	int3   
   140016e45:	cc                   	int3   
   140016e46:	cc                   	int3   
   140016e47:	cc                   	int3   
   140016e48:	cc                   	int3   
   140016e49:	cc                   	int3   
   140016e4a:	cc                   	int3   
   140016e4b:	cc                   	int3   
   140016e4c:	cc                   	int3   
   140016e4d:	cc                   	int3   
   140016e4e:	cc                   	int3   
   140016e4f:	cc                   	int3   
   140016e50:	cc                   	int3   
   140016e51:	cc                   	int3   
   140016e52:	cc                   	int3   
   140016e53:	cc                   	int3   
   140016e54:	cc                   	int3   
   140016e55:	cc                   	int3   
   140016e56:	cc                   	int3   
   140016e57:	cc                   	int3   
   140016e58:	cc                   	int3   
   140016e59:	cc                   	int3   
   140016e5a:	cc                   	int3   
   140016e5b:	cc                   	int3   
   140016e5c:	cc                   	int3   
   140016e5d:	cc                   	int3   
   140016e5e:	cc                   	int3   
   140016e5f:	cc                   	int3   
   140016e60:	cc                   	int3   
   140016e61:	cc                   	int3   
   140016e62:	cc                   	int3   
   140016e63:	cc                   	int3   
   140016e64:	cc                   	int3   
   140016e65:	cc                   	int3   
   140016e66:	cc                   	int3   
   140016e67:	cc                   	int3   
   140016e68:	cc                   	int3   
   140016e69:	cc                   	int3   
   140016e6a:	cc                   	int3   
   140016e6b:	cc                   	int3   
   140016e6c:	cc                   	int3   
   140016e6d:	cc                   	int3   
   140016e6e:	cc                   	int3   
   140016e6f:	cc                   	int3   
   140016e70:	cc                   	int3   
   140016e71:	cc                   	int3   
   140016e72:	cc                   	int3   
   140016e73:	cc                   	int3   
   140016e74:	cc                   	int3   
   140016e75:	cc                   	int3   
   140016e76:	cc                   	int3   
   140016e77:	cc                   	int3   
   140016e78:	cc                   	int3   
   140016e79:	cc                   	int3   
   140016e7a:	cc                   	int3   
   140016e7b:	cc                   	int3   
   140016e7c:	cc                   	int3   
   140016e7d:	cc                   	int3   
   140016e7e:	cc                   	int3   
   140016e7f:	cc                   	int3   
   140016e80:	cc                   	int3   
   140016e81:	cc                   	int3   
   140016e82:	cc                   	int3   
   140016e83:	cc                   	int3   
   140016e84:	cc                   	int3   
   140016e85:	cc                   	int3   
   140016e86:	cc                   	int3   
   140016e87:	cc                   	int3   
   140016e88:	cc                   	int3   
   140016e89:	cc                   	int3   
   140016e8a:	cc                   	int3   
   140016e8b:	cc                   	int3   
   140016e8c:	cc                   	int3   
   140016e8d:	cc                   	int3   
   140016e8e:	cc                   	int3   
   140016e8f:	cc                   	int3   
   140016e90:	cc                   	int3   
   140016e91:	cc                   	int3   
   140016e92:	cc                   	int3   
   140016e93:	cc                   	int3   
   140016e94:	cc                   	int3   
   140016e95:	cc                   	int3   
   140016e96:	cc                   	int3   
   140016e97:	cc                   	int3   
   140016e98:	cc                   	int3   
   140016e99:	cc                   	int3   
   140016e9a:	cc                   	int3   
   140016e9b:	cc                   	int3   
   140016e9c:	cc                   	int3   
   140016e9d:	cc                   	int3   
   140016e9e:	cc                   	int3   
   140016e9f:	cc                   	int3   
   140016ea0:	cc                   	int3   
   140016ea1:	cc                   	int3   
   140016ea2:	cc                   	int3   
   140016ea3:	cc                   	int3   
   140016ea4:	cc                   	int3   
   140016ea5:	cc                   	int3   
   140016ea6:	cc                   	int3   
   140016ea7:	cc                   	int3   
   140016ea8:	cc                   	int3   
   140016ea9:	cc                   	int3   
   140016eaa:	cc                   	int3   
   140016eab:	cc                   	int3   
   140016eac:	cc                   	int3   
   140016ead:	cc                   	int3   
   140016eae:	cc                   	int3   
   140016eaf:	cc                   	int3   
   140016eb0:	cc                   	int3   
   140016eb1:	cc                   	int3   
   140016eb2:	cc                   	int3   
   140016eb3:	cc                   	int3   
   140016eb4:	cc                   	int3   
   140016eb5:	cc                   	int3   
   140016eb6:	cc                   	int3   
   140016eb7:	cc                   	int3   
   140016eb8:	cc                   	int3   
   140016eb9:	cc                   	int3   
   140016eba:	cc                   	int3   
   140016ebb:	cc                   	int3   
   140016ebc:	cc                   	int3   
   140016ebd:	cc                   	int3   
   140016ebe:	cc                   	int3   
   140016ebf:	cc                   	int3   
   140016ec0:	cc                   	int3   
   140016ec1:	cc                   	int3   
   140016ec2:	cc                   	int3   
   140016ec3:	cc                   	int3   
   140016ec4:	cc                   	int3   
   140016ec5:	cc                   	int3   
   140016ec6:	cc                   	int3   
   140016ec7:	cc                   	int3   
   140016ec8:	cc                   	int3   
   140016ec9:	cc                   	int3   
   140016eca:	cc                   	int3   
   140016ecb:	cc                   	int3   
   140016ecc:	cc                   	int3   
   140016ecd:	cc                   	int3   
   140016ece:	cc                   	int3   
   140016ecf:	cc                   	int3   
   140016ed0:	cc                   	int3   
   140016ed1:	cc                   	int3   
   140016ed2:	cc                   	int3   
   140016ed3:	cc                   	int3   
   140016ed4:	cc                   	int3   
   140016ed5:	cc                   	int3   
   140016ed6:	cc                   	int3   
   140016ed7:	cc                   	int3   
   140016ed8:	cc                   	int3   
   140016ed9:	cc                   	int3   
   140016eda:	cc                   	int3   
   140016edb:	cc                   	int3   
   140016edc:	cc                   	int3   
   140016edd:	cc                   	int3   
   140016ede:	cc                   	int3   
   140016edf:	cc                   	int3   
   140016ee0:	cc                   	int3   
   140016ee1:	cc                   	int3   
   140016ee2:	cc                   	int3   
   140016ee3:	cc                   	int3   
   140016ee4:	cc                   	int3   
   140016ee5:	cc                   	int3   
   140016ee6:	cc                   	int3   
   140016ee7:	cc                   	int3   
   140016ee8:	cc                   	int3   
   140016ee9:	cc                   	int3   
   140016eea:	cc                   	int3   
   140016eeb:	cc                   	int3   
   140016eec:	cc                   	int3   
   140016eed:	cc                   	int3   
   140016eee:	cc                   	int3   
   140016eef:	cc                   	int3   
   140016ef0:	cc                   	int3   
   140016ef1:	cc                   	int3   
   140016ef2:	cc                   	int3   
   140016ef3:	cc                   	int3   
   140016ef4:	cc                   	int3   
   140016ef5:	cc                   	int3   
   140016ef6:	cc                   	int3   
   140016ef7:	cc                   	int3   
   140016ef8:	cc                   	int3   
   140016ef9:	cc                   	int3   
   140016efa:	cc                   	int3   
   140016efb:	cc                   	int3   
   140016efc:	cc                   	int3   
   140016efd:	cc                   	int3   
   140016efe:	cc                   	int3   
   140016eff:	cc                   	int3   
   140016f00:	cc                   	int3   
   140016f01:	cc                   	int3   
   140016f02:	cc                   	int3   
   140016f03:	cc                   	int3   
   140016f04:	cc                   	int3   
   140016f05:	cc                   	int3   
   140016f06:	cc                   	int3   
   140016f07:	cc                   	int3   
   140016f08:	cc                   	int3   
   140016f09:	cc                   	int3   
   140016f0a:	cc                   	int3   
   140016f0b:	cc                   	int3   
   140016f0c:	cc                   	int3   
   140016f0d:	cc                   	int3   
   140016f0e:	cc                   	int3   
   140016f0f:	cc                   	int3   
   140016f10:	cc                   	int3   
   140016f11:	cc                   	int3   
   140016f12:	cc                   	int3   
   140016f13:	cc                   	int3   
   140016f14:	cc                   	int3   
   140016f15:	cc                   	int3   
   140016f16:	cc                   	int3   
   140016f17:	cc                   	int3   
   140016f18:	cc                   	int3   
   140016f19:	cc                   	int3   
   140016f1a:	cc                   	int3   
   140016f1b:	cc                   	int3   
   140016f1c:	cc                   	int3   
   140016f1d:	cc                   	int3   
   140016f1e:	cc                   	int3   
   140016f1f:	cc                   	int3   
   140016f20:	cc                   	int3   
   140016f21:	cc                   	int3   
   140016f22:	cc                   	int3   
   140016f23:	cc                   	int3   
   140016f24:	cc                   	int3   
   140016f25:	cc                   	int3   
   140016f26:	cc                   	int3   
   140016f27:	cc                   	int3   
   140016f28:	cc                   	int3   
   140016f29:	cc                   	int3   
   140016f2a:	cc                   	int3   
   140016f2b:	cc                   	int3   
   140016f2c:	cc                   	int3   
   140016f2d:	cc                   	int3   
   140016f2e:	cc                   	int3   
   140016f2f:	cc                   	int3   
   140016f30:	cc                   	int3   
   140016f31:	cc                   	int3   
   140016f32:	cc                   	int3   
   140016f33:	cc                   	int3   
   140016f34:	cc                   	int3   
   140016f35:	cc                   	int3   
   140016f36:	cc                   	int3   
   140016f37:	cc                   	int3   
   140016f38:	cc                   	int3   
   140016f39:	cc                   	int3   
   140016f3a:	cc                   	int3   
   140016f3b:	cc                   	int3   
   140016f3c:	cc                   	int3   
   140016f3d:	cc                   	int3   
   140016f3e:	cc                   	int3   
   140016f3f:	cc                   	int3   
   140016f40:	cc                   	int3   
   140016f41:	cc                   	int3   
   140016f42:	cc                   	int3   
   140016f43:	cc                   	int3   
   140016f44:	cc                   	int3   
   140016f45:	cc                   	int3   
   140016f46:	cc                   	int3   
   140016f47:	cc                   	int3   
   140016f48:	cc                   	int3   
   140016f49:	cc                   	int3   
   140016f4a:	cc                   	int3   
   140016f4b:	cc                   	int3   
   140016f4c:	cc                   	int3   
   140016f4d:	cc                   	int3   
   140016f4e:	cc                   	int3   
   140016f4f:	cc                   	int3   
   140016f50:	cc                   	int3   
   140016f51:	cc                   	int3   
   140016f52:	cc                   	int3   
   140016f53:	cc                   	int3   
   140016f54:	cc                   	int3   
   140016f55:	cc                   	int3   
   140016f56:	cc                   	int3   
   140016f57:	cc                   	int3   
   140016f58:	cc                   	int3   
   140016f59:	cc                   	int3   
   140016f5a:	cc                   	int3   
   140016f5b:	cc                   	int3   
   140016f5c:	cc                   	int3   
   140016f5d:	cc                   	int3   
   140016f5e:	cc                   	int3   
   140016f5f:	cc                   	int3   
   140016f60:	cc                   	int3   
   140016f61:	cc                   	int3   
   140016f62:	cc                   	int3   
   140016f63:	cc                   	int3   
   140016f64:	cc                   	int3   
   140016f65:	cc                   	int3   
   140016f66:	cc                   	int3   
   140016f67:	cc                   	int3   
   140016f68:	cc                   	int3   
   140016f69:	cc                   	int3   
   140016f6a:	cc                   	int3   
   140016f6b:	cc                   	int3   
   140016f6c:	cc                   	int3   
   140016f6d:	cc                   	int3   
   140016f6e:	cc                   	int3   
   140016f6f:	cc                   	int3   
   140016f70:	cc                   	int3   
   140016f71:	cc                   	int3   
   140016f72:	cc                   	int3   
   140016f73:	cc                   	int3   
   140016f74:	cc                   	int3   
   140016f75:	cc                   	int3   
   140016f76:	cc                   	int3   
   140016f77:	cc                   	int3   
   140016f78:	cc                   	int3   
   140016f79:	cc                   	int3   
   140016f7a:	cc                   	int3   
   140016f7b:	cc                   	int3   
   140016f7c:	cc                   	int3   
   140016f7d:	cc                   	int3   
   140016f7e:	cc                   	int3   
   140016f7f:	cc                   	int3   
   140016f80:	cc                   	int3   
   140016f81:	cc                   	int3   
   140016f82:	cc                   	int3   
   140016f83:	cc                   	int3   
   140016f84:	cc                   	int3   
   140016f85:	cc                   	int3   
   140016f86:	cc                   	int3   
   140016f87:	cc                   	int3   
   140016f88:	cc                   	int3   
   140016f89:	cc                   	int3   
   140016f8a:	cc                   	int3   
   140016f8b:	cc                   	int3   
   140016f8c:	cc                   	int3   
   140016f8d:	cc                   	int3   
   140016f8e:	cc                   	int3   
   140016f8f:	cc                   	int3   
   140016f90:	cc                   	int3   
   140016f91:	cc                   	int3   
   140016f92:	cc                   	int3   
   140016f93:	cc                   	int3   
   140016f94:	cc                   	int3   
   140016f95:	cc                   	int3   
   140016f96:	cc                   	int3   
   140016f97:	cc                   	int3   
   140016f98:	cc                   	int3   
   140016f99:	cc                   	int3   
   140016f9a:	cc                   	int3   
   140016f9b:	cc                   	int3   
   140016f9c:	cc                   	int3   
   140016f9d:	cc                   	int3   
   140016f9e:	cc                   	int3   
   140016f9f:	cc                   	int3   
   140016fa0:	cc                   	int3   
   140016fa1:	cc                   	int3   
   140016fa2:	cc                   	int3   
   140016fa3:	cc                   	int3   
   140016fa4:	cc                   	int3   
   140016fa5:	cc                   	int3   
   140016fa6:	cc                   	int3   
   140016fa7:	cc                   	int3   
   140016fa8:	cc                   	int3   
   140016fa9:	cc                   	int3   
   140016faa:	cc                   	int3   
   140016fab:	cc                   	int3   
   140016fac:	cc                   	int3   
   140016fad:	cc                   	int3   
   140016fae:	cc                   	int3   
   140016faf:	cc                   	int3   
   140016fb0:	cc                   	int3   
   140016fb1:	cc                   	int3   
   140016fb2:	cc                   	int3   
   140016fb3:	cc                   	int3   
   140016fb4:	cc                   	int3   
   140016fb5:	cc                   	int3   
   140016fb6:	cc                   	int3   
   140016fb7:	cc                   	int3   
   140016fb8:	cc                   	int3   
   140016fb9:	cc                   	int3   
   140016fba:	cc                   	int3   
   140016fbb:	cc                   	int3   
   140016fbc:	cc                   	int3   
   140016fbd:	cc                   	int3   
   140016fbe:	cc                   	int3   
   140016fbf:	cc                   	int3   
   140016fc0:	cc                   	int3   
   140016fc1:	cc                   	int3   
   140016fc2:	cc                   	int3   
   140016fc3:	cc                   	int3   
   140016fc4:	cc                   	int3   
   140016fc5:	cc                   	int3   
   140016fc6:	cc                   	int3   
   140016fc7:	cc                   	int3   
   140016fc8:	cc                   	int3   
   140016fc9:	cc                   	int3   
   140016fca:	cc                   	int3   
   140016fcb:	cc                   	int3   
   140016fcc:	cc                   	int3   
   140016fcd:	cc                   	int3   
   140016fce:	cc                   	int3   
   140016fcf:	cc                   	int3   
   140016fd0:	cc                   	int3   
   140016fd1:	cc                   	int3   
   140016fd2:	cc                   	int3   
   140016fd3:	cc                   	int3   
   140016fd4:	cc                   	int3   
   140016fd5:	cc                   	int3   
   140016fd6:	cc                   	int3   
   140016fd7:	cc                   	int3   
   140016fd8:	cc                   	int3   
   140016fd9:	cc                   	int3   
   140016fda:	cc                   	int3   
   140016fdb:	cc                   	int3   
   140016fdc:	cc                   	int3   
   140016fdd:	cc                   	int3   
   140016fde:	cc                   	int3   
   140016fdf:	cc                   	int3   
   140016fe0:	cc                   	int3   
   140016fe1:	cc                   	int3   
   140016fe2:	cc                   	int3   
   140016fe3:	cc                   	int3   
   140016fe4:	cc                   	int3   
   140016fe5:	cc                   	int3   
   140016fe6:	cc                   	int3   
   140016fe7:	cc                   	int3   
   140016fe8:	cc                   	int3   
   140016fe9:	cc                   	int3   
   140016fea:	cc                   	int3   
   140016feb:	cc                   	int3   
   140016fec:	cc                   	int3   
   140016fed:	cc                   	int3   
   140016fee:	cc                   	int3   
   140016fef:	cc                   	int3   
   140016ff0:	cc                   	int3   
   140016ff1:	cc                   	int3   
   140016ff2:	cc                   	int3   
   140016ff3:	cc                   	int3   
   140016ff4:	cc                   	int3   
   140016ff5:	cc                   	int3   
   140016ff6:	cc                   	int3   
   140016ff7:	cc                   	int3   
   140016ff8:	cc                   	int3   
   140016ff9:	cc                   	int3   
   140016ffa:	cc                   	int3   
   140016ffb:	cc                   	int3   
   140016ffc:	cc                   	int3   
   140016ffd:	cc                   	int3   
   140016ffe:	cc                   	int3   
   140016fff:	cc                   	int3   
   140017000:	cc                   	int3   
   140017001:	cc                   	int3   
   140017002:	cc                   	int3   
   140017003:	cc                   	int3   
   140017004:	cc                   	int3   
   140017005:	cc                   	int3   
   140017006:	cc                   	int3   
   140017007:	cc                   	int3   
   140017008:	cc                   	int3   
   140017009:	cc                   	int3   
   14001700a:	cc                   	int3   
   14001700b:	cc                   	int3   
   14001700c:	cc                   	int3   
   14001700d:	cc                   	int3   
   14001700e:	cc                   	int3   
   14001700f:	cc                   	int3   
   140017010:	cc                   	int3   
   140017011:	cc                   	int3   
   140017012:	cc                   	int3   
   140017013:	cc                   	int3   
   140017014:	cc                   	int3   
   140017015:	cc                   	int3   
   140017016:	cc                   	int3   
   140017017:	cc                   	int3   
   140017018:	cc                   	int3   
   140017019:	cc                   	int3   
   14001701a:	cc                   	int3   
   14001701b:	cc                   	int3   
   14001701c:	cc                   	int3   
   14001701d:	cc                   	int3   
   14001701e:	cc                   	int3   
   14001701f:	cc                   	int3   
   140017020:	cc                   	int3   
   140017021:	cc                   	int3   
   140017022:	cc                   	int3   
   140017023:	cc                   	int3   
   140017024:	cc                   	int3   
   140017025:	cc                   	int3   
   140017026:	cc                   	int3   
   140017027:	cc                   	int3   
   140017028:	cc                   	int3   
   140017029:	cc                   	int3   
   14001702a:	cc                   	int3   
   14001702b:	cc                   	int3   
   14001702c:	cc                   	int3   
   14001702d:	cc                   	int3   
   14001702e:	cc                   	int3   
   14001702f:	cc                   	int3   
   140017030:	cc                   	int3   
   140017031:	cc                   	int3   
   140017032:	cc                   	int3   
   140017033:	cc                   	int3   
   140017034:	cc                   	int3   
   140017035:	cc                   	int3   
   140017036:	cc                   	int3   
   140017037:	cc                   	int3   
   140017038:	cc                   	int3   
   140017039:	cc                   	int3   
   14001703a:	cc                   	int3   
   14001703b:	cc                   	int3   
   14001703c:	cc                   	int3   
   14001703d:	cc                   	int3   
   14001703e:	cc                   	int3   
   14001703f:	cc                   	int3   
   140017040:	cc                   	int3   
   140017041:	cc                   	int3   
   140017042:	cc                   	int3   
   140017043:	cc                   	int3   
   140017044:	cc                   	int3   
   140017045:	cc                   	int3   
   140017046:	cc                   	int3   
   140017047:	cc                   	int3   
   140017048:	cc                   	int3   
   140017049:	cc                   	int3   
   14001704a:	cc                   	int3   
   14001704b:	cc                   	int3   
   14001704c:	cc                   	int3   
   14001704d:	cc                   	int3   
   14001704e:	cc                   	int3   
   14001704f:	cc                   	int3   
   140017050:	cc                   	int3   
   140017051:	cc                   	int3   
   140017052:	cc                   	int3   
   140017053:	cc                   	int3   
   140017054:	cc                   	int3   
   140017055:	cc                   	int3   
   140017056:	cc                   	int3   
   140017057:	cc                   	int3   
   140017058:	cc                   	int3   
   140017059:	cc                   	int3   
   14001705a:	cc                   	int3   
   14001705b:	cc                   	int3   
   14001705c:	cc                   	int3   
   14001705d:	cc                   	int3   
   14001705e:	cc                   	int3   
   14001705f:	cc                   	int3   
   140017060:	cc                   	int3   
   140017061:	cc                   	int3   
   140017062:	cc                   	int3   
   140017063:	cc                   	int3   
   140017064:	cc                   	int3   
   140017065:	cc                   	int3   
   140017066:	cc                   	int3   
   140017067:	cc                   	int3   
   140017068:	cc                   	int3   
   140017069:	cc                   	int3   
   14001706a:	cc                   	int3   
   14001706b:	cc                   	int3   
   14001706c:	cc                   	int3   
   14001706d:	cc                   	int3   
   14001706e:	cc                   	int3   
   14001706f:	cc                   	int3   
   140017070:	cc                   	int3   
   140017071:	cc                   	int3   
   140017072:	cc                   	int3   
   140017073:	cc                   	int3   
   140017074:	cc                   	int3   
   140017075:	cc                   	int3   
   140017076:	cc                   	int3   
   140017077:	cc                   	int3   
   140017078:	cc                   	int3   
   140017079:	cc                   	int3   
   14001707a:	cc                   	int3   
   14001707b:	cc                   	int3   
   14001707c:	cc                   	int3   
   14001707d:	cc                   	int3   
   14001707e:	cc                   	int3   
   14001707f:	cc                   	int3   
   140017080:	cc                   	int3   
   140017081:	cc                   	int3   
   140017082:	cc                   	int3   
   140017083:	cc                   	int3   
   140017084:	cc                   	int3   
   140017085:	cc                   	int3   
   140017086:	cc                   	int3   
   140017087:	cc                   	int3   
   140017088:	cc                   	int3   
   140017089:	cc                   	int3   
   14001708a:	cc                   	int3   
   14001708b:	cc                   	int3   
   14001708c:	cc                   	int3   
   14001708d:	cc                   	int3   
   14001708e:	cc                   	int3   
   14001708f:	cc                   	int3   
   140017090:	cc                   	int3   
   140017091:	cc                   	int3   
   140017092:	cc                   	int3   
   140017093:	cc                   	int3   
   140017094:	cc                   	int3   
   140017095:	cc                   	int3   
   140017096:	cc                   	int3   
   140017097:	cc                   	int3   
   140017098:	cc                   	int3   
   140017099:	cc                   	int3   
   14001709a:	cc                   	int3   
   14001709b:	cc                   	int3   
   14001709c:	cc                   	int3   
   14001709d:	cc                   	int3   
   14001709e:	cc                   	int3   
   14001709f:	cc                   	int3   
   1400170a0:	cc                   	int3   
   1400170a1:	cc                   	int3   
   1400170a2:	cc                   	int3   
   1400170a3:	cc                   	int3   
   1400170a4:	cc                   	int3   
   1400170a5:	cc                   	int3   
   1400170a6:	cc                   	int3   
   1400170a7:	cc                   	int3   
   1400170a8:	cc                   	int3   
   1400170a9:	cc                   	int3   
   1400170aa:	cc                   	int3   
   1400170ab:	cc                   	int3   
   1400170ac:	cc                   	int3   
   1400170ad:	cc                   	int3   
   1400170ae:	cc                   	int3   
   1400170af:	cc                   	int3   
   1400170b0:	cc                   	int3   
   1400170b1:	cc                   	int3   
   1400170b2:	cc                   	int3   
   1400170b3:	cc                   	int3   
   1400170b4:	cc                   	int3   
   1400170b5:	cc                   	int3   
   1400170b6:	cc                   	int3   
   1400170b7:	cc                   	int3   
   1400170b8:	cc                   	int3   
   1400170b9:	cc                   	int3   
   1400170ba:	cc                   	int3   
   1400170bb:	cc                   	int3   
   1400170bc:	cc                   	int3   
   1400170bd:	cc                   	int3   
   1400170be:	cc                   	int3   
   1400170bf:	cc                   	int3   
   1400170c0:	cc                   	int3   
   1400170c1:	cc                   	int3   
   1400170c2:	cc                   	int3   
   1400170c3:	cc                   	int3   
   1400170c4:	cc                   	int3   
   1400170c5:	cc                   	int3   
   1400170c6:	cc                   	int3   
   1400170c7:	cc                   	int3   
   1400170c8:	cc                   	int3   
   1400170c9:	cc                   	int3   
   1400170ca:	cc                   	int3   
   1400170cb:	cc                   	int3   
   1400170cc:	cc                   	int3   
   1400170cd:	cc                   	int3   
   1400170ce:	cc                   	int3   
   1400170cf:	cc                   	int3   
   1400170d0:	cc                   	int3   
   1400170d1:	cc                   	int3   
   1400170d2:	cc                   	int3   
   1400170d3:	cc                   	int3   
   1400170d4:	cc                   	int3   
   1400170d5:	cc                   	int3   
   1400170d6:	cc                   	int3   
   1400170d7:	cc                   	int3   
   1400170d8:	cc                   	int3   
   1400170d9:	cc                   	int3   
   1400170da:	cc                   	int3   
   1400170db:	cc                   	int3   
   1400170dc:	cc                   	int3   
   1400170dd:	cc                   	int3   
   1400170de:	cc                   	int3   
   1400170df:	cc                   	int3   
   1400170e0:	cc                   	int3   
   1400170e1:	cc                   	int3   
   1400170e2:	cc                   	int3   
   1400170e3:	cc                   	int3   
   1400170e4:	cc                   	int3   
   1400170e5:	cc                   	int3   
   1400170e6:	cc                   	int3   
   1400170e7:	cc                   	int3   
   1400170e8:	cc                   	int3   
   1400170e9:	cc                   	int3   
   1400170ea:	cc                   	int3   
   1400170eb:	cc                   	int3   
   1400170ec:	cc                   	int3   
   1400170ed:	cc                   	int3   
   1400170ee:	cc                   	int3   
   1400170ef:	cc                   	int3   
   1400170f0:	cc                   	int3   
   1400170f1:	cc                   	int3   
   1400170f2:	cc                   	int3   
   1400170f3:	cc                   	int3   
   1400170f4:	cc                   	int3   
   1400170f5:	cc                   	int3   
   1400170f6:	cc                   	int3   
   1400170f7:	cc                   	int3   
   1400170f8:	cc                   	int3   
   1400170f9:	cc                   	int3   
   1400170fa:	cc                   	int3   
   1400170fb:	cc                   	int3   
   1400170fc:	cc                   	int3   
   1400170fd:	cc                   	int3   
   1400170fe:	cc                   	int3   
   1400170ff:	cc                   	int3   
   140017100:	cc                   	int3   
   140017101:	cc                   	int3   
   140017102:	cc                   	int3   
   140017103:	cc                   	int3   
   140017104:	cc                   	int3   
   140017105:	cc                   	int3   
   140017106:	cc                   	int3   
   140017107:	cc                   	int3   
   140017108:	cc                   	int3   
   140017109:	cc                   	int3   
   14001710a:	cc                   	int3   
   14001710b:	cc                   	int3   
   14001710c:	cc                   	int3   
   14001710d:	cc                   	int3   
   14001710e:	cc                   	int3   
   14001710f:	cc                   	int3   
   140017110:	cc                   	int3   
   140017111:	cc                   	int3   
   140017112:	cc                   	int3   
   140017113:	cc                   	int3   
   140017114:	cc                   	int3   
   140017115:	cc                   	int3   
   140017116:	cc                   	int3   
   140017117:	cc                   	int3   
   140017118:	cc                   	int3   
   140017119:	cc                   	int3   
   14001711a:	cc                   	int3   
   14001711b:	cc                   	int3   
   14001711c:	cc                   	int3   
   14001711d:	cc                   	int3   
   14001711e:	cc                   	int3   
   14001711f:	cc                   	int3   
   140017120:	cc                   	int3   
   140017121:	cc                   	int3   
   140017122:	cc                   	int3   
   140017123:	cc                   	int3   
   140017124:	cc                   	int3   
   140017125:	cc                   	int3   
   140017126:	cc                   	int3   
   140017127:	cc                   	int3   
   140017128:	cc                   	int3   
   140017129:	cc                   	int3   
   14001712a:	cc                   	int3   
   14001712b:	cc                   	int3   
   14001712c:	cc                   	int3   
   14001712d:	cc                   	int3   
   14001712e:	cc                   	int3   
   14001712f:	cc                   	int3   
   140017130:	cc                   	int3   
   140017131:	cc                   	int3   
   140017132:	cc                   	int3   
   140017133:	cc                   	int3   
   140017134:	cc                   	int3   
   140017135:	cc                   	int3   
   140017136:	cc                   	int3   
   140017137:	cc                   	int3   
   140017138:	cc                   	int3   
   140017139:	cc                   	int3   
   14001713a:	cc                   	int3   
   14001713b:	cc                   	int3   
   14001713c:	cc                   	int3   
   14001713d:	cc                   	int3   
   14001713e:	cc                   	int3   
   14001713f:	cc                   	int3   
   140017140:	cc                   	int3   
   140017141:	cc                   	int3   
   140017142:	cc                   	int3   
   140017143:	cc                   	int3   
   140017144:	cc                   	int3   
   140017145:	cc                   	int3   
   140017146:	cc                   	int3   
   140017147:	cc                   	int3   
   140017148:	cc                   	int3   
   140017149:	cc                   	int3   
   14001714a:	cc                   	int3   
   14001714b:	cc                   	int3   
   14001714c:	cc                   	int3   
   14001714d:	cc                   	int3   
   14001714e:	cc                   	int3   
   14001714f:	cc                   	int3   
   140017150:	cc                   	int3   
   140017151:	cc                   	int3   
   140017152:	cc                   	int3   
   140017153:	cc                   	int3   
   140017154:	cc                   	int3   
   140017155:	cc                   	int3   
   140017156:	cc                   	int3   
   140017157:	cc                   	int3   
   140017158:	cc                   	int3   
   140017159:	cc                   	int3   
   14001715a:	cc                   	int3   
   14001715b:	cc                   	int3   
   14001715c:	cc                   	int3   
   14001715d:	cc                   	int3   
   14001715e:	cc                   	int3   
   14001715f:	cc                   	int3   
   140017160:	cc                   	int3   
   140017161:	cc                   	int3   
   140017162:	cc                   	int3   
   140017163:	cc                   	int3   
   140017164:	cc                   	int3   
   140017165:	cc                   	int3   
   140017166:	cc                   	int3   
   140017167:	cc                   	int3   
   140017168:	cc                   	int3   
   140017169:	cc                   	int3   
   14001716a:	cc                   	int3   
   14001716b:	cc                   	int3   
   14001716c:	cc                   	int3   
   14001716d:	cc                   	int3   
   14001716e:	cc                   	int3   
   14001716f:	cc                   	int3   
   140017170:	cc                   	int3   
   140017171:	cc                   	int3   
   140017172:	cc                   	int3   
   140017173:	cc                   	int3   
   140017174:	cc                   	int3   
   140017175:	cc                   	int3   
   140017176:	cc                   	int3   
   140017177:	cc                   	int3   
   140017178:	cc                   	int3   
   140017179:	cc                   	int3   
   14001717a:	cc                   	int3   
   14001717b:	cc                   	int3   
   14001717c:	cc                   	int3   
   14001717d:	cc                   	int3   
   14001717e:	cc                   	int3   
   14001717f:	cc                   	int3   
   140017180:	cc                   	int3   
   140017181:	cc                   	int3   
   140017182:	cc                   	int3   
   140017183:	cc                   	int3   
   140017184:	cc                   	int3   
   140017185:	cc                   	int3   
   140017186:	cc                   	int3   
   140017187:	cc                   	int3   
   140017188:	cc                   	int3   
   140017189:	cc                   	int3   
   14001718a:	cc                   	int3   
   14001718b:	cc                   	int3   
   14001718c:	cc                   	int3   
   14001718d:	cc                   	int3   
   14001718e:	cc                   	int3   
   14001718f:	cc                   	int3   
   140017190:	cc                   	int3   
   140017191:	cc                   	int3   
   140017192:	cc                   	int3   
   140017193:	cc                   	int3   
   140017194:	cc                   	int3   
   140017195:	cc                   	int3   
   140017196:	cc                   	int3   
   140017197:	cc                   	int3   
   140017198:	cc                   	int3   
   140017199:	cc                   	int3   
   14001719a:	cc                   	int3   
   14001719b:	cc                   	int3   
   14001719c:	cc                   	int3   
   14001719d:	cc                   	int3   
   14001719e:	cc                   	int3   
   14001719f:	cc                   	int3   
   1400171a0:	cc                   	int3   
   1400171a1:	cc                   	int3   
   1400171a2:	cc                   	int3   
   1400171a3:	cc                   	int3   
   1400171a4:	cc                   	int3   
   1400171a5:	cc                   	int3   
   1400171a6:	cc                   	int3   
   1400171a7:	cc                   	int3   
   1400171a8:	cc                   	int3   
   1400171a9:	cc                   	int3   
   1400171aa:	cc                   	int3   
   1400171ab:	cc                   	int3   
   1400171ac:	cc                   	int3   
   1400171ad:	cc                   	int3   
   1400171ae:	cc                   	int3   
   1400171af:	cc                   	int3   
   1400171b0:	cc                   	int3   
   1400171b1:	cc                   	int3   
   1400171b2:	cc                   	int3   
   1400171b3:	cc                   	int3   
   1400171b4:	cc                   	int3   
   1400171b5:	cc                   	int3   
   1400171b6:	cc                   	int3   
   1400171b7:	cc                   	int3   
   1400171b8:	cc                   	int3   
   1400171b9:	cc                   	int3   
   1400171ba:	cc                   	int3   
   1400171bb:	cc                   	int3   
   1400171bc:	cc                   	int3   
   1400171bd:	cc                   	int3   
   1400171be:	cc                   	int3   
   1400171bf:	cc                   	int3   
   1400171c0:	cc                   	int3   
   1400171c1:	cc                   	int3   
   1400171c2:	cc                   	int3   
   1400171c3:	cc                   	int3   
   1400171c4:	cc                   	int3   
   1400171c5:	cc                   	int3   
   1400171c6:	cc                   	int3   
   1400171c7:	cc                   	int3   
   1400171c8:	cc                   	int3   
   1400171c9:	cc                   	int3   
   1400171ca:	cc                   	int3   
   1400171cb:	cc                   	int3   
   1400171cc:	cc                   	int3   
   1400171cd:	cc                   	int3   
   1400171ce:	cc                   	int3   
   1400171cf:	cc                   	int3   
   1400171d0:	cc                   	int3   
   1400171d1:	cc                   	int3   
   1400171d2:	cc                   	int3   
   1400171d3:	cc                   	int3   
   1400171d4:	cc                   	int3   
   1400171d5:	cc                   	int3   
   1400171d6:	cc                   	int3   
   1400171d7:	cc                   	int3   
   1400171d8:	cc                   	int3   
   1400171d9:	cc                   	int3   
   1400171da:	cc                   	int3   
   1400171db:	cc                   	int3   
   1400171dc:	cc                   	int3   
   1400171dd:	cc                   	int3   
   1400171de:	cc                   	int3   
   1400171df:	cc                   	int3   
   1400171e0:	cc                   	int3   
   1400171e1:	cc                   	int3   
   1400171e2:	cc                   	int3   
   1400171e3:	cc                   	int3   
   1400171e4:	cc                   	int3   
   1400171e5:	cc                   	int3   
   1400171e6:	cc                   	int3   
   1400171e7:	cc                   	int3   
   1400171e8:	cc                   	int3   
   1400171e9:	cc                   	int3   
   1400171ea:	cc                   	int3   
   1400171eb:	cc                   	int3   
   1400171ec:	cc                   	int3   
   1400171ed:	cc                   	int3   
   1400171ee:	cc                   	int3   
   1400171ef:	cc                   	int3   
   1400171f0:	cc                   	int3   
   1400171f1:	cc                   	int3   
   1400171f2:	cc                   	int3   
   1400171f3:	cc                   	int3   
   1400171f4:	cc                   	int3   
   1400171f5:	cc                   	int3   
   1400171f6:	cc                   	int3   
   1400171f7:	cc                   	int3   
   1400171f8:	cc                   	int3   
   1400171f9:	cc                   	int3   
   1400171fa:	cc                   	int3   
   1400171fb:	cc                   	int3   
   1400171fc:	cc                   	int3   
   1400171fd:	cc                   	int3   
   1400171fe:	cc                   	int3   
   1400171ff:	cc                   	int3   
   140017200:	cc                   	int3   
   140017201:	cc                   	int3   
   140017202:	cc                   	int3   
   140017203:	cc                   	int3   
   140017204:	cc                   	int3   
   140017205:	cc                   	int3   
   140017206:	cc                   	int3   
   140017207:	cc                   	int3   
   140017208:	cc                   	int3   
   140017209:	cc                   	int3   
   14001720a:	cc                   	int3   
   14001720b:	cc                   	int3   
   14001720c:	cc                   	int3   
   14001720d:	cc                   	int3   
   14001720e:	cc                   	int3   
   14001720f:	cc                   	int3   
   140017210:	cc                   	int3   
   140017211:	cc                   	int3   
   140017212:	cc                   	int3   
   140017213:	cc                   	int3   
   140017214:	cc                   	int3   
   140017215:	cc                   	int3   
   140017216:	cc                   	int3   
   140017217:	cc                   	int3   
   140017218:	cc                   	int3   
   140017219:	cc                   	int3   
   14001721a:	cc                   	int3   
   14001721b:	cc                   	int3   
   14001721c:	cc                   	int3   
   14001721d:	cc                   	int3   
   14001721e:	cc                   	int3   
   14001721f:	cc                   	int3   
   140017220:	cc                   	int3   
   140017221:	cc                   	int3   
   140017222:	cc                   	int3   
   140017223:	cc                   	int3   
   140017224:	cc                   	int3   
   140017225:	cc                   	int3   
   140017226:	cc                   	int3   
   140017227:	cc                   	int3   
   140017228:	cc                   	int3   
   140017229:	cc                   	int3   
   14001722a:	cc                   	int3   
   14001722b:	cc                   	int3   
   14001722c:	cc                   	int3   
   14001722d:	cc                   	int3   
   14001722e:	cc                   	int3   
   14001722f:	cc                   	int3   
   140017230:	cc                   	int3   
   140017231:	cc                   	int3   
   140017232:	cc                   	int3   
   140017233:	cc                   	int3   
   140017234:	cc                   	int3   
   140017235:	cc                   	int3   
   140017236:	cc                   	int3   
   140017237:	cc                   	int3   
   140017238:	cc                   	int3   
   140017239:	cc                   	int3   
   14001723a:	cc                   	int3   
   14001723b:	cc                   	int3   
   14001723c:	cc                   	int3   
   14001723d:	cc                   	int3   
   14001723e:	cc                   	int3   
   14001723f:	cc                   	int3   
   140017240:	cc                   	int3   
   140017241:	cc                   	int3   
   140017242:	cc                   	int3   
   140017243:	cc                   	int3   
   140017244:	cc                   	int3   
   140017245:	cc                   	int3   
   140017246:	cc                   	int3   
   140017247:	cc                   	int3   
   140017248:	cc                   	int3   
   140017249:	cc                   	int3   
   14001724a:	cc                   	int3   
   14001724b:	cc                   	int3   
   14001724c:	cc                   	int3   
   14001724d:	cc                   	int3   
   14001724e:	cc                   	int3   
   14001724f:	cc                   	int3   
   140017250:	cc                   	int3   
   140017251:	cc                   	int3   
   140017252:	cc                   	int3   
   140017253:	cc                   	int3   
   140017254:	cc                   	int3   
   140017255:	cc                   	int3   
   140017256:	cc                   	int3   
   140017257:	cc                   	int3   
   140017258:	cc                   	int3   
   140017259:	cc                   	int3   
   14001725a:	cc                   	int3   
   14001725b:	cc                   	int3   
   14001725c:	cc                   	int3   
   14001725d:	cc                   	int3   
   14001725e:	cc                   	int3   
   14001725f:	cc                   	int3   
   140017260:	cc                   	int3   
   140017261:	cc                   	int3   
   140017262:	cc                   	int3   
   140017263:	cc                   	int3   
   140017264:	cc                   	int3   
   140017265:	cc                   	int3   
   140017266:	cc                   	int3   
   140017267:	cc                   	int3   
   140017268:	cc                   	int3   
   140017269:	cc                   	int3   
   14001726a:	cc                   	int3   
   14001726b:	cc                   	int3   
   14001726c:	cc                   	int3   
   14001726d:	cc                   	int3   
   14001726e:	cc                   	int3   
   14001726f:	cc                   	int3   
   140017270:	cc                   	int3   
   140017271:	cc                   	int3   
   140017272:	cc                   	int3   
   140017273:	cc                   	int3   
   140017274:	cc                   	int3   
   140017275:	cc                   	int3   
   140017276:	cc                   	int3   
   140017277:	cc                   	int3   
   140017278:	cc                   	int3   
   140017279:	cc                   	int3   
   14001727a:	cc                   	int3   
   14001727b:	cc                   	int3   
   14001727c:	cc                   	int3   
   14001727d:	cc                   	int3   
   14001727e:	cc                   	int3   
   14001727f:	cc                   	int3   
   140017280:	cc                   	int3   
   140017281:	cc                   	int3   
   140017282:	cc                   	int3   
   140017283:	cc                   	int3   
   140017284:	cc                   	int3   
   140017285:	cc                   	int3   
   140017286:	cc                   	int3   
   140017287:	cc                   	int3   
   140017288:	cc                   	int3   
   140017289:	cc                   	int3   
   14001728a:	cc                   	int3   
   14001728b:	cc                   	int3   
   14001728c:	cc                   	int3   
   14001728d:	cc                   	int3   
   14001728e:	cc                   	int3   
   14001728f:	cc                   	int3   
   140017290:	cc                   	int3   
   140017291:	cc                   	int3   
   140017292:	cc                   	int3   
   140017293:	cc                   	int3   
   140017294:	cc                   	int3   
   140017295:	cc                   	int3   
   140017296:	cc                   	int3   
   140017297:	cc                   	int3   
   140017298:	cc                   	int3   
   140017299:	cc                   	int3   
   14001729a:	cc                   	int3   
   14001729b:	cc                   	int3   
   14001729c:	cc                   	int3   
   14001729d:	cc                   	int3   
   14001729e:	cc                   	int3   
   14001729f:	cc                   	int3   
   1400172a0:	cc                   	int3   
   1400172a1:	cc                   	int3   
   1400172a2:	cc                   	int3   
   1400172a3:	cc                   	int3   
   1400172a4:	cc                   	int3   
   1400172a5:	cc                   	int3   
   1400172a6:	cc                   	int3   
   1400172a7:	cc                   	int3   
   1400172a8:	cc                   	int3   
   1400172a9:	cc                   	int3   
   1400172aa:	cc                   	int3   
   1400172ab:	cc                   	int3   
   1400172ac:	cc                   	int3   
   1400172ad:	cc                   	int3   
   1400172ae:	cc                   	int3   
   1400172af:	cc                   	int3   
   1400172b0:	cc                   	int3   
   1400172b1:	cc                   	int3   
   1400172b2:	cc                   	int3   
   1400172b3:	cc                   	int3   
   1400172b4:	cc                   	int3   
   1400172b5:	cc                   	int3   
   1400172b6:	cc                   	int3   
   1400172b7:	cc                   	int3   
   1400172b8:	cc                   	int3   
   1400172b9:	cc                   	int3   
   1400172ba:	cc                   	int3   
   1400172bb:	cc                   	int3   
   1400172bc:	cc                   	int3   
   1400172bd:	cc                   	int3   
   1400172be:	cc                   	int3   
   1400172bf:	cc                   	int3   
   1400172c0:	cc                   	int3   
   1400172c1:	cc                   	int3   
   1400172c2:	cc                   	int3   
   1400172c3:	cc                   	int3   
   1400172c4:	cc                   	int3   
   1400172c5:	cc                   	int3   
   1400172c6:	cc                   	int3   
   1400172c7:	cc                   	int3   
   1400172c8:	cc                   	int3   
   1400172c9:	cc                   	int3   
   1400172ca:	cc                   	int3   
   1400172cb:	cc                   	int3   
   1400172cc:	cc                   	int3   
   1400172cd:	cc                   	int3   
   1400172ce:	cc                   	int3   
   1400172cf:	cc                   	int3   
   1400172d0:	cc                   	int3   
   1400172d1:	cc                   	int3   
   1400172d2:	cc                   	int3   
   1400172d3:	cc                   	int3   
   1400172d4:	cc                   	int3   
   1400172d5:	cc                   	int3   
   1400172d6:	cc                   	int3   
   1400172d7:	cc                   	int3   
   1400172d8:	cc                   	int3   
   1400172d9:	cc                   	int3   
   1400172da:	cc                   	int3   
   1400172db:	cc                   	int3   
   1400172dc:	cc                   	int3   
   1400172dd:	cc                   	int3   
   1400172de:	cc                   	int3   
   1400172df:	cc                   	int3   
   1400172e0:	cc                   	int3   
   1400172e1:	cc                   	int3   
   1400172e2:	cc                   	int3   
   1400172e3:	cc                   	int3   
   1400172e4:	cc                   	int3   
   1400172e5:	cc                   	int3   
   1400172e6:	cc                   	int3   
   1400172e7:	cc                   	int3   
   1400172e8:	cc                   	int3   
   1400172e9:	cc                   	int3   
   1400172ea:	cc                   	int3   
   1400172eb:	cc                   	int3   
   1400172ec:	cc                   	int3   
   1400172ed:	cc                   	int3   
   1400172ee:	cc                   	int3   
   1400172ef:	cc                   	int3   
   1400172f0:	cc                   	int3   
   1400172f1:	cc                   	int3   
   1400172f2:	cc                   	int3   
   1400172f3:	cc                   	int3   
   1400172f4:	cc                   	int3   
   1400172f5:	cc                   	int3   
   1400172f6:	cc                   	int3   
   1400172f7:	cc                   	int3   
   1400172f8:	cc                   	int3   
   1400172f9:	cc                   	int3   
   1400172fa:	cc                   	int3   
   1400172fb:	cc                   	int3   
   1400172fc:	cc                   	int3   
   1400172fd:	cc                   	int3   
   1400172fe:	cc                   	int3   
   1400172ff:	cc                   	int3   
   140017300:	cc                   	int3   
   140017301:	cc                   	int3   
   140017302:	cc                   	int3   
   140017303:	cc                   	int3   
   140017304:	cc                   	int3   
   140017305:	cc                   	int3   
   140017306:	cc                   	int3   
   140017307:	cc                   	int3   
   140017308:	cc                   	int3   
   140017309:	cc                   	int3   
   14001730a:	cc                   	int3   
   14001730b:	cc                   	int3   
   14001730c:	cc                   	int3   
   14001730d:	cc                   	int3   
   14001730e:	cc                   	int3   
   14001730f:	cc                   	int3   
   140017310:	cc                   	int3   
   140017311:	cc                   	int3   
   140017312:	cc                   	int3   
   140017313:	cc                   	int3   
   140017314:	cc                   	int3   
   140017315:	cc                   	int3   
   140017316:	cc                   	int3   
   140017317:	cc                   	int3   
   140017318:	cc                   	int3   
   140017319:	cc                   	int3   
   14001731a:	cc                   	int3   
   14001731b:	cc                   	int3   
   14001731c:	cc                   	int3   
   14001731d:	cc                   	int3   
   14001731e:	cc                   	int3   
   14001731f:	cc                   	int3   
   140017320:	cc                   	int3   
   140017321:	cc                   	int3   
   140017322:	cc                   	int3   
   140017323:	cc                   	int3   
   140017324:	cc                   	int3   
   140017325:	cc                   	int3   
   140017326:	cc                   	int3   
   140017327:	cc                   	int3   
   140017328:	cc                   	int3   
   140017329:	cc                   	int3   
   14001732a:	cc                   	int3   
   14001732b:	cc                   	int3   
   14001732c:	cc                   	int3   
   14001732d:	cc                   	int3   
   14001732e:	cc                   	int3   
   14001732f:	cc                   	int3   
   140017330:	cc                   	int3   
   140017331:	cc                   	int3   
   140017332:	cc                   	int3   
   140017333:	cc                   	int3   
   140017334:	cc                   	int3   
   140017335:	cc                   	int3   
   140017336:	cc                   	int3   
   140017337:	cc                   	int3   
   140017338:	cc                   	int3   
   140017339:	cc                   	int3   
   14001733a:	cc                   	int3   
   14001733b:	cc                   	int3   
   14001733c:	cc                   	int3   
   14001733d:	cc                   	int3   
   14001733e:	cc                   	int3   
   14001733f:	cc                   	int3   
   140017340:	cc                   	int3   
   140017341:	cc                   	int3   
   140017342:	cc                   	int3   
   140017343:	cc                   	int3   
   140017344:	cc                   	int3   
   140017345:	cc                   	int3   
   140017346:	cc                   	int3   
   140017347:	cc                   	int3   
   140017348:	cc                   	int3   
   140017349:	cc                   	int3   
   14001734a:	cc                   	int3   
   14001734b:	cc                   	int3   
   14001734c:	cc                   	int3   
   14001734d:	cc                   	int3   
   14001734e:	cc                   	int3   
   14001734f:	cc                   	int3   
   140017350:	cc                   	int3   
   140017351:	cc                   	int3   
   140017352:	cc                   	int3   
   140017353:	cc                   	int3   
   140017354:	cc                   	int3   
   140017355:	cc                   	int3   
   140017356:	cc                   	int3   
   140017357:	cc                   	int3   
   140017358:	cc                   	int3   
   140017359:	cc                   	int3   
   14001735a:	cc                   	int3   
   14001735b:	cc                   	int3   
   14001735c:	cc                   	int3   
   14001735d:	cc                   	int3   
   14001735e:	cc                   	int3   
   14001735f:	cc                   	int3   
   140017360:	cc                   	int3   
   140017361:	cc                   	int3   
   140017362:	cc                   	int3   
   140017363:	cc                   	int3   
   140017364:	cc                   	int3   
   140017365:	cc                   	int3   
   140017366:	cc                   	int3   
   140017367:	cc                   	int3   
   140017368:	cc                   	int3   
   140017369:	cc                   	int3   
   14001736a:	cc                   	int3   
   14001736b:	cc                   	int3   
   14001736c:	cc                   	int3   
   14001736d:	cc                   	int3   
   14001736e:	cc                   	int3   
   14001736f:	cc                   	int3   
   140017370:	cc                   	int3   
   140017371:	cc                   	int3   
   140017372:	cc                   	int3   
   140017373:	cc                   	int3   
   140017374:	cc                   	int3   
   140017375:	cc                   	int3   
   140017376:	cc                   	int3   
   140017377:	cc                   	int3   
   140017378:	cc                   	int3   
   140017379:	cc                   	int3   
   14001737a:	cc                   	int3   
   14001737b:	cc                   	int3   
   14001737c:	cc                   	int3   
   14001737d:	cc                   	int3   
   14001737e:	cc                   	int3   
   14001737f:	cc                   	int3   
   140017380:	cc                   	int3   
   140017381:	cc                   	int3   
   140017382:	cc                   	int3   
   140017383:	cc                   	int3   
   140017384:	cc                   	int3   
   140017385:	cc                   	int3   
   140017386:	cc                   	int3   
   140017387:	cc                   	int3   
   140017388:	cc                   	int3   
   140017389:	cc                   	int3   
   14001738a:	cc                   	int3   
   14001738b:	cc                   	int3   
   14001738c:	cc                   	int3   
   14001738d:	cc                   	int3   
   14001738e:	cc                   	int3   
   14001738f:	cc                   	int3   
   140017390:	cc                   	int3   
   140017391:	cc                   	int3   
   140017392:	cc                   	int3   
   140017393:	cc                   	int3   
   140017394:	cc                   	int3   
   140017395:	cc                   	int3   
   140017396:	cc                   	int3   
   140017397:	cc                   	int3   
   140017398:	cc                   	int3   
   140017399:	cc                   	int3   
   14001739a:	cc                   	int3   
   14001739b:	cc                   	int3   
   14001739c:	cc                   	int3   
   14001739d:	cc                   	int3   
   14001739e:	cc                   	int3   
   14001739f:	cc                   	int3   
   1400173a0:	cc                   	int3   
   1400173a1:	cc                   	int3   
   1400173a2:	cc                   	int3   
   1400173a3:	cc                   	int3   
   1400173a4:	cc                   	int3   
   1400173a5:	cc                   	int3   
   1400173a6:	cc                   	int3   
   1400173a7:	cc                   	int3   
   1400173a8:	cc                   	int3   
   1400173a9:	cc                   	int3   
   1400173aa:	cc                   	int3   
   1400173ab:	cc                   	int3   
   1400173ac:	cc                   	int3   
   1400173ad:	cc                   	int3   
   1400173ae:	cc                   	int3   
   1400173af:	cc                   	int3   
   1400173b0:	cc                   	int3   
   1400173b1:	cc                   	int3   
   1400173b2:	cc                   	int3   
   1400173b3:	cc                   	int3   
   1400173b4:	cc                   	int3   
   1400173b5:	cc                   	int3   
   1400173b6:	cc                   	int3   
   1400173b7:	cc                   	int3   
   1400173b8:	cc                   	int3   
   1400173b9:	cc                   	int3   
   1400173ba:	cc                   	int3   
   1400173bb:	cc                   	int3   
   1400173bc:	cc                   	int3   
   1400173bd:	cc                   	int3   
   1400173be:	cc                   	int3   
   1400173bf:	cc                   	int3   
   1400173c0:	cc                   	int3   
   1400173c1:	cc                   	int3   
   1400173c2:	cc                   	int3   
   1400173c3:	cc                   	int3   
   1400173c4:	cc                   	int3   
   1400173c5:	cc                   	int3   
   1400173c6:	cc                   	int3   
   1400173c7:	cc                   	int3   
   1400173c8:	cc                   	int3   
   1400173c9:	cc                   	int3   
   1400173ca:	cc                   	int3   
   1400173cb:	cc                   	int3   
   1400173cc:	cc                   	int3   
   1400173cd:	cc                   	int3   
   1400173ce:	cc                   	int3   
   1400173cf:	cc                   	int3   
   1400173d0:	cc                   	int3   
   1400173d1:	cc                   	int3   
   1400173d2:	cc                   	int3   
   1400173d3:	cc                   	int3   
   1400173d4:	cc                   	int3   
   1400173d5:	cc                   	int3   
   1400173d6:	cc                   	int3   
   1400173d7:	cc                   	int3   
   1400173d8:	cc                   	int3   
   1400173d9:	cc                   	int3   
   1400173da:	cc                   	int3   
   1400173db:	cc                   	int3   
   1400173dc:	cc                   	int3   
   1400173dd:	cc                   	int3   
   1400173de:	cc                   	int3   
   1400173df:	cc                   	int3   
   1400173e0:	cc                   	int3   
   1400173e1:	cc                   	int3   
   1400173e2:	cc                   	int3   
   1400173e3:	cc                   	int3   
   1400173e4:	cc                   	int3   
   1400173e5:	cc                   	int3   
   1400173e6:	cc                   	int3   
   1400173e7:	cc                   	int3   
   1400173e8:	cc                   	int3   
   1400173e9:	cc                   	int3   
   1400173ea:	cc                   	int3   
   1400173eb:	cc                   	int3   
   1400173ec:	cc                   	int3   
   1400173ed:	cc                   	int3   
   1400173ee:	cc                   	int3   
   1400173ef:	cc                   	int3   
   1400173f0:	cc                   	int3   
   1400173f1:	cc                   	int3   
   1400173f2:	cc                   	int3   
   1400173f3:	cc                   	int3   
   1400173f4:	cc                   	int3   
   1400173f5:	cc                   	int3   
   1400173f6:	cc                   	int3   
   1400173f7:	cc                   	int3   
   1400173f8:	cc                   	int3   
   1400173f9:	cc                   	int3   
   1400173fa:	cc                   	int3   
   1400173fb:	cc                   	int3   
   1400173fc:	cc                   	int3   
   1400173fd:	cc                   	int3   
   1400173fe:	cc                   	int3   
   1400173ff:	cc                   	int3   
   140017400:	cc                   	int3   
   140017401:	cc                   	int3   
   140017402:	cc                   	int3   
   140017403:	cc                   	int3   
   140017404:	cc                   	int3   
   140017405:	cc                   	int3   
   140017406:	cc                   	int3   
   140017407:	cc                   	int3   
   140017408:	cc                   	int3   
   140017409:	cc                   	int3   
   14001740a:	cc                   	int3   
   14001740b:	cc                   	int3   
   14001740c:	cc                   	int3   
   14001740d:	cc                   	int3   
   14001740e:	cc                   	int3   
   14001740f:	cc                   	int3   
   140017410:	cc                   	int3   
   140017411:	cc                   	int3   
   140017412:	cc                   	int3   
   140017413:	cc                   	int3   
   140017414:	cc                   	int3   
   140017415:	cc                   	int3   
   140017416:	cc                   	int3   
   140017417:	cc                   	int3   
   140017418:	cc                   	int3   
   140017419:	cc                   	int3   
   14001741a:	cc                   	int3   
   14001741b:	cc                   	int3   
   14001741c:	cc                   	int3   
   14001741d:	cc                   	int3   
   14001741e:	cc                   	int3   
   14001741f:	cc                   	int3   
   140017420:	cc                   	int3   
   140017421:	cc                   	int3   
   140017422:	cc                   	int3   
   140017423:	cc                   	int3   
   140017424:	cc                   	int3   
   140017425:	cc                   	int3   
   140017426:	cc                   	int3   
   140017427:	cc                   	int3   
   140017428:	cc                   	int3   
   140017429:	cc                   	int3   
   14001742a:	cc                   	int3   
   14001742b:	cc                   	int3   
   14001742c:	cc                   	int3   
   14001742d:	cc                   	int3   
   14001742e:	cc                   	int3   
   14001742f:	cc                   	int3   
   140017430:	cc                   	int3   
   140017431:	cc                   	int3   
   140017432:	cc                   	int3   
   140017433:	cc                   	int3   
   140017434:	cc                   	int3   
   140017435:	cc                   	int3   
   140017436:	cc                   	int3   
   140017437:	cc                   	int3   
   140017438:	cc                   	int3   
   140017439:	cc                   	int3   
   14001743a:	cc                   	int3   
   14001743b:	cc                   	int3   
   14001743c:	cc                   	int3   
   14001743d:	cc                   	int3   
   14001743e:	cc                   	int3   
   14001743f:	cc                   	int3   
   140017440:	cc                   	int3   
   140017441:	cc                   	int3   
   140017442:	cc                   	int3   
   140017443:	cc                   	int3   
   140017444:	cc                   	int3   
   140017445:	cc                   	int3   
   140017446:	cc                   	int3   
   140017447:	cc                   	int3   
   140017448:	cc                   	int3   
   140017449:	cc                   	int3   
   14001744a:	cc                   	int3   
   14001744b:	cc                   	int3   
   14001744c:	cc                   	int3   
   14001744d:	cc                   	int3   
   14001744e:	cc                   	int3   
   14001744f:	cc                   	int3   
   140017450:	cc                   	int3   
   140017451:	cc                   	int3   
   140017452:	cc                   	int3   
   140017453:	cc                   	int3   
   140017454:	cc                   	int3   
   140017455:	cc                   	int3   
   140017456:	cc                   	int3   
   140017457:	cc                   	int3   
   140017458:	cc                   	int3   
   140017459:	cc                   	int3   
   14001745a:	cc                   	int3   
   14001745b:	cc                   	int3   
   14001745c:	cc                   	int3   
   14001745d:	cc                   	int3   
   14001745e:	cc                   	int3   
   14001745f:	cc                   	int3   
   140017460:	cc                   	int3   
   140017461:	cc                   	int3   
   140017462:	cc                   	int3   
   140017463:	cc                   	int3   
   140017464:	cc                   	int3   
   140017465:	cc                   	int3   
   140017466:	cc                   	int3   
   140017467:	cc                   	int3   
   140017468:	cc                   	int3   
   140017469:	cc                   	int3   
   14001746a:	cc                   	int3   
   14001746b:	cc                   	int3   
   14001746c:	cc                   	int3   
   14001746d:	cc                   	int3   
   14001746e:	cc                   	int3   
   14001746f:	cc                   	int3   
   140017470:	cc                   	int3   
   140017471:	cc                   	int3   
   140017472:	cc                   	int3   
   140017473:	cc                   	int3   
   140017474:	cc                   	int3   
   140017475:	cc                   	int3   
   140017476:	cc                   	int3   
   140017477:	cc                   	int3   
   140017478:	cc                   	int3   
   140017479:	cc                   	int3   
   14001747a:	cc                   	int3   
   14001747b:	cc                   	int3   
   14001747c:	cc                   	int3   
   14001747d:	cc                   	int3   
   14001747e:	cc                   	int3   
   14001747f:	cc                   	int3   
   140017480:	cc                   	int3   
   140017481:	cc                   	int3   
   140017482:	cc                   	int3   
   140017483:	cc                   	int3   
   140017484:	cc                   	int3   
   140017485:	cc                   	int3   
   140017486:	cc                   	int3   
   140017487:	cc                   	int3   
   140017488:	cc                   	int3   
   140017489:	cc                   	int3   
   14001748a:	cc                   	int3   
   14001748b:	cc                   	int3   
   14001748c:	cc                   	int3   
   14001748d:	cc                   	int3   
   14001748e:	cc                   	int3   
   14001748f:	cc                   	int3   
   140017490:	cc                   	int3   
   140017491:	cc                   	int3   
   140017492:	cc                   	int3   
   140017493:	cc                   	int3   
   140017494:	cc                   	int3   
   140017495:	cc                   	int3   
   140017496:	cc                   	int3   
   140017497:	cc                   	int3   
   140017498:	cc                   	int3   
   140017499:	cc                   	int3   
   14001749a:	cc                   	int3   
   14001749b:	cc                   	int3   
   14001749c:	cc                   	int3   
   14001749d:	cc                   	int3   
   14001749e:	cc                   	int3   
   14001749f:	cc                   	int3   
   1400174a0:	cc                   	int3   
   1400174a1:	cc                   	int3   
   1400174a2:	cc                   	int3   
   1400174a3:	cc                   	int3   
   1400174a4:	cc                   	int3   
   1400174a5:	cc                   	int3   
   1400174a6:	cc                   	int3   
   1400174a7:	cc                   	int3   
   1400174a8:	cc                   	int3   
   1400174a9:	cc                   	int3   
   1400174aa:	cc                   	int3   
   1400174ab:	cc                   	int3   
   1400174ac:	cc                   	int3   
   1400174ad:	cc                   	int3   
   1400174ae:	cc                   	int3   
   1400174af:	cc                   	int3   
   1400174b0:	cc                   	int3   
   1400174b1:	cc                   	int3   
   1400174b2:	cc                   	int3   
   1400174b3:	cc                   	int3   
   1400174b4:	cc                   	int3   
   1400174b5:	cc                   	int3   
   1400174b6:	cc                   	int3   
   1400174b7:	cc                   	int3   
   1400174b8:	cc                   	int3   
   1400174b9:	cc                   	int3   
   1400174ba:	cc                   	int3   
   1400174bb:	cc                   	int3   
   1400174bc:	cc                   	int3   
   1400174bd:	cc                   	int3   
   1400174be:	cc                   	int3   
   1400174bf:	cc                   	int3   
   1400174c0:	cc                   	int3   
   1400174c1:	cc                   	int3   
   1400174c2:	cc                   	int3   
   1400174c3:	cc                   	int3   
   1400174c4:	cc                   	int3   
   1400174c5:	cc                   	int3   
   1400174c6:	cc                   	int3   
   1400174c7:	cc                   	int3   
   1400174c8:	cc                   	int3   
   1400174c9:	cc                   	int3   
   1400174ca:	cc                   	int3   
   1400174cb:	cc                   	int3   
   1400174cc:	cc                   	int3   
   1400174cd:	cc                   	int3   
   1400174ce:	cc                   	int3   
   1400174cf:	cc                   	int3   
   1400174d0:	cc                   	int3   
   1400174d1:	cc                   	int3   
   1400174d2:	cc                   	int3   
   1400174d3:	cc                   	int3   
   1400174d4:	cc                   	int3   
   1400174d5:	cc                   	int3   
   1400174d6:	cc                   	int3   
   1400174d7:	cc                   	int3   
   1400174d8:	cc                   	int3   
   1400174d9:	cc                   	int3   
   1400174da:	cc                   	int3   
   1400174db:	cc                   	int3   
   1400174dc:	cc                   	int3   
   1400174dd:	cc                   	int3   
   1400174de:	cc                   	int3   
   1400174df:	cc                   	int3   
   1400174e0:	cc                   	int3   
   1400174e1:	cc                   	int3   
   1400174e2:	cc                   	int3   
   1400174e3:	cc                   	int3   
   1400174e4:	cc                   	int3   
   1400174e5:	cc                   	int3   
   1400174e6:	cc                   	int3   
   1400174e7:	cc                   	int3   
   1400174e8:	cc                   	int3   
   1400174e9:	cc                   	int3   
   1400174ea:	cc                   	int3   
   1400174eb:	cc                   	int3   
   1400174ec:	cc                   	int3   
   1400174ed:	cc                   	int3   
   1400174ee:	cc                   	int3   
   1400174ef:	cc                   	int3   
   1400174f0:	cc                   	int3   
   1400174f1:	cc                   	int3   
   1400174f2:	cc                   	int3   
   1400174f3:	cc                   	int3   
   1400174f4:	cc                   	int3   
   1400174f5:	cc                   	int3   
   1400174f6:	cc                   	int3   
   1400174f7:	cc                   	int3   
   1400174f8:	cc                   	int3   
   1400174f9:	cc                   	int3   
   1400174fa:	cc                   	int3   
   1400174fb:	cc                   	int3   
   1400174fc:	cc                   	int3   
   1400174fd:	cc                   	int3   
   1400174fe:	cc                   	int3   
   1400174ff:	cc                   	int3   
   140017500:	cc                   	int3   
   140017501:	cc                   	int3   
   140017502:	cc                   	int3   
   140017503:	cc                   	int3   
   140017504:	cc                   	int3   
   140017505:	cc                   	int3   
   140017506:	cc                   	int3   
   140017507:	cc                   	int3   
   140017508:	cc                   	int3   
   140017509:	cc                   	int3   
   14001750a:	cc                   	int3   
   14001750b:	cc                   	int3   
   14001750c:	cc                   	int3   
   14001750d:	cc                   	int3   
   14001750e:	cc                   	int3   
   14001750f:	cc                   	int3   
   140017510:	cc                   	int3   
   140017511:	cc                   	int3   
   140017512:	cc                   	int3   
   140017513:	cc                   	int3   
   140017514:	cc                   	int3   
   140017515:	cc                   	int3   
   140017516:	cc                   	int3   
   140017517:	cc                   	int3   
   140017518:	cc                   	int3   
   140017519:	cc                   	int3   
   14001751a:	cc                   	int3   
   14001751b:	cc                   	int3   
   14001751c:	cc                   	int3   
   14001751d:	cc                   	int3   
   14001751e:	cc                   	int3   
   14001751f:	cc                   	int3   
   140017520:	cc                   	int3   
   140017521:	cc                   	int3   
   140017522:	cc                   	int3   
   140017523:	cc                   	int3   
   140017524:	cc                   	int3   
   140017525:	cc                   	int3   
   140017526:	cc                   	int3   
   140017527:	cc                   	int3   
   140017528:	cc                   	int3   
   140017529:	cc                   	int3   
   14001752a:	cc                   	int3   
   14001752b:	cc                   	int3   
   14001752c:	cc                   	int3   
   14001752d:	cc                   	int3   
   14001752e:	cc                   	int3   
   14001752f:	cc                   	int3   
   140017530:	cc                   	int3   
   140017531:	cc                   	int3   
   140017532:	cc                   	int3   
   140017533:	cc                   	int3   
   140017534:	cc                   	int3   
   140017535:	cc                   	int3   
   140017536:	cc                   	int3   
   140017537:	cc                   	int3   
   140017538:	cc                   	int3   
   140017539:	cc                   	int3   
   14001753a:	cc                   	int3   
   14001753b:	cc                   	int3   
   14001753c:	cc                   	int3   
   14001753d:	cc                   	int3   
   14001753e:	cc                   	int3   
   14001753f:	cc                   	int3   
   140017540:	cc                   	int3   
   140017541:	cc                   	int3   
   140017542:	cc                   	int3   
   140017543:	cc                   	int3   
   140017544:	cc                   	int3   
   140017545:	cc                   	int3   
   140017546:	cc                   	int3   
   140017547:	cc                   	int3   
   140017548:	cc                   	int3   
   140017549:	cc                   	int3   
   14001754a:	cc                   	int3   
   14001754b:	cc                   	int3   
   14001754c:	cc                   	int3   
   14001754d:	cc                   	int3   
   14001754e:	cc                   	int3   
   14001754f:	cc                   	int3   
   140017550:	cc                   	int3   
   140017551:	cc                   	int3   
   140017552:	cc                   	int3   
   140017553:	cc                   	int3   
   140017554:	cc                   	int3   
   140017555:	cc                   	int3   
   140017556:	cc                   	int3   
   140017557:	cc                   	int3   
   140017558:	cc                   	int3   
   140017559:	cc                   	int3   
   14001755a:	cc                   	int3   
   14001755b:	cc                   	int3   
   14001755c:	cc                   	int3   
   14001755d:	cc                   	int3   
   14001755e:	cc                   	int3   
   14001755f:	cc                   	int3   
   140017560:	cc                   	int3   
   140017561:	cc                   	int3   
   140017562:	cc                   	int3   
   140017563:	cc                   	int3   
   140017564:	cc                   	int3   
   140017565:	cc                   	int3   
   140017566:	cc                   	int3   
   140017567:	cc                   	int3   
   140017568:	cc                   	int3   
   140017569:	cc                   	int3   
   14001756a:	cc                   	int3   
   14001756b:	cc                   	int3   
   14001756c:	cc                   	int3   
   14001756d:	cc                   	int3   
   14001756e:	cc                   	int3   
   14001756f:	cc                   	int3   
   140017570:	cc                   	int3   
   140017571:	cc                   	int3   
   140017572:	cc                   	int3   
   140017573:	cc                   	int3   
   140017574:	cc                   	int3   
   140017575:	cc                   	int3   
   140017576:	cc                   	int3   
   140017577:	cc                   	int3   
   140017578:	cc                   	int3   
   140017579:	cc                   	int3   
   14001757a:	cc                   	int3   
   14001757b:	cc                   	int3   
   14001757c:	cc                   	int3   
   14001757d:	cc                   	int3   
   14001757e:	cc                   	int3   
   14001757f:	cc                   	int3   
   140017580:	cc                   	int3   
   140017581:	cc                   	int3   
   140017582:	cc                   	int3   
   140017583:	cc                   	int3   
   140017584:	cc                   	int3   
   140017585:	cc                   	int3   
   140017586:	cc                   	int3   
   140017587:	cc                   	int3   
   140017588:	cc                   	int3   
   140017589:	cc                   	int3   
   14001758a:	cc                   	int3   
   14001758b:	cc                   	int3   
   14001758c:	cc                   	int3   
   14001758d:	cc                   	int3   
   14001758e:	cc                   	int3   
   14001758f:	cc                   	int3   
   140017590:	cc                   	int3   
   140017591:	cc                   	int3   
   140017592:	cc                   	int3   
   140017593:	cc                   	int3   
   140017594:	cc                   	int3   
   140017595:	cc                   	int3   
   140017596:	cc                   	int3   
   140017597:	cc                   	int3   
   140017598:	cc                   	int3   
   140017599:	cc                   	int3   
   14001759a:	cc                   	int3   
   14001759b:	cc                   	int3   
   14001759c:	cc                   	int3   
   14001759d:	cc                   	int3   
   14001759e:	cc                   	int3   
   14001759f:	cc                   	int3   
   1400175a0:	cc                   	int3   
   1400175a1:	cc                   	int3   
   1400175a2:	cc                   	int3   
   1400175a3:	cc                   	int3   
   1400175a4:	cc                   	int3   
   1400175a5:	cc                   	int3   
   1400175a6:	cc                   	int3   
   1400175a7:	cc                   	int3   
   1400175a8:	cc                   	int3   
   1400175a9:	cc                   	int3   
   1400175aa:	cc                   	int3   
   1400175ab:	cc                   	int3   
   1400175ac:	cc                   	int3   
   1400175ad:	cc                   	int3   
   1400175ae:	cc                   	int3   
   1400175af:	cc                   	int3   
   1400175b0:	cc                   	int3   
   1400175b1:	cc                   	int3   
   1400175b2:	cc                   	int3   
   1400175b3:	cc                   	int3   
   1400175b4:	cc                   	int3   
   1400175b5:	cc                   	int3   
   1400175b6:	cc                   	int3   
   1400175b7:	cc                   	int3   
   1400175b8:	cc                   	int3   
   1400175b9:	cc                   	int3   
   1400175ba:	cc                   	int3   
   1400175bb:	cc                   	int3   
   1400175bc:	cc                   	int3   
   1400175bd:	cc                   	int3   
   1400175be:	cc                   	int3   
   1400175bf:	cc                   	int3   
   1400175c0:	cc                   	int3   
   1400175c1:	cc                   	int3   
   1400175c2:	cc                   	int3   
   1400175c3:	cc                   	int3   
   1400175c4:	cc                   	int3   
   1400175c5:	cc                   	int3   
   1400175c6:	cc                   	int3   
   1400175c7:	cc                   	int3   
   1400175c8:	cc                   	int3   
   1400175c9:	cc                   	int3   
   1400175ca:	cc                   	int3   
   1400175cb:	cc                   	int3   
   1400175cc:	cc                   	int3   
   1400175cd:	cc                   	int3   
   1400175ce:	cc                   	int3   
   1400175cf:	cc                   	int3   
   1400175d0:	cc                   	int3   
   1400175d1:	cc                   	int3   
   1400175d2:	cc                   	int3   
   1400175d3:	cc                   	int3   
   1400175d4:	cc                   	int3   
   1400175d5:	cc                   	int3   
   1400175d6:	cc                   	int3   
   1400175d7:	cc                   	int3   
   1400175d8:	cc                   	int3   
   1400175d9:	cc                   	int3   
   1400175da:	cc                   	int3   
   1400175db:	cc                   	int3   
   1400175dc:	cc                   	int3   
   1400175dd:	cc                   	int3   
   1400175de:	cc                   	int3   
   1400175df:	cc                   	int3   
   1400175e0:	cc                   	int3   
   1400175e1:	cc                   	int3   
   1400175e2:	cc                   	int3   
   1400175e3:	cc                   	int3   
   1400175e4:	cc                   	int3   
   1400175e5:	cc                   	int3   
   1400175e6:	cc                   	int3   
   1400175e7:	cc                   	int3   
   1400175e8:	cc                   	int3   
   1400175e9:	cc                   	int3   
   1400175ea:	cc                   	int3   
   1400175eb:	cc                   	int3   
   1400175ec:	cc                   	int3   
   1400175ed:	cc                   	int3   
   1400175ee:	cc                   	int3   
   1400175ef:	cc                   	int3   
   1400175f0:	cc                   	int3   
   1400175f1:	cc                   	int3   
   1400175f2:	cc                   	int3   
   1400175f3:	cc                   	int3   
   1400175f4:	cc                   	int3   
   1400175f5:	cc                   	int3   
   1400175f6:	cc                   	int3   
   1400175f7:	cc                   	int3   
   1400175f8:	cc                   	int3   
   1400175f9:	cc                   	int3   
   1400175fa:	cc                   	int3   
   1400175fb:	cc                   	int3   
   1400175fc:	cc                   	int3   
   1400175fd:	cc                   	int3   
   1400175fe:	cc                   	int3   
   1400175ff:	cc                   	int3   
   140017600:	cc                   	int3   
   140017601:	cc                   	int3   
   140017602:	cc                   	int3   
   140017603:	cc                   	int3   
   140017604:	cc                   	int3   
   140017605:	cc                   	int3   
   140017606:	cc                   	int3   
   140017607:	cc                   	int3   
   140017608:	cc                   	int3   
   140017609:	cc                   	int3   
   14001760a:	cc                   	int3   
   14001760b:	cc                   	int3   
   14001760c:	cc                   	int3   
   14001760d:	cc                   	int3   
   14001760e:	cc                   	int3   
   14001760f:	cc                   	int3   
   140017610:	cc                   	int3   
   140017611:	cc                   	int3   
   140017612:	cc                   	int3   
   140017613:	cc                   	int3   
   140017614:	cc                   	int3   
   140017615:	cc                   	int3   
   140017616:	cc                   	int3   
   140017617:	cc                   	int3   
   140017618:	cc                   	int3   
   140017619:	cc                   	int3   
   14001761a:	cc                   	int3   
   14001761b:	cc                   	int3   
   14001761c:	cc                   	int3   
   14001761d:	cc                   	int3   
   14001761e:	cc                   	int3   
   14001761f:	cc                   	int3   
   140017620:	cc                   	int3   
   140017621:	cc                   	int3   
   140017622:	cc                   	int3   
   140017623:	cc                   	int3   
   140017624:	cc                   	int3   
   140017625:	cc                   	int3   
   140017626:	cc                   	int3   
   140017627:	cc                   	int3   
   140017628:	cc                   	int3   
   140017629:	cc                   	int3   
   14001762a:	cc                   	int3   
   14001762b:	cc                   	int3   
   14001762c:	cc                   	int3   
   14001762d:	cc                   	int3   
   14001762e:	cc                   	int3   
   14001762f:	cc                   	int3   
   140017630:	cc                   	int3   
   140017631:	cc                   	int3   
   140017632:	cc                   	int3   
   140017633:	cc                   	int3   
   140017634:	cc                   	int3   
   140017635:	cc                   	int3   
   140017636:	cc                   	int3   
   140017637:	cc                   	int3   
   140017638:	cc                   	int3   
   140017639:	cc                   	int3   
   14001763a:	cc                   	int3   
   14001763b:	cc                   	int3   
   14001763c:	cc                   	int3   
   14001763d:	cc                   	int3   
   14001763e:	cc                   	int3   
   14001763f:	cc                   	int3   
   140017640:	cc                   	int3   
   140017641:	cc                   	int3   
   140017642:	cc                   	int3   
   140017643:	cc                   	int3   
   140017644:	cc                   	int3   
   140017645:	cc                   	int3   
   140017646:	cc                   	int3   
   140017647:	cc                   	int3   
   140017648:	cc                   	int3   
   140017649:	cc                   	int3   
   14001764a:	cc                   	int3   
   14001764b:	cc                   	int3   
   14001764c:	cc                   	int3   
   14001764d:	cc                   	int3   
   14001764e:	cc                   	int3   
   14001764f:	cc                   	int3   
   140017650:	cc                   	int3   
   140017651:	cc                   	int3   
   140017652:	cc                   	int3   
   140017653:	cc                   	int3   
   140017654:	cc                   	int3   
   140017655:	cc                   	int3   
   140017656:	cc                   	int3   
   140017657:	cc                   	int3   
   140017658:	cc                   	int3   
   140017659:	cc                   	int3   
   14001765a:	cc                   	int3   
   14001765b:	cc                   	int3   
   14001765c:	cc                   	int3   
   14001765d:	cc                   	int3   
   14001765e:	cc                   	int3   
   14001765f:	cc                   	int3   
   140017660:	cc                   	int3   
   140017661:	cc                   	int3   
   140017662:	cc                   	int3   
   140017663:	cc                   	int3   
   140017664:	cc                   	int3   
   140017665:	cc                   	int3   
   140017666:	cc                   	int3   
   140017667:	cc                   	int3   
   140017668:	cc                   	int3   
   140017669:	cc                   	int3   
   14001766a:	cc                   	int3   
   14001766b:	cc                   	int3   
   14001766c:	cc                   	int3   
   14001766d:	cc                   	int3   
   14001766e:	cc                   	int3   
   14001766f:	cc                   	int3   
   140017670:	cc                   	int3   
   140017671:	cc                   	int3   
   140017672:	cc                   	int3   
   140017673:	cc                   	int3   
   140017674:	cc                   	int3   
   140017675:	cc                   	int3   
   140017676:	cc                   	int3   
   140017677:	cc                   	int3   
   140017678:	cc                   	int3   
   140017679:	cc                   	int3   
   14001767a:	cc                   	int3   
   14001767b:	cc                   	int3   
   14001767c:	cc                   	int3   
   14001767d:	cc                   	int3   
   14001767e:	cc                   	int3   
   14001767f:	cc                   	int3   
   140017680:	cc                   	int3   
   140017681:	cc                   	int3   
   140017682:	cc                   	int3   
   140017683:	cc                   	int3   
   140017684:	cc                   	int3   
   140017685:	cc                   	int3   
   140017686:	cc                   	int3   
   140017687:	cc                   	int3   
   140017688:	cc                   	int3   
   140017689:	cc                   	int3   
   14001768a:	cc                   	int3   
   14001768b:	cc                   	int3   
   14001768c:	cc                   	int3   
   14001768d:	cc                   	int3   
   14001768e:	cc                   	int3   
   14001768f:	cc                   	int3   
   140017690:	cc                   	int3   
   140017691:	cc                   	int3   
   140017692:	cc                   	int3   
   140017693:	cc                   	int3   
   140017694:	cc                   	int3   
   140017695:	cc                   	int3   
   140017696:	cc                   	int3   
   140017697:	cc                   	int3   
   140017698:	cc                   	int3   
   140017699:	cc                   	int3   
   14001769a:	cc                   	int3   
   14001769b:	cc                   	int3   
   14001769c:	cc                   	int3   
   14001769d:	cc                   	int3   
   14001769e:	cc                   	int3   
   14001769f:	cc                   	int3   
   1400176a0:	cc                   	int3   
   1400176a1:	cc                   	int3   
   1400176a2:	cc                   	int3   
   1400176a3:	cc                   	int3   
   1400176a4:	cc                   	int3   
   1400176a5:	cc                   	int3   
   1400176a6:	cc                   	int3   
   1400176a7:	cc                   	int3   
   1400176a8:	cc                   	int3   
   1400176a9:	cc                   	int3   
   1400176aa:	cc                   	int3   
   1400176ab:	cc                   	int3   
   1400176ac:	cc                   	int3   
   1400176ad:	cc                   	int3   
   1400176ae:	cc                   	int3   
   1400176af:	cc                   	int3   
   1400176b0:	cc                   	int3   
   1400176b1:	cc                   	int3   
   1400176b2:	cc                   	int3   
   1400176b3:	cc                   	int3   
   1400176b4:	cc                   	int3   
   1400176b5:	cc                   	int3   
   1400176b6:	cc                   	int3   
   1400176b7:	cc                   	int3   
   1400176b8:	cc                   	int3   
   1400176b9:	cc                   	int3   
   1400176ba:	cc                   	int3   
   1400176bb:	cc                   	int3   
   1400176bc:	cc                   	int3   
   1400176bd:	cc                   	int3   
   1400176be:	cc                   	int3   
   1400176bf:	cc                   	int3   
   1400176c0:	cc                   	int3   
   1400176c1:	cc                   	int3   
   1400176c2:	cc                   	int3   
   1400176c3:	cc                   	int3   
   1400176c4:	cc                   	int3   
   1400176c5:	cc                   	int3   
   1400176c6:	cc                   	int3   
   1400176c7:	cc                   	int3   
   1400176c8:	cc                   	int3   
   1400176c9:	cc                   	int3   
   1400176ca:	cc                   	int3   
   1400176cb:	cc                   	int3   
   1400176cc:	cc                   	int3   
   1400176cd:	cc                   	int3   
   1400176ce:	cc                   	int3   
   1400176cf:	cc                   	int3   
   1400176d0:	cc                   	int3   
   1400176d1:	cc                   	int3   
   1400176d2:	cc                   	int3   
   1400176d3:	cc                   	int3   
   1400176d4:	cc                   	int3   
   1400176d5:	cc                   	int3   
   1400176d6:	cc                   	int3   
   1400176d7:	cc                   	int3   
   1400176d8:	cc                   	int3   
   1400176d9:	cc                   	int3   
   1400176da:	cc                   	int3   
   1400176db:	cc                   	int3   
   1400176dc:	cc                   	int3   
   1400176dd:	cc                   	int3   
   1400176de:	cc                   	int3   
   1400176df:	cc                   	int3   
   1400176e0:	cc                   	int3   
   1400176e1:	cc                   	int3   
   1400176e2:	cc                   	int3   
   1400176e3:	cc                   	int3   
   1400176e4:	cc                   	int3   
   1400176e5:	cc                   	int3   
   1400176e6:	cc                   	int3   
   1400176e7:	cc                   	int3   
   1400176e8:	cc                   	int3   
   1400176e9:	cc                   	int3   
   1400176ea:	cc                   	int3   
   1400176eb:	cc                   	int3   
   1400176ec:	cc                   	int3   
   1400176ed:	cc                   	int3   
   1400176ee:	cc                   	int3   
   1400176ef:	cc                   	int3   
   1400176f0:	cc                   	int3   
   1400176f1:	cc                   	int3   
   1400176f2:	cc                   	int3   
   1400176f3:	cc                   	int3   
   1400176f4:	cc                   	int3   
   1400176f5:	cc                   	int3   
   1400176f6:	cc                   	int3   
   1400176f7:	cc                   	int3   
   1400176f8:	cc                   	int3   
   1400176f9:	cc                   	int3   
   1400176fa:	cc                   	int3   
   1400176fb:	cc                   	int3   
   1400176fc:	cc                   	int3   
   1400176fd:	cc                   	int3   
   1400176fe:	cc                   	int3   
   1400176ff:	cc                   	int3   
   140017700:	cc                   	int3   
   140017701:	cc                   	int3   
   140017702:	cc                   	int3   
   140017703:	cc                   	int3   
   140017704:	cc                   	int3   
   140017705:	cc                   	int3   
   140017706:	cc                   	int3   
   140017707:	cc                   	int3   
   140017708:	cc                   	int3   
   140017709:	cc                   	int3   
   14001770a:	cc                   	int3   
   14001770b:	cc                   	int3   
   14001770c:	cc                   	int3   
   14001770d:	cc                   	int3   
   14001770e:	cc                   	int3   
   14001770f:	cc                   	int3   
   140017710:	cc                   	int3   
   140017711:	cc                   	int3   
   140017712:	cc                   	int3   
   140017713:	cc                   	int3   
   140017714:	cc                   	int3   
   140017715:	cc                   	int3   
   140017716:	cc                   	int3   
   140017717:	cc                   	int3   
   140017718:	cc                   	int3   
   140017719:	cc                   	int3   
   14001771a:	cc                   	int3   
   14001771b:	cc                   	int3   
   14001771c:	cc                   	int3   
   14001771d:	cc                   	int3   
   14001771e:	cc                   	int3   
   14001771f:	cc                   	int3   
   140017720:	cc                   	int3   
   140017721:	cc                   	int3   
   140017722:	cc                   	int3   
   140017723:	cc                   	int3   
   140017724:	cc                   	int3   
   140017725:	cc                   	int3   
   140017726:	cc                   	int3   
   140017727:	cc                   	int3   
   140017728:	cc                   	int3   
   140017729:	cc                   	int3   
   14001772a:	cc                   	int3   
   14001772b:	cc                   	int3   
   14001772c:	cc                   	int3   
   14001772d:	cc                   	int3   
   14001772e:	cc                   	int3   
   14001772f:	cc                   	int3   
   140017730:	cc                   	int3   
   140017731:	cc                   	int3   
   140017732:	cc                   	int3   
   140017733:	cc                   	int3   
   140017734:	cc                   	int3   
   140017735:	cc                   	int3   
   140017736:	cc                   	int3   
   140017737:	cc                   	int3   
   140017738:	cc                   	int3   
   140017739:	cc                   	int3   
   14001773a:	cc                   	int3   
   14001773b:	cc                   	int3   
   14001773c:	cc                   	int3   
   14001773d:	cc                   	int3   
   14001773e:	cc                   	int3   
   14001773f:	cc                   	int3   
   140017740:	cc                   	int3   
   140017741:	cc                   	int3   
   140017742:	cc                   	int3   
   140017743:	cc                   	int3   
   140017744:	cc                   	int3   
   140017745:	cc                   	int3   
   140017746:	cc                   	int3   
   140017747:	cc                   	int3   
   140017748:	cc                   	int3   
   140017749:	cc                   	int3   
   14001774a:	cc                   	int3   
   14001774b:	cc                   	int3   
   14001774c:	cc                   	int3   
   14001774d:	cc                   	int3   
   14001774e:	cc                   	int3   
   14001774f:	cc                   	int3   
   140017750:	cc                   	int3   
   140017751:	cc                   	int3   
   140017752:	cc                   	int3   
   140017753:	cc                   	int3   
   140017754:	cc                   	int3   
   140017755:	cc                   	int3   
   140017756:	cc                   	int3   
   140017757:	cc                   	int3   
   140017758:	cc                   	int3   
   140017759:	cc                   	int3   
   14001775a:	cc                   	int3   
   14001775b:	cc                   	int3   
   14001775c:	cc                   	int3   
   14001775d:	cc                   	int3   
   14001775e:	cc                   	int3   
   14001775f:	cc                   	int3   
   140017760:	cc                   	int3   
   140017761:	cc                   	int3   
   140017762:	cc                   	int3   
   140017763:	cc                   	int3   
   140017764:	cc                   	int3   
   140017765:	cc                   	int3   
   140017766:	cc                   	int3   
   140017767:	cc                   	int3   
   140017768:	cc                   	int3   
   140017769:	cc                   	int3   
   14001776a:	cc                   	int3   
   14001776b:	cc                   	int3   
   14001776c:	cc                   	int3   
   14001776d:	cc                   	int3   
   14001776e:	cc                   	int3   
   14001776f:	cc                   	int3   
   140017770:	cc                   	int3   
   140017771:	cc                   	int3   
   140017772:	cc                   	int3   
   140017773:	cc                   	int3   
   140017774:	cc                   	int3   
   140017775:	cc                   	int3   
   140017776:	cc                   	int3   
   140017777:	cc                   	int3   
   140017778:	cc                   	int3   
   140017779:	cc                   	int3   
   14001777a:	cc                   	int3   
   14001777b:	cc                   	int3   
   14001777c:	cc                   	int3   
   14001777d:	cc                   	int3   
   14001777e:	cc                   	int3   
   14001777f:	cc                   	int3   
   140017780:	cc                   	int3   
   140017781:	cc                   	int3   
   140017782:	cc                   	int3   
   140017783:	cc                   	int3   
   140017784:	cc                   	int3   
   140017785:	cc                   	int3   
   140017786:	cc                   	int3   
   140017787:	cc                   	int3   
   140017788:	cc                   	int3   
   140017789:	cc                   	int3   
   14001778a:	cc                   	int3   
   14001778b:	cc                   	int3   
   14001778c:	cc                   	int3   
   14001778d:	cc                   	int3   
   14001778e:	cc                   	int3   
   14001778f:	cc                   	int3   
   140017790:	cc                   	int3   
   140017791:	cc                   	int3   
   140017792:	cc                   	int3   
   140017793:	cc                   	int3   
   140017794:	cc                   	int3   
   140017795:	cc                   	int3   
   140017796:	cc                   	int3   
   140017797:	cc                   	int3   
   140017798:	cc                   	int3   
   140017799:	cc                   	int3   
   14001779a:	cc                   	int3   
   14001779b:	cc                   	int3   
   14001779c:	cc                   	int3   
   14001779d:	cc                   	int3   
   14001779e:	cc                   	int3   
   14001779f:	cc                   	int3   
   1400177a0:	cc                   	int3   
   1400177a1:	cc                   	int3   
   1400177a2:	cc                   	int3   
   1400177a3:	cc                   	int3   
   1400177a4:	cc                   	int3   
   1400177a5:	cc                   	int3   
   1400177a6:	cc                   	int3   
   1400177a7:	cc                   	int3   
   1400177a8:	cc                   	int3   
   1400177a9:	cc                   	int3   
   1400177aa:	cc                   	int3   
   1400177ab:	cc                   	int3   
   1400177ac:	cc                   	int3   
   1400177ad:	cc                   	int3   
   1400177ae:	cc                   	int3   
   1400177af:	cc                   	int3   
   1400177b0:	cc                   	int3   
   1400177b1:	cc                   	int3   
   1400177b2:	cc                   	int3   
   1400177b3:	cc                   	int3   
   1400177b4:	cc                   	int3   
   1400177b5:	cc                   	int3   
   1400177b6:	cc                   	int3   
   1400177b7:	cc                   	int3   
   1400177b8:	cc                   	int3   
   1400177b9:	cc                   	int3   
   1400177ba:	cc                   	int3   
   1400177bb:	cc                   	int3   
   1400177bc:	cc                   	int3   
   1400177bd:	cc                   	int3   
   1400177be:	cc                   	int3   
   1400177bf:	cc                   	int3   
   1400177c0:	cc                   	int3   
   1400177c1:	cc                   	int3   
   1400177c2:	cc                   	int3   
   1400177c3:	cc                   	int3   
   1400177c4:	cc                   	int3   
   1400177c5:	cc                   	int3   
   1400177c6:	cc                   	int3   
   1400177c7:	cc                   	int3   
   1400177c8:	cc                   	int3   
   1400177c9:	cc                   	int3   
   1400177ca:	cc                   	int3   
   1400177cb:	cc                   	int3   
   1400177cc:	cc                   	int3   
   1400177cd:	cc                   	int3   
   1400177ce:	cc                   	int3   
   1400177cf:	cc                   	int3   
   1400177d0:	cc                   	int3   
   1400177d1:	cc                   	int3   
   1400177d2:	cc                   	int3   
   1400177d3:	cc                   	int3   
   1400177d4:	cc                   	int3   
   1400177d5:	cc                   	int3   
   1400177d6:	cc                   	int3   
   1400177d7:	cc                   	int3   
   1400177d8:	cc                   	int3   
   1400177d9:	cc                   	int3   
   1400177da:	cc                   	int3   
   1400177db:	cc                   	int3   
   1400177dc:	cc                   	int3   
   1400177dd:	cc                   	int3   
   1400177de:	cc                   	int3   
   1400177df:	cc                   	int3   
   1400177e0:	cc                   	int3   
   1400177e1:	cc                   	int3   
   1400177e2:	cc                   	int3   
   1400177e3:	cc                   	int3   
   1400177e4:	cc                   	int3   
   1400177e5:	cc                   	int3   
   1400177e6:	cc                   	int3   
   1400177e7:	cc                   	int3   
   1400177e8:	cc                   	int3   
   1400177e9:	cc                   	int3   
   1400177ea:	cc                   	int3   
   1400177eb:	cc                   	int3   
   1400177ec:	cc                   	int3   
   1400177ed:	cc                   	int3   
   1400177ee:	cc                   	int3   
   1400177ef:	cc                   	int3   
   1400177f0:	cc                   	int3   
   1400177f1:	cc                   	int3   
   1400177f2:	cc                   	int3   
   1400177f3:	cc                   	int3   
   1400177f4:	cc                   	int3   
   1400177f5:	cc                   	int3   
   1400177f6:	cc                   	int3   
   1400177f7:	cc                   	int3   
   1400177f8:	cc                   	int3   
   1400177f9:	cc                   	int3   
   1400177fa:	cc                   	int3   
   1400177fb:	cc                   	int3   
   1400177fc:	cc                   	int3   
   1400177fd:	cc                   	int3   
   1400177fe:	cc                   	int3   
   1400177ff:	cc                   	int3   
   140017800:	cc                   	int3   
   140017801:	cc                   	int3   
   140017802:	cc                   	int3   
   140017803:	cc                   	int3   
   140017804:	cc                   	int3   
   140017805:	cc                   	int3   
   140017806:	cc                   	int3   
   140017807:	cc                   	int3   
   140017808:	cc                   	int3   
   140017809:	cc                   	int3   
   14001780a:	cc                   	int3   
   14001780b:	cc                   	int3   
   14001780c:	cc                   	int3   
   14001780d:	cc                   	int3   
   14001780e:	cc                   	int3   
   14001780f:	cc                   	int3   
   140017810:	cc                   	int3   
   140017811:	cc                   	int3   
   140017812:	cc                   	int3   
   140017813:	cc                   	int3   
   140017814:	cc                   	int3   
   140017815:	cc                   	int3   
   140017816:	cc                   	int3   
   140017817:	cc                   	int3   
   140017818:	cc                   	int3   
   140017819:	cc                   	int3   
   14001781a:	cc                   	int3   
   14001781b:	cc                   	int3   
   14001781c:	cc                   	int3   
   14001781d:	cc                   	int3   
   14001781e:	cc                   	int3   
   14001781f:	cc                   	int3   
   140017820:	cc                   	int3   
   140017821:	cc                   	int3   
   140017822:	cc                   	int3   
   140017823:	cc                   	int3   
   140017824:	cc                   	int3   
   140017825:	cc                   	int3   
   140017826:	cc                   	int3   
   140017827:	cc                   	int3   
   140017828:	cc                   	int3   
   140017829:	cc                   	int3   
   14001782a:	cc                   	int3   
   14001782b:	cc                   	int3   
   14001782c:	cc                   	int3   
   14001782d:	cc                   	int3   
   14001782e:	cc                   	int3   
   14001782f:	cc                   	int3   
   140017830:	cc                   	int3   
   140017831:	cc                   	int3   
   140017832:	cc                   	int3   
   140017833:	cc                   	int3   
   140017834:	cc                   	int3   
   140017835:	cc                   	int3   
   140017836:	cc                   	int3   
   140017837:	cc                   	int3   
   140017838:	cc                   	int3   
   140017839:	cc                   	int3   
   14001783a:	cc                   	int3   
   14001783b:	cc                   	int3   
   14001783c:	cc                   	int3   
   14001783d:	cc                   	int3   
   14001783e:	cc                   	int3   
   14001783f:	cc                   	int3   
   140017840:	cc                   	int3   
   140017841:	cc                   	int3   
   140017842:	cc                   	int3   
   140017843:	cc                   	int3   
   140017844:	cc                   	int3   
   140017845:	cc                   	int3   
   140017846:	cc                   	int3   
   140017847:	cc                   	int3   
   140017848:	cc                   	int3   
   140017849:	cc                   	int3   
   14001784a:	cc                   	int3   
   14001784b:	cc                   	int3   
   14001784c:	cc                   	int3   
   14001784d:	cc                   	int3   
   14001784e:	cc                   	int3   
   14001784f:	cc                   	int3   
   140017850:	cc                   	int3   
   140017851:	cc                   	int3   
   140017852:	cc                   	int3   
   140017853:	cc                   	int3   
   140017854:	cc                   	int3   
   140017855:	cc                   	int3   
   140017856:	cc                   	int3   
   140017857:	cc                   	int3   
   140017858:	cc                   	int3   
   140017859:	cc                   	int3   
   14001785a:	cc                   	int3   
   14001785b:	cc                   	int3   
   14001785c:	cc                   	int3   
   14001785d:	cc                   	int3   
   14001785e:	cc                   	int3   
   14001785f:	cc                   	int3   
   140017860:	cc                   	int3   
   140017861:	cc                   	int3   
   140017862:	cc                   	int3   
   140017863:	cc                   	int3   
   140017864:	cc                   	int3   
   140017865:	cc                   	int3   
   140017866:	cc                   	int3   
   140017867:	cc                   	int3   
   140017868:	cc                   	int3   
   140017869:	cc                   	int3   
   14001786a:	cc                   	int3   
   14001786b:	cc                   	int3   
   14001786c:	cc                   	int3   
   14001786d:	cc                   	int3   
   14001786e:	cc                   	int3   
   14001786f:	cc                   	int3   
   140017870:	cc                   	int3   
   140017871:	cc                   	int3   
   140017872:	cc                   	int3   
   140017873:	cc                   	int3   
   140017874:	cc                   	int3   
   140017875:	cc                   	int3   
   140017876:	cc                   	int3   
   140017877:	cc                   	int3   
   140017878:	cc                   	int3   
   140017879:	cc                   	int3   
   14001787a:	cc                   	int3   
   14001787b:	cc                   	int3   
   14001787c:	cc                   	int3   
   14001787d:	cc                   	int3   
   14001787e:	cc                   	int3   
   14001787f:	cc                   	int3   
   140017880:	cc                   	int3   
   140017881:	cc                   	int3   
   140017882:	cc                   	int3   
   140017883:	cc                   	int3   
   140017884:	cc                   	int3   
   140017885:	cc                   	int3   
   140017886:	cc                   	int3   
   140017887:	cc                   	int3   
   140017888:	cc                   	int3   
   140017889:	cc                   	int3   
   14001788a:	cc                   	int3   
   14001788b:	cc                   	int3   
   14001788c:	cc                   	int3   
   14001788d:	cc                   	int3   
   14001788e:	cc                   	int3   
   14001788f:	cc                   	int3   
   140017890:	cc                   	int3   
   140017891:	cc                   	int3   
   140017892:	cc                   	int3   
   140017893:	cc                   	int3   
   140017894:	cc                   	int3   
   140017895:	cc                   	int3   
   140017896:	cc                   	int3   
   140017897:	cc                   	int3   
   140017898:	cc                   	int3   
   140017899:	cc                   	int3   
   14001789a:	cc                   	int3   
   14001789b:	cc                   	int3   
   14001789c:	cc                   	int3   
   14001789d:	cc                   	int3   
   14001789e:	cc                   	int3   
   14001789f:	cc                   	int3   
   1400178a0:	40 55                	rex push rbp
   1400178a2:	48 83 ec 20          	sub    rsp,0x20
   1400178a6:	48 8b ea             	mov    rbp,rdx
   1400178a9:	48 89 4d 40          	mov    QWORD PTR [rbp+0x40],rcx
   1400178ad:	48 8b 45 40          	mov    rax,QWORD PTR [rbp+0x40]
   1400178b1:	48 8b 00             	mov    rax,QWORD PTR [rax]
   1400178b4:	8b 00                	mov    eax,DWORD PTR [rax]
   1400178b6:	89 45 24             	mov    DWORD PTR [rbp+0x24],eax
   1400178b9:	48 8b 45 40          	mov    rax,QWORD PTR [rbp+0x40]
   1400178bd:	8b 4d 24             	mov    ecx,DWORD PTR [rbp+0x24]
   1400178c0:	48 8b d0             	mov    rdx,rax
   1400178c3:	e8 77 99 ff ff       	call   0x14001123f
   1400178c8:	90                   	nop
   1400178c9:	48 83 c4 20          	add    rsp,0x20
   1400178cd:	5d                   	pop    rbp
   1400178ce:	c3                   	ret    
   1400178cf:	cc                   	int3   
   1400178d0:	cc                   	int3   
   1400178d1:	cc                   	int3   
   1400178d2:	cc                   	int3   
   1400178d3:	cc                   	int3   
   1400178d4:	cc                   	int3   
   1400178d5:	cc                   	int3   
   1400178d6:	cc                   	int3   
   1400178d7:	cc                   	int3   
   1400178d8:	cc                   	int3   
   1400178d9:	cc                   	int3   
   1400178da:	cc                   	int3   
   1400178db:	cc                   	int3   
   1400178dc:	cc                   	int3   
   1400178dd:	cc                   	int3   
   1400178de:	cc                   	int3   
   1400178df:	cc                   	int3   
   1400178e0:	40 55                	rex push rbp
   1400178e2:	48 83 ec 20          	sub    rsp,0x20
   1400178e6:	48 8b ea             	mov    rbp,rdx
   1400178e9:	48 8b 01             	mov    rax,QWORD PTR [rcx]
   1400178ec:	33 c9                	xor    ecx,ecx
   1400178ee:	81 38 88 13 6d 40    	cmp    DWORD PTR [rax],0x406d1388
   1400178f4:	0f 94 c1             	sete   cl
   1400178f7:	8b c1                	mov    eax,ecx
   1400178f9:	48 83 c4 20          	add    rsp,0x20
   1400178fd:	5d                   	pop    rbp
   1400178fe:	c3                   	ret    
   1400178ff:	cc                   	int3   
   140017900:	cc                   	int3   
   140017901:	cc                   	int3   
   140017902:	cc                   	int3   
   140017903:	cc                   	int3   
   140017904:	cc                   	int3   
   140017905:	cc                   	int3   
   140017906:	cc                   	int3   
   140017907:	cc                   	int3   
   140017908:	cc                   	int3   
   140017909:	cc                   	int3   
   14001790a:	cc                   	int3   
   14001790b:	cc                   	int3   
   14001790c:	cc                   	int3   
   14001790d:	cc                   	int3   
   14001790e:	cc                   	int3   
   14001790f:	cc                   	int3   
   140017910:	40 55                	rex push rbp
   140017912:	48 83 ec 20          	sub    rsp,0x20
   140017916:	48 8b ea             	mov    rbp,rdx
   140017919:	48 89 4d 48          	mov    QWORD PTR [rbp+0x48],rcx
   14001791d:	48 8b 45 48          	mov    rax,QWORD PTR [rbp+0x48]
   140017921:	48 8b 00             	mov    rax,QWORD PTR [rax]
   140017924:	8b 00                	mov    eax,DWORD PTR [rax]
   140017926:	89 45 24             	mov    DWORD PTR [rbp+0x24],eax
   140017929:	8b 45 24             	mov    eax,DWORD PTR [rbp+0x24]
   14001792c:	3d 05 00 00 c0       	cmp    eax,0xc0000005
   140017931:	75 09                	jne    0x14001793c
   140017933:	c7 45 20 01 00 00 00 	mov    DWORD PTR [rbp+0x20],0x1
   14001793a:	eb 07                	jmp    0x140017943
   14001793c:	c7 45 20 00 00 00 00 	mov    DWORD PTR [rbp+0x20],0x0
   140017943:	8b 45 20             	mov    eax,DWORD PTR [rbp+0x20]
   140017946:	48 83 c4 20          	add    rsp,0x20
   14001794a:	5d                   	pop    rbp
   14001794b:	c3                   	ret    
   14001794c:	cc                   	int3   
   14001794d:	cc                   	int3   
   14001794e:	cc                   	int3   
   14001794f:	cc                   	int3   
   140017950:	cc                   	int3   
   140017951:	cc                   	int3   
   140017952:	cc                   	int3   
   140017953:	cc                   	int3   
   140017954:	cc                   	int3   
   140017955:	cc                   	int3   
   140017956:	cc                   	int3   
   140017957:	cc                   	int3   
   140017958:	cc                   	int3   
   140017959:	cc                   	int3   
   14001795a:	cc                   	int3   
   14001795b:	cc                   	int3   
   14001795c:	cc                   	int3   
   14001795d:	cc                   	int3   
   14001795e:	cc                   	int3   
   14001795f:	cc                   	int3   
   140017960:	cc                   	int3   
   140017961:	cc                   	int3   
   140017962:	cc                   	int3   
   140017963:	cc                   	int3   
   140017964:	cc                   	int3   
   140017965:	cc                   	int3   
   140017966:	cc                   	int3   
   140017967:	cc                   	int3   
   140017968:	cc                   	int3   
   140017969:	cc                   	int3   
   14001796a:	cc                   	int3   
   14001796b:	cc                   	int3   
   14001796c:	cc                   	int3   
   14001796d:	cc                   	int3   
   14001796e:	cc                   	int3   
   14001796f:	cc                   	int3   
   140017970:	cc                   	int3   
   140017971:	cc                   	int3   
   140017972:	cc                   	int3   
   140017973:	cc                   	int3   
   140017974:	cc                   	int3   
   140017975:	cc                   	int3   
   140017976:	cc                   	int3   
   140017977:	cc                   	int3   
   140017978:	cc                   	int3   
   140017979:	cc                   	int3   
   14001797a:	cc                   	int3   
   14001797b:	cc                   	int3   
   14001797c:	cc                   	int3   
   14001797d:	cc                   	int3   
   14001797e:	cc                   	int3   
   14001797f:	cc                   	int3   
   140017980:	cc                   	int3   
   140017981:	cc                   	int3   
   140017982:	cc                   	int3   
   140017983:	cc                   	int3   
   140017984:	cc                   	int3   
   140017985:	cc                   	int3   
   140017986:	cc                   	int3   
   140017987:	cc                   	int3   
   140017988:	cc                   	int3   
   140017989:	cc                   	int3   
   14001798a:	cc                   	int3   
   14001798b:	cc                   	int3   
   14001798c:	cc                   	int3   
   14001798d:	cc                   	int3   
   14001798e:	cc                   	int3   
   14001798f:	cc                   	int3   
   140017990:	cc                   	int3   
   140017991:	cc                   	int3   
   140017992:	cc                   	int3   
   140017993:	cc                   	int3   
   140017994:	cc                   	int3   
   140017995:	cc                   	int3   
   140017996:	cc                   	int3   
   140017997:	cc                   	int3   
   140017998:	cc                   	int3   
   140017999:	cc                   	int3   
   14001799a:	cc                   	int3   
   14001799b:	cc                   	int3   
   14001799c:	cc                   	int3   
   14001799d:	cc                   	int3   
   14001799e:	cc                   	int3   
   14001799f:	cc                   	int3   
   1400179a0:	cc                   	int3   
   1400179a1:	cc                   	int3   
   1400179a2:	cc                   	int3   
   1400179a3:	cc                   	int3   
   1400179a4:	cc                   	int3   
   1400179a5:	cc                   	int3   
   1400179a6:	cc                   	int3   
   1400179a7:	cc                   	int3   
   1400179a8:	cc                   	int3   
   1400179a9:	cc                   	int3   
   1400179aa:	cc                   	int3   
   1400179ab:	cc                   	int3   
   1400179ac:	cc                   	int3   
   1400179ad:	cc                   	int3   
   1400179ae:	cc                   	int3   
   1400179af:	cc                   	int3   
   1400179b0:	cc                   	int3   
   1400179b1:	cc                   	int3   
   1400179b2:	cc                   	int3   
   1400179b3:	cc                   	int3   
   1400179b4:	cc                   	int3   
   1400179b5:	cc                   	int3   
   1400179b6:	cc                   	int3   
   1400179b7:	cc                   	int3   
   1400179b8:	cc                   	int3   
   1400179b9:	cc                   	int3   
   1400179ba:	cc                   	int3   
   1400179bb:	cc                   	int3   
   1400179bc:	cc                   	int3   
   1400179bd:	cc                   	int3   
   1400179be:	cc                   	int3   
   1400179bf:	cc                   	int3   
   1400179c0:	cc                   	int3   
   1400179c1:	cc                   	int3   
   1400179c2:	cc                   	int3   
   1400179c3:	cc                   	int3   
   1400179c4:	cc                   	int3   
   1400179c5:	cc                   	int3   
   1400179c6:	cc                   	int3   
   1400179c7:	cc                   	int3   
   1400179c8:	cc                   	int3   
   1400179c9:	cc                   	int3   
   1400179ca:	cc                   	int3   
   1400179cb:	cc                   	int3   
   1400179cc:	cc                   	int3   
   1400179cd:	cc                   	int3   
   1400179ce:	cc                   	int3   
   1400179cf:	cc                   	int3   
   1400179d0:	cc                   	int3   
   1400179d1:	cc                   	int3   
   1400179d2:	cc                   	int3   
   1400179d3:	cc                   	int3   
   1400179d4:	cc                   	int3   
   1400179d5:	cc                   	int3   
   1400179d6:	cc                   	int3   
   1400179d7:	cc                   	int3   
   1400179d8:	cc                   	int3   
   1400179d9:	cc                   	int3   
   1400179da:	cc                   	int3   
   1400179db:	cc                   	int3   
   1400179dc:	cc                   	int3   
   1400179dd:	cc                   	int3   
   1400179de:	cc                   	int3   
   1400179df:	cc                   	int3   
   1400179e0:	cc                   	int3   
   1400179e1:	cc                   	int3   
   1400179e2:	cc                   	int3   
   1400179e3:	cc                   	int3   
   1400179e4:	cc                   	int3   
   1400179e5:	cc                   	int3   
   1400179e6:	cc                   	int3   
   1400179e7:	cc                   	int3   
   1400179e8:	cc                   	int3   
   1400179e9:	cc                   	int3   
   1400179ea:	cc                   	int3   
   1400179eb:	cc                   	int3   
   1400179ec:	cc                   	int3   
   1400179ed:	cc                   	int3   
   1400179ee:	cc                   	int3   
   1400179ef:	cc                   	int3   
   1400179f0:	cc                   	int3   
   1400179f1:	cc                   	int3   
   1400179f2:	cc                   	int3   
   1400179f3:	cc                   	int3   
   1400179f4:	cc                   	int3   
   1400179f5:	cc                   	int3   
   1400179f6:	cc                   	int3   
   1400179f7:	cc                   	int3   
   1400179f8:	cc                   	int3   
   1400179f9:	cc                   	int3   
   1400179fa:	cc                   	int3   
   1400179fb:	cc                   	int3   
   1400179fc:	cc                   	int3   
   1400179fd:	cc                   	int3   
   1400179fe:	cc                   	int3   
   1400179ff:	cc                   	int3   
   140017a00:	cc                   	int3   
   140017a01:	cc                   	int3   
   140017a02:	cc                   	int3   
   140017a03:	cc                   	int3   
   140017a04:	cc                   	int3   
   140017a05:	cc                   	int3   
   140017a06:	cc                   	int3   
   140017a07:	cc                   	int3   
   140017a08:	cc                   	int3   
   140017a09:	cc                   	int3   
   140017a0a:	cc                   	int3   
   140017a0b:	cc                   	int3   
   140017a0c:	cc                   	int3   
   140017a0d:	cc                   	int3   
   140017a0e:	cc                   	int3   
   140017a0f:	cc                   	int3   
   140017a10:	cc                   	int3   
   140017a11:	cc                   	int3   
   140017a12:	cc                   	int3   
   140017a13:	cc                   	int3   
   140017a14:	cc                   	int3   
   140017a15:	cc                   	int3   
   140017a16:	cc                   	int3   
   140017a17:	cc                   	int3   
   140017a18:	cc                   	int3   
   140017a19:	cc                   	int3   
   140017a1a:	cc                   	int3   
   140017a1b:	cc                   	int3   
   140017a1c:	cc                   	int3   
   140017a1d:	cc                   	int3   
   140017a1e:	cc                   	int3   
   140017a1f:	cc                   	int3   
   140017a20:	cc                   	int3   
   140017a21:	cc                   	int3   
   140017a22:	cc                   	int3   
   140017a23:	cc                   	int3   
   140017a24:	cc                   	int3   
   140017a25:	cc                   	int3   
   140017a26:	cc                   	int3   
   140017a27:	cc                   	int3   
   140017a28:	cc                   	int3   
   140017a29:	cc                   	int3   
   140017a2a:	cc                   	int3   
   140017a2b:	cc                   	int3   
   140017a2c:	cc                   	int3   
   140017a2d:	cc                   	int3   
   140017a2e:	cc                   	int3   
   140017a2f:	cc                   	int3   
   140017a30:	cc                   	int3   
   140017a31:	cc                   	int3   
   140017a32:	cc                   	int3   
   140017a33:	cc                   	int3   
   140017a34:	cc                   	int3   
   140017a35:	cc                   	int3   
   140017a36:	cc                   	int3   
   140017a37:	cc                   	int3   
   140017a38:	cc                   	int3   
   140017a39:	cc                   	int3   
   140017a3a:	cc                   	int3   
   140017a3b:	cc                   	int3   
   140017a3c:	cc                   	int3   
   140017a3d:	cc                   	int3   
   140017a3e:	cc                   	int3   
   140017a3f:	cc                   	int3   
   140017a40:	cc                   	int3   
   140017a41:	cc                   	int3   
   140017a42:	cc                   	int3   
   140017a43:	cc                   	int3   
   140017a44:	cc                   	int3   
   140017a45:	cc                   	int3   
   140017a46:	cc                   	int3   
   140017a47:	cc                   	int3   
   140017a48:	cc                   	int3   
   140017a49:	cc                   	int3   
   140017a4a:	cc                   	int3   
   140017a4b:	cc                   	int3   
   140017a4c:	cc                   	int3   
   140017a4d:	cc                   	int3   
   140017a4e:	cc                   	int3   
   140017a4f:	cc                   	int3   
   140017a50:	cc                   	int3   
   140017a51:	cc                   	int3   
   140017a52:	cc                   	int3   
   140017a53:	cc                   	int3   
   140017a54:	cc                   	int3   
   140017a55:	cc                   	int3   
   140017a56:	cc                   	int3   
   140017a57:	cc                   	int3   
   140017a58:	cc                   	int3   
   140017a59:	cc                   	int3   
   140017a5a:	cc                   	int3   
   140017a5b:	cc                   	int3   
   140017a5c:	cc                   	int3   
   140017a5d:	cc                   	int3   
   140017a5e:	cc                   	int3   
   140017a5f:	cc                   	int3   
   140017a60:	cc                   	int3   
   140017a61:	cc                   	int3   
   140017a62:	cc                   	int3   
   140017a63:	cc                   	int3   
   140017a64:	cc                   	int3   
   140017a65:	cc                   	int3   
   140017a66:	cc                   	int3   
   140017a67:	cc                   	int3   
   140017a68:	cc                   	int3   
   140017a69:	cc                   	int3   
   140017a6a:	cc                   	int3   
   140017a6b:	cc                   	int3   
   140017a6c:	cc                   	int3   
   140017a6d:	cc                   	int3   
   140017a6e:	cc                   	int3   
   140017a6f:	cc                   	int3   
   140017a70:	cc                   	int3   
   140017a71:	cc                   	int3   
   140017a72:	cc                   	int3   
   140017a73:	cc                   	int3   
   140017a74:	cc                   	int3   
   140017a75:	cc                   	int3   
   140017a76:	cc                   	int3   
   140017a77:	cc                   	int3   
   140017a78:	cc                   	int3   
   140017a79:	cc                   	int3   
   140017a7a:	cc                   	int3   
   140017a7b:	cc                   	int3   
   140017a7c:	cc                   	int3   
   140017a7d:	cc                   	int3   
   140017a7e:	cc                   	int3   
   140017a7f:	cc                   	int3   
   140017a80:	cc                   	int3   
   140017a81:	cc                   	int3   
   140017a82:	cc                   	int3   
   140017a83:	cc                   	int3   
   140017a84:	cc                   	int3   
   140017a85:	cc                   	int3   
   140017a86:	cc                   	int3   
   140017a87:	cc                   	int3   
   140017a88:	cc                   	int3   
   140017a89:	cc                   	int3   
   140017a8a:	cc                   	int3   
   140017a8b:	cc                   	int3   
   140017a8c:	cc                   	int3   
   140017a8d:	cc                   	int3   
   140017a8e:	cc                   	int3   
   140017a8f:	cc                   	int3   
   140017a90:	cc                   	int3   
   140017a91:	cc                   	int3   
   140017a92:	cc                   	int3   
   140017a93:	cc                   	int3   
   140017a94:	cc                   	int3   
   140017a95:	cc                   	int3   
   140017a96:	cc                   	int3   
   140017a97:	cc                   	int3   
   140017a98:	cc                   	int3   
   140017a99:	cc                   	int3   
   140017a9a:	cc                   	int3   
   140017a9b:	cc                   	int3   
   140017a9c:	cc                   	int3   
   140017a9d:	cc                   	int3   
   140017a9e:	cc                   	int3   
   140017a9f:	cc                   	int3   
   140017aa0:	cc                   	int3   
   140017aa1:	cc                   	int3   
   140017aa2:	cc                   	int3   
   140017aa3:	cc                   	int3   
   140017aa4:	cc                   	int3   
   140017aa5:	cc                   	int3   
   140017aa6:	cc                   	int3   
   140017aa7:	cc                   	int3   
   140017aa8:	cc                   	int3   
   140017aa9:	cc                   	int3   
   140017aaa:	cc                   	int3   
   140017aab:	cc                   	int3   
   140017aac:	cc                   	int3   
   140017aad:	cc                   	int3   
   140017aae:	cc                   	int3   
   140017aaf:	cc                   	int3   
   140017ab0:	cc                   	int3   
   140017ab1:	cc                   	int3   
   140017ab2:	cc                   	int3   
   140017ab3:	cc                   	int3   
   140017ab4:	cc                   	int3   
   140017ab5:	cc                   	int3   
   140017ab6:	cc                   	int3   
   140017ab7:	cc                   	int3   
   140017ab8:	cc                   	int3   
   140017ab9:	cc                   	int3   
   140017aba:	cc                   	int3   
   140017abb:	cc                   	int3   
   140017abc:	cc                   	int3   
   140017abd:	cc                   	int3   
   140017abe:	cc                   	int3   
   140017abf:	cc                   	int3   
   140017ac0:	cc                   	int3   
   140017ac1:	cc                   	int3   
   140017ac2:	cc                   	int3   
   140017ac3:	cc                   	int3   
   140017ac4:	cc                   	int3   
   140017ac5:	cc                   	int3   
   140017ac6:	cc                   	int3   
   140017ac7:	cc                   	int3   
   140017ac8:	cc                   	int3   
   140017ac9:	cc                   	int3   
   140017aca:	cc                   	int3   
   140017acb:	cc                   	int3   
   140017acc:	cc                   	int3   
   140017acd:	cc                   	int3   
   140017ace:	cc                   	int3   
   140017acf:	cc                   	int3   
   140017ad0:	cc                   	int3   
   140017ad1:	cc                   	int3   
   140017ad2:	cc                   	int3   
   140017ad3:	cc                   	int3   
   140017ad4:	cc                   	int3   
   140017ad5:	cc                   	int3   
   140017ad6:	cc                   	int3   
   140017ad7:	cc                   	int3   
   140017ad8:	cc                   	int3   
   140017ad9:	cc                   	int3   
   140017ada:	cc                   	int3   
   140017adb:	cc                   	int3   
   140017adc:	cc                   	int3   
   140017add:	cc                   	int3   
   140017ade:	cc                   	int3   
   140017adf:	cc                   	int3   
   140017ae0:	cc                   	int3   
   140017ae1:	cc                   	int3   
   140017ae2:	cc                   	int3   
   140017ae3:	cc                   	int3   
   140017ae4:	cc                   	int3   
   140017ae5:	cc                   	int3   
   140017ae6:	cc                   	int3   
   140017ae7:	cc                   	int3   
   140017ae8:	cc                   	int3   
   140017ae9:	cc                   	int3   
   140017aea:	cc                   	int3   
   140017aeb:	cc                   	int3   
   140017aec:	cc                   	int3   
   140017aed:	cc                   	int3   
   140017aee:	cc                   	int3   
   140017aef:	cc                   	int3   
   140017af0:	cc                   	int3   
   140017af1:	cc                   	int3   
   140017af2:	cc                   	int3   
   140017af3:	cc                   	int3   
   140017af4:	cc                   	int3   
   140017af5:	cc                   	int3   
   140017af6:	cc                   	int3   
   140017af7:	cc                   	int3   
   140017af8:	cc                   	int3   
   140017af9:	cc                   	int3   
   140017afa:	cc                   	int3   
   140017afb:	cc                   	int3   
   140017afc:	cc                   	int3   
   140017afd:	cc                   	int3   
   140017afe:	cc                   	int3   
   140017aff:	cc                   	int3   
   140017b00:	cc                   	int3   
   140017b01:	cc                   	int3   
   140017b02:	cc                   	int3   
   140017b03:	cc                   	int3   
   140017b04:	cc                   	int3   
   140017b05:	cc                   	int3   
   140017b06:	cc                   	int3   
   140017b07:	cc                   	int3   
   140017b08:	cc                   	int3   
   140017b09:	cc                   	int3   
   140017b0a:	cc                   	int3   
   140017b0b:	cc                   	int3   
   140017b0c:	cc                   	int3   
   140017b0d:	cc                   	int3   
   140017b0e:	cc                   	int3   
   140017b0f:	cc                   	int3   
   140017b10:	cc                   	int3   
   140017b11:	cc                   	int3   
   140017b12:	cc                   	int3   
   140017b13:	cc                   	int3   
   140017b14:	cc                   	int3   
   140017b15:	cc                   	int3   
   140017b16:	cc                   	int3   
   140017b17:	cc                   	int3   
   140017b18:	cc                   	int3   
   140017b19:	cc                   	int3   
   140017b1a:	cc                   	int3   
   140017b1b:	cc                   	int3   
   140017b1c:	cc                   	int3   
   140017b1d:	cc                   	int3   
   140017b1e:	cc                   	int3   
   140017b1f:	cc                   	int3   
   140017b20:	cc                   	int3   
   140017b21:	cc                   	int3   
   140017b22:	cc                   	int3   
   140017b23:	cc                   	int3   
   140017b24:	cc                   	int3   
   140017b25:	cc                   	int3   
   140017b26:	cc                   	int3   
   140017b27:	cc                   	int3   
   140017b28:	cc                   	int3   
   140017b29:	cc                   	int3   
   140017b2a:	cc                   	int3   
   140017b2b:	cc                   	int3   
   140017b2c:	cc                   	int3   
   140017b2d:	cc                   	int3   
   140017b2e:	cc                   	int3   
   140017b2f:	cc                   	int3   
   140017b30:	cc                   	int3   
   140017b31:	cc                   	int3   
   140017b32:	cc                   	int3   
   140017b33:	cc                   	int3   
   140017b34:	cc                   	int3   
   140017b35:	cc                   	int3   
   140017b36:	cc                   	int3   
   140017b37:	cc                   	int3   
   140017b38:	cc                   	int3   
   140017b39:	cc                   	int3   
   140017b3a:	cc                   	int3   
   140017b3b:	cc                   	int3   
   140017b3c:	cc                   	int3   
   140017b3d:	cc                   	int3   
   140017b3e:	cc                   	int3   
   140017b3f:	cc                   	int3   
   140017b40:	cc                   	int3   
   140017b41:	cc                   	int3   
   140017b42:	cc                   	int3   
   140017b43:	cc                   	int3   
   140017b44:	cc                   	int3   
   140017b45:	cc                   	int3   
   140017b46:	cc                   	int3   
   140017b47:	cc                   	int3   
   140017b48:	cc                   	int3   
   140017b49:	cc                   	int3   
   140017b4a:	cc                   	int3   
   140017b4b:	cc                   	int3   
   140017b4c:	cc                   	int3   
   140017b4d:	cc                   	int3   
   140017b4e:	cc                   	int3   
   140017b4f:	cc                   	int3   
   140017b50:	cc                   	int3   
   140017b51:	cc                   	int3   
   140017b52:	cc                   	int3   
   140017b53:	cc                   	int3   
   140017b54:	cc                   	int3   
   140017b55:	cc                   	int3   
   140017b56:	cc                   	int3   
   140017b57:	cc                   	int3   
   140017b58:	cc                   	int3   
   140017b59:	cc                   	int3   
   140017b5a:	cc                   	int3   
   140017b5b:	cc                   	int3   
   140017b5c:	cc                   	int3   
   140017b5d:	cc                   	int3   
   140017b5e:	cc                   	int3   
   140017b5f:	cc                   	int3   
   140017b60:	cc                   	int3   
   140017b61:	cc                   	int3   
   140017b62:	cc                   	int3   
   140017b63:	cc                   	int3   
   140017b64:	cc                   	int3   
   140017b65:	cc                   	int3   
   140017b66:	cc                   	int3   
   140017b67:	cc                   	int3   
   140017b68:	cc                   	int3   
   140017b69:	cc                   	int3   
   140017b6a:	cc                   	int3   
   140017b6b:	cc                   	int3   
   140017b6c:	cc                   	int3   
   140017b6d:	cc                   	int3   
   140017b6e:	cc                   	int3   
   140017b6f:	cc                   	int3   
   140017b70:	cc                   	int3   
   140017b71:	cc                   	int3   
   140017b72:	cc                   	int3   
   140017b73:	cc                   	int3   
   140017b74:	cc                   	int3   
   140017b75:	cc                   	int3   
   140017b76:	cc                   	int3   
   140017b77:	cc                   	int3   
   140017b78:	cc                   	int3   
   140017b79:	cc                   	int3   
   140017b7a:	cc                   	int3   
   140017b7b:	cc                   	int3   
   140017b7c:	cc                   	int3   
   140017b7d:	cc                   	int3   
   140017b7e:	cc                   	int3   
   140017b7f:	cc                   	int3   
   140017b80:	cc                   	int3   
   140017b81:	cc                   	int3   
   140017b82:	cc                   	int3   
   140017b83:	cc                   	int3   
   140017b84:	cc                   	int3   
   140017b85:	cc                   	int3   
   140017b86:	cc                   	int3   
   140017b87:	cc                   	int3   
   140017b88:	cc                   	int3   
   140017b89:	cc                   	int3   
   140017b8a:	cc                   	int3   
   140017b8b:	cc                   	int3   
   140017b8c:	cc                   	int3   
   140017b8d:	cc                   	int3   
   140017b8e:	cc                   	int3   
   140017b8f:	cc                   	int3   
   140017b90:	cc                   	int3   
   140017b91:	cc                   	int3   
   140017b92:	cc                   	int3   
   140017b93:	cc                   	int3   
   140017b94:	cc                   	int3   
   140017b95:	cc                   	int3   
   140017b96:	cc                   	int3   
   140017b97:	cc                   	int3   
   140017b98:	cc                   	int3   
   140017b99:	cc                   	int3   
   140017b9a:	cc                   	int3   
   140017b9b:	cc                   	int3   
   140017b9c:	cc                   	int3   
   140017b9d:	cc                   	int3   
   140017b9e:	cc                   	int3   
   140017b9f:	cc                   	int3   
   140017ba0:	cc                   	int3   
   140017ba1:	cc                   	int3   
   140017ba2:	cc                   	int3   
   140017ba3:	cc                   	int3   
   140017ba4:	cc                   	int3   
   140017ba5:	cc                   	int3   
   140017ba6:	cc                   	int3   
   140017ba7:	cc                   	int3   
   140017ba8:	cc                   	int3   
   140017ba9:	cc                   	int3   
   140017baa:	cc                   	int3   
   140017bab:	cc                   	int3   
   140017bac:	cc                   	int3   
   140017bad:	cc                   	int3   
   140017bae:	cc                   	int3   
   140017baf:	cc                   	int3   
   140017bb0:	cc                   	int3   
   140017bb1:	cc                   	int3   
   140017bb2:	cc                   	int3   
   140017bb3:	cc                   	int3   
   140017bb4:	cc                   	int3   
   140017bb5:	cc                   	int3   
   140017bb6:	cc                   	int3   
   140017bb7:	cc                   	int3   
   140017bb8:	cc                   	int3   
   140017bb9:	cc                   	int3   
   140017bba:	cc                   	int3   
   140017bbb:	cc                   	int3   
   140017bbc:	cc                   	int3   
   140017bbd:	cc                   	int3   
   140017bbe:	cc                   	int3   
   140017bbf:	cc                   	int3   
   140017bc0:	cc                   	int3   
   140017bc1:	cc                   	int3   
   140017bc2:	cc                   	int3   
   140017bc3:	cc                   	int3   
   140017bc4:	cc                   	int3   
   140017bc5:	cc                   	int3   
   140017bc6:	cc                   	int3   
   140017bc7:	cc                   	int3   
   140017bc8:	cc                   	int3   
   140017bc9:	cc                   	int3   
   140017bca:	cc                   	int3   
   140017bcb:	cc                   	int3   
   140017bcc:	cc                   	int3   
   140017bcd:	cc                   	int3   
   140017bce:	cc                   	int3   
   140017bcf:	cc                   	int3   
   140017bd0:	cc                   	int3   
   140017bd1:	cc                   	int3   
   140017bd2:	cc                   	int3   
   140017bd3:	cc                   	int3   
   140017bd4:	cc                   	int3   
   140017bd5:	cc                   	int3   
   140017bd6:	cc                   	int3   
   140017bd7:	cc                   	int3   
   140017bd8:	cc                   	int3   
   140017bd9:	cc                   	int3   
   140017bda:	cc                   	int3   
   140017bdb:	cc                   	int3   
   140017bdc:	cc                   	int3   
   140017bdd:	cc                   	int3   
   140017bde:	cc                   	int3   
   140017bdf:	cc                   	int3   
   140017be0:	cc                   	int3   
   140017be1:	cc                   	int3   
   140017be2:	cc                   	int3   
   140017be3:	cc                   	int3   
   140017be4:	cc                   	int3   
   140017be5:	cc                   	int3   
   140017be6:	cc                   	int3   
   140017be7:	cc                   	int3   
   140017be8:	cc                   	int3   
   140017be9:	cc                   	int3   
   140017bea:	cc                   	int3   
   140017beb:	cc                   	int3   
   140017bec:	cc                   	int3   
   140017bed:	cc                   	int3   
   140017bee:	cc                   	int3   
   140017bef:	cc                   	int3   
   140017bf0:	cc                   	int3   
   140017bf1:	cc                   	int3   
   140017bf2:	cc                   	int3   
   140017bf3:	cc                   	int3   
   140017bf4:	cc                   	int3   
   140017bf5:	cc                   	int3   
   140017bf6:	cc                   	int3   
   140017bf7:	cc                   	int3   
   140017bf8:	cc                   	int3   
   140017bf9:	cc                   	int3   
   140017bfa:	cc                   	int3   
   140017bfb:	cc                   	int3   
   140017bfc:	cc                   	int3   
   140017bfd:	cc                   	int3   
   140017bfe:	cc                   	int3   
   140017bff:	cc                   	int3   
   140017c00:	cc                   	int3   
   140017c01:	cc                   	int3   
   140017c02:	cc                   	int3   
   140017c03:	cc                   	int3   
   140017c04:	cc                   	int3   
   140017c05:	cc                   	int3   
   140017c06:	cc                   	int3   
   140017c07:	cc                   	int3   
   140017c08:	cc                   	int3   
   140017c09:	cc                   	int3   
   140017c0a:	cc                   	int3   
   140017c0b:	cc                   	int3   
   140017c0c:	cc                   	int3   
   140017c0d:	cc                   	int3   
   140017c0e:	cc                   	int3   
   140017c0f:	cc                   	int3   
   140017c10:	cc                   	int3   
   140017c11:	cc                   	int3   
   140017c12:	cc                   	int3   
   140017c13:	cc                   	int3   
   140017c14:	cc                   	int3   
   140017c15:	cc                   	int3   
   140017c16:	cc                   	int3   
   140017c17:	cc                   	int3   
   140017c18:	cc                   	int3   
   140017c19:	cc                   	int3   
   140017c1a:	cc                   	int3   
   140017c1b:	cc                   	int3   
   140017c1c:	cc                   	int3   
   140017c1d:	cc                   	int3   
   140017c1e:	cc                   	int3   
   140017c1f:	cc                   	int3   
   140017c20:	cc                   	int3   
   140017c21:	cc                   	int3   
   140017c22:	cc                   	int3   
   140017c23:	cc                   	int3   
   140017c24:	cc                   	int3   
   140017c25:	cc                   	int3   
   140017c26:	cc                   	int3   
   140017c27:	cc                   	int3   
   140017c28:	cc                   	int3   
   140017c29:	cc                   	int3   
   140017c2a:	cc                   	int3   
   140017c2b:	cc                   	int3   
   140017c2c:	cc                   	int3   
   140017c2d:	cc                   	int3   
   140017c2e:	cc                   	int3   
   140017c2f:	cc                   	int3   
   140017c30:	cc                   	int3   
   140017c31:	cc                   	int3   
   140017c32:	cc                   	int3   
   140017c33:	cc                   	int3   
   140017c34:	cc                   	int3   
   140017c35:	cc                   	int3   
   140017c36:	cc                   	int3   
   140017c37:	cc                   	int3   
   140017c38:	cc                   	int3   
   140017c39:	cc                   	int3   
   140017c3a:	cc                   	int3   
   140017c3b:	cc                   	int3   
   140017c3c:	cc                   	int3   
   140017c3d:	cc                   	int3   
   140017c3e:	cc                   	int3   
   140017c3f:	cc                   	int3   
   140017c40:	cc                   	int3   
   140017c41:	cc                   	int3   
   140017c42:	cc                   	int3   
   140017c43:	cc                   	int3   
   140017c44:	cc                   	int3   
   140017c45:	cc                   	int3   
   140017c46:	cc                   	int3   
   140017c47:	cc                   	int3   
   140017c48:	cc                   	int3   
   140017c49:	cc                   	int3   
   140017c4a:	cc                   	int3   
   140017c4b:	cc                   	int3   
   140017c4c:	cc                   	int3   
   140017c4d:	cc                   	int3   
   140017c4e:	cc                   	int3   
   140017c4f:	cc                   	int3   
   140017c50:	cc                   	int3   
   140017c51:	cc                   	int3   
   140017c52:	cc                   	int3   
   140017c53:	cc                   	int3   
   140017c54:	cc                   	int3   
   140017c55:	cc                   	int3   
   140017c56:	cc                   	int3   
   140017c57:	cc                   	int3   
   140017c58:	cc                   	int3   
   140017c59:	cc                   	int3   
   140017c5a:	cc                   	int3   
   140017c5b:	cc                   	int3   
   140017c5c:	cc                   	int3   
   140017c5d:	cc                   	int3   
   140017c5e:	cc                   	int3   
   140017c5f:	cc                   	int3   
   140017c60:	cc                   	int3   
   140017c61:	cc                   	int3   
   140017c62:	cc                   	int3   
   140017c63:	cc                   	int3   
   140017c64:	cc                   	int3   
   140017c65:	cc                   	int3   
   140017c66:	cc                   	int3   
   140017c67:	cc                   	int3   
   140017c68:	cc                   	int3   
   140017c69:	cc                   	int3   
   140017c6a:	cc                   	int3   
   140017c6b:	cc                   	int3   
   140017c6c:	cc                   	int3   
   140017c6d:	cc                   	int3   
   140017c6e:	cc                   	int3   
   140017c6f:	cc                   	int3   
   140017c70:	cc                   	int3   
   140017c71:	cc                   	int3   
   140017c72:	cc                   	int3   
   140017c73:	cc                   	int3   
   140017c74:	cc                   	int3   
   140017c75:	cc                   	int3   
   140017c76:	cc                   	int3   
   140017c77:	cc                   	int3   
   140017c78:	cc                   	int3   
   140017c79:	cc                   	int3   
   140017c7a:	cc                   	int3   
   140017c7b:	cc                   	int3   
   140017c7c:	cc                   	int3   
   140017c7d:	cc                   	int3   
   140017c7e:	cc                   	int3   
   140017c7f:	cc                   	int3   
   140017c80:	cc                   	int3   
   140017c81:	cc                   	int3   
   140017c82:	cc                   	int3   
   140017c83:	cc                   	int3   
   140017c84:	cc                   	int3   
   140017c85:	cc                   	int3   
   140017c86:	cc                   	int3   
   140017c87:	cc                   	int3   
   140017c88:	cc                   	int3   
   140017c89:	cc                   	int3   
   140017c8a:	cc                   	int3   
   140017c8b:	cc                   	int3   
   140017c8c:	cc                   	int3   
   140017c8d:	cc                   	int3   
   140017c8e:	cc                   	int3   
   140017c8f:	cc                   	int3   
   140017c90:	cc                   	int3   
   140017c91:	cc                   	int3   
   140017c92:	cc                   	int3   
   140017c93:	cc                   	int3   
   140017c94:	cc                   	int3   
   140017c95:	cc                   	int3   
   140017c96:	cc                   	int3   
   140017c97:	cc                   	int3   
   140017c98:	cc                   	int3   
   140017c99:	cc                   	int3   
   140017c9a:	cc                   	int3   
   140017c9b:	cc                   	int3   
   140017c9c:	cc                   	int3   
   140017c9d:	cc                   	int3   
   140017c9e:	cc                   	int3   
   140017c9f:	cc                   	int3   
   140017ca0:	cc                   	int3   
   140017ca1:	cc                   	int3   
   140017ca2:	cc                   	int3   
   140017ca3:	cc                   	int3   
   140017ca4:	cc                   	int3   
   140017ca5:	cc                   	int3   
   140017ca6:	cc                   	int3   
   140017ca7:	cc                   	int3   
   140017ca8:	cc                   	int3   
   140017ca9:	cc                   	int3   
   140017caa:	cc                   	int3   
   140017cab:	cc                   	int3   
   140017cac:	cc                   	int3   
   140017cad:	cc                   	int3   
   140017cae:	cc                   	int3   
   140017caf:	cc                   	int3   
   140017cb0:	cc                   	int3   
   140017cb1:	cc                   	int3   
   140017cb2:	cc                   	int3   
   140017cb3:	cc                   	int3   
   140017cb4:	cc                   	int3   
   140017cb5:	cc                   	int3   
   140017cb6:	cc                   	int3   
   140017cb7:	cc                   	int3   
   140017cb8:	cc                   	int3   
   140017cb9:	cc                   	int3   
   140017cba:	cc                   	int3   
   140017cbb:	cc                   	int3   
   140017cbc:	cc                   	int3   
   140017cbd:	cc                   	int3   
   140017cbe:	cc                   	int3   
   140017cbf:	cc                   	int3   
   140017cc0:	cc                   	int3   
   140017cc1:	cc                   	int3   
   140017cc2:	cc                   	int3   
   140017cc3:	cc                   	int3   
   140017cc4:	cc                   	int3   
   140017cc5:	cc                   	int3   
   140017cc6:	cc                   	int3   
   140017cc7:	cc                   	int3   
   140017cc8:	cc                   	int3   
   140017cc9:	cc                   	int3   
   140017cca:	cc                   	int3   
   140017ccb:	cc                   	int3   
   140017ccc:	cc                   	int3   
   140017ccd:	cc                   	int3   
   140017cce:	cc                   	int3   
   140017ccf:	cc                   	int3   
   140017cd0:	cc                   	int3   
   140017cd1:	cc                   	int3   
   140017cd2:	cc                   	int3   
   140017cd3:	cc                   	int3   
   140017cd4:	cc                   	int3   
   140017cd5:	cc                   	int3   
   140017cd6:	cc                   	int3   
   140017cd7:	cc                   	int3   
   140017cd8:	cc                   	int3   
   140017cd9:	cc                   	int3   
   140017cda:	cc                   	int3   
   140017cdb:	cc                   	int3   
   140017cdc:	cc                   	int3   
   140017cdd:	cc                   	int3   
   140017cde:	cc                   	int3   
   140017cdf:	cc                   	int3   
   140017ce0:	cc                   	int3   
   140017ce1:	cc                   	int3   
   140017ce2:	cc                   	int3   
   140017ce3:	cc                   	int3   
   140017ce4:	cc                   	int3   
   140017ce5:	cc                   	int3   
   140017ce6:	cc                   	int3   
   140017ce7:	cc                   	int3   
   140017ce8:	cc                   	int3   
   140017ce9:	cc                   	int3   
   140017cea:	cc                   	int3   
   140017ceb:	cc                   	int3   
   140017cec:	cc                   	int3   
   140017ced:	cc                   	int3   
   140017cee:	cc                   	int3   
   140017cef:	cc                   	int3   
   140017cf0:	cc                   	int3   
   140017cf1:	cc                   	int3   
   140017cf2:	cc                   	int3   
   140017cf3:	cc                   	int3   
   140017cf4:	cc                   	int3   
   140017cf5:	cc                   	int3   
   140017cf6:	cc                   	int3   
   140017cf7:	cc                   	int3   
   140017cf8:	cc                   	int3   
   140017cf9:	cc                   	int3   
   140017cfa:	cc                   	int3   
   140017cfb:	cc                   	int3   
   140017cfc:	cc                   	int3   
   140017cfd:	cc                   	int3   
   140017cfe:	cc                   	int3   
   140017cff:	cc                   	int3   
   140017d00:	cc                   	int3   
   140017d01:	cc                   	int3   
   140017d02:	cc                   	int3   
   140017d03:	cc                   	int3   
   140017d04:	cc                   	int3   
   140017d05:	cc                   	int3   
   140017d06:	cc                   	int3   
   140017d07:	cc                   	int3   
   140017d08:	cc                   	int3   
   140017d09:	cc                   	int3   
   140017d0a:	cc                   	int3   
   140017d0b:	cc                   	int3   
   140017d0c:	cc                   	int3   
   140017d0d:	cc                   	int3   
   140017d0e:	cc                   	int3   
   140017d0f:	cc                   	int3   
   140017d10:	cc                   	int3   
   140017d11:	cc                   	int3   
   140017d12:	cc                   	int3   
   140017d13:	cc                   	int3   
   140017d14:	cc                   	int3   
   140017d15:	cc                   	int3   
   140017d16:	cc                   	int3   
   140017d17:	cc                   	int3   
   140017d18:	cc                   	int3   
   140017d19:	cc                   	int3   
   140017d1a:	cc                   	int3   
   140017d1b:	cc                   	int3   
   140017d1c:	cc                   	int3   
   140017d1d:	cc                   	int3   
   140017d1e:	cc                   	int3   
   140017d1f:	cc                   	int3   
   140017d20:	cc                   	int3   
   140017d21:	cc                   	int3   
   140017d22:	cc                   	int3   
   140017d23:	cc                   	int3   
   140017d24:	cc                   	int3   
   140017d25:	cc                   	int3   
   140017d26:	cc                   	int3   
   140017d27:	cc                   	int3   
   140017d28:	cc                   	int3   
   140017d29:	cc                   	int3   
   140017d2a:	cc                   	int3   
   140017d2b:	cc                   	int3   
   140017d2c:	cc                   	int3   
   140017d2d:	cc                   	int3   
   140017d2e:	cc                   	int3   
   140017d2f:	cc                   	int3   
   140017d30:	cc                   	int3   
   140017d31:	cc                   	int3   
   140017d32:	cc                   	int3   
   140017d33:	cc                   	int3   
   140017d34:	cc                   	int3   
   140017d35:	cc                   	int3   
   140017d36:	cc                   	int3   
   140017d37:	cc                   	int3   
   140017d38:	cc                   	int3   
   140017d39:	cc                   	int3   
   140017d3a:	cc                   	int3   
   140017d3b:	cc                   	int3   
   140017d3c:	cc                   	int3   
   140017d3d:	cc                   	int3   
   140017d3e:	cc                   	int3   
   140017d3f:	cc                   	int3   
   140017d40:	cc                   	int3   
   140017d41:	cc                   	int3   
   140017d42:	cc                   	int3   
   140017d43:	cc                   	int3   
   140017d44:	cc                   	int3   
   140017d45:	cc                   	int3   
   140017d46:	cc                   	int3   
   140017d47:	cc                   	int3   
   140017d48:	cc                   	int3   
   140017d49:	cc                   	int3   
   140017d4a:	cc                   	int3   
   140017d4b:	cc                   	int3   
   140017d4c:	cc                   	int3   
   140017d4d:	cc                   	int3   
   140017d4e:	cc                   	int3   
   140017d4f:	cc                   	int3   
   140017d50:	cc                   	int3   
   140017d51:	cc                   	int3   
   140017d52:	cc                   	int3   
   140017d53:	cc                   	int3   
   140017d54:	cc                   	int3   
   140017d55:	cc                   	int3   
   140017d56:	cc                   	int3   
   140017d57:	cc                   	int3   
   140017d58:	cc                   	int3   
   140017d59:	cc                   	int3   
   140017d5a:	cc                   	int3   
   140017d5b:	cc                   	int3   
   140017d5c:	cc                   	int3   
   140017d5d:	cc                   	int3   
   140017d5e:	cc                   	int3   
   140017d5f:	cc                   	int3   
   140017d60:	cc                   	int3   
   140017d61:	cc                   	int3   
   140017d62:	cc                   	int3   
   140017d63:	cc                   	int3   
   140017d64:	cc                   	int3   
   140017d65:	cc                   	int3   
   140017d66:	cc                   	int3   
   140017d67:	cc                   	int3   
   140017d68:	cc                   	int3   
   140017d69:	cc                   	int3   
   140017d6a:	cc                   	int3   
   140017d6b:	cc                   	int3   
   140017d6c:	cc                   	int3   
   140017d6d:	cc                   	int3   
   140017d6e:	cc                   	int3   
   140017d6f:	cc                   	int3   
   140017d70:	cc                   	int3   
   140017d71:	cc                   	int3   
   140017d72:	cc                   	int3   
   140017d73:	cc                   	int3   
   140017d74:	cc                   	int3   
   140017d75:	cc                   	int3   
   140017d76:	cc                   	int3   
   140017d77:	cc                   	int3   
   140017d78:	cc                   	int3   
   140017d79:	cc                   	int3   
   140017d7a:	cc                   	int3   
   140017d7b:	cc                   	int3   
   140017d7c:	cc                   	int3   
   140017d7d:	cc                   	int3   
   140017d7e:	cc                   	int3   
   140017d7f:	cc                   	int3   
   140017d80:	cc                   	int3   
   140017d81:	cc                   	int3   
   140017d82:	cc                   	int3   
   140017d83:	cc                   	int3   
   140017d84:	cc                   	int3   
   140017d85:	cc                   	int3   
   140017d86:	cc                   	int3   
   140017d87:	cc                   	int3   
   140017d88:	cc                   	int3   
   140017d89:	cc                   	int3   
   140017d8a:	cc                   	int3   
   140017d8b:	cc                   	int3   
   140017d8c:	cc                   	int3   
   140017d8d:	cc                   	int3   
   140017d8e:	cc                   	int3   
   140017d8f:	cc                   	int3   
   140017d90:	cc                   	int3   
   140017d91:	cc                   	int3   
   140017d92:	cc                   	int3   
   140017d93:	cc                   	int3   
   140017d94:	cc                   	int3   
   140017d95:	cc                   	int3   
   140017d96:	cc                   	int3   
   140017d97:	cc                   	int3   
   140017d98:	cc                   	int3   
   140017d99:	cc                   	int3   
   140017d9a:	cc                   	int3   
   140017d9b:	cc                   	int3   
   140017d9c:	cc                   	int3   
   140017d9d:	cc                   	int3   
   140017d9e:	cc                   	int3   
   140017d9f:	cc                   	int3   
   140017da0:	cc                   	int3   
   140017da1:	cc                   	int3   
   140017da2:	cc                   	int3   
   140017da3:	cc                   	int3   
   140017da4:	cc                   	int3   
   140017da5:	cc                   	int3   
   140017da6:	cc                   	int3   
   140017da7:	cc                   	int3   
   140017da8:	cc                   	int3   
   140017da9:	cc                   	int3   
   140017daa:	cc                   	int3   
   140017dab:	cc                   	int3   
   140017dac:	cc                   	int3   
   140017dad:	cc                   	int3   
   140017dae:	cc                   	int3   
   140017daf:	cc                   	int3   
   140017db0:	cc                   	int3   
   140017db1:	cc                   	int3   
   140017db2:	cc                   	int3   
   140017db3:	cc                   	int3   
   140017db4:	cc                   	int3   
   140017db5:	cc                   	int3   
   140017db6:	cc                   	int3   
   140017db7:	cc                   	int3   
   140017db8:	cc                   	int3   
   140017db9:	cc                   	int3   
   140017dba:	cc                   	int3   
   140017dbb:	cc                   	int3   
   140017dbc:	cc                   	int3   
   140017dbd:	cc                   	int3   
   140017dbe:	cc                   	int3   
   140017dbf:	cc                   	int3   
   140017dc0:	cc                   	int3   
   140017dc1:	cc                   	int3   
   140017dc2:	cc                   	int3   
   140017dc3:	cc                   	int3   
   140017dc4:	cc                   	int3   
   140017dc5:	cc                   	int3   
   140017dc6:	cc                   	int3   
   140017dc7:	cc                   	int3   
   140017dc8:	cc                   	int3   
   140017dc9:	cc                   	int3   
   140017dca:	cc                   	int3   
   140017dcb:	cc                   	int3   
   140017dcc:	cc                   	int3   
   140017dcd:	cc                   	int3   
   140017dce:	cc                   	int3   
   140017dcf:	cc                   	int3   
   140017dd0:	cc                   	int3   
   140017dd1:	cc                   	int3   
   140017dd2:	cc                   	int3   
   140017dd3:	cc                   	int3   
   140017dd4:	cc                   	int3   
   140017dd5:	cc                   	int3   
   140017dd6:	cc                   	int3   
   140017dd7:	cc                   	int3   
   140017dd8:	cc                   	int3   
   140017dd9:	cc                   	int3   
   140017dda:	cc                   	int3   
   140017ddb:	cc                   	int3   
   140017ddc:	cc                   	int3   
   140017ddd:	cc                   	int3   
   140017dde:	cc                   	int3   
   140017ddf:	cc                   	int3   
   140017de0:	cc                   	int3   
   140017de1:	cc                   	int3   
   140017de2:	cc                   	int3   
   140017de3:	cc                   	int3   
   140017de4:	cc                   	int3   
   140017de5:	cc                   	int3   
   140017de6:	cc                   	int3   
   140017de7:	cc                   	int3   
   140017de8:	cc                   	int3   
   140017de9:	cc                   	int3   
   140017dea:	cc                   	int3   
   140017deb:	cc                   	int3   
   140017dec:	cc                   	int3   
   140017ded:	cc                   	int3   
   140017dee:	cc                   	int3   
   140017def:	cc                   	int3   
   140017df0:	cc                   	int3   
   140017df1:	cc                   	int3   
   140017df2:	cc                   	int3   
   140017df3:	cc                   	int3   
   140017df4:	cc                   	int3   
   140017df5:	cc                   	int3   
   140017df6:	cc                   	int3   
   140017df7:	cc                   	int3   
   140017df8:	cc                   	int3   
   140017df9:	cc                   	int3   
   140017dfa:	cc                   	int3   
   140017dfb:	cc                   	int3   
   140017dfc:	cc                   	int3   
   140017dfd:	cc                   	int3   
   140017dfe:	cc                   	int3   
   140017dff:	cc                   	int3   
   140017e00:	cc                   	int3   
   140017e01:	cc                   	int3   
   140017e02:	cc                   	int3   
   140017e03:	cc                   	int3   
   140017e04:	cc                   	int3   
   140017e05:	cc                   	int3   
   140017e06:	cc                   	int3   
   140017e07:	cc                   	int3   
   140017e08:	cc                   	int3   
   140017e09:	cc                   	int3   
   140017e0a:	cc                   	int3   
   140017e0b:	cc                   	int3   
   140017e0c:	cc                   	int3   
   140017e0d:	cc                   	int3   
   140017e0e:	cc                   	int3   
   140017e0f:	cc                   	int3   
   140017e10:	cc                   	int3   
   140017e11:	cc                   	int3   
   140017e12:	cc                   	int3   
   140017e13:	cc                   	int3   
   140017e14:	cc                   	int3   
   140017e15:	cc                   	int3   
   140017e16:	cc                   	int3   
   140017e17:	cc                   	int3   
   140017e18:	cc                   	int3   
   140017e19:	cc                   	int3   
   140017e1a:	cc                   	int3   
   140017e1b:	cc                   	int3   
   140017e1c:	cc                   	int3   
   140017e1d:	cc                   	int3   
   140017e1e:	cc                   	int3   
   140017e1f:	cc                   	int3   
   140017e20:	cc                   	int3   
   140017e21:	cc                   	int3   
   140017e22:	cc                   	int3   
   140017e23:	cc                   	int3   
   140017e24:	cc                   	int3   
   140017e25:	cc                   	int3   
   140017e26:	cc                   	int3   
   140017e27:	cc                   	int3   
   140017e28:	cc                   	int3   
   140017e29:	cc                   	int3   
   140017e2a:	cc                   	int3   
   140017e2b:	cc                   	int3   
   140017e2c:	cc                   	int3   
   140017e2d:	cc                   	int3   
   140017e2e:	cc                   	int3   
   140017e2f:	cc                   	int3   
   140017e30:	cc                   	int3   
   140017e31:	cc                   	int3   
   140017e32:	cc                   	int3   
   140017e33:	cc                   	int3   
   140017e34:	cc                   	int3   
   140017e35:	cc                   	int3   
   140017e36:	cc                   	int3   
   140017e37:	cc                   	int3   
   140017e38:	cc                   	int3   
   140017e39:	cc                   	int3   
   140017e3a:	cc                   	int3   
   140017e3b:	cc                   	int3   
   140017e3c:	cc                   	int3   
   140017e3d:	cc                   	int3   
   140017e3e:	cc                   	int3   
   140017e3f:	cc                   	int3   
   140017e40:	cc                   	int3   
   140017e41:	cc                   	int3   
   140017e42:	cc                   	int3   
   140017e43:	cc                   	int3   
   140017e44:	cc                   	int3   
   140017e45:	cc                   	int3   
   140017e46:	cc                   	int3   
   140017e47:	cc                   	int3   
   140017e48:	cc                   	int3   
   140017e49:	cc                   	int3   
   140017e4a:	cc                   	int3   
   140017e4b:	cc                   	int3   
   140017e4c:	cc                   	int3   
   140017e4d:	cc                   	int3   
   140017e4e:	cc                   	int3   
   140017e4f:	cc                   	int3   
   140017e50:	cc                   	int3   
   140017e51:	cc                   	int3   
   140017e52:	cc                   	int3   
   140017e53:	cc                   	int3   
   140017e54:	cc                   	int3   
   140017e55:	cc                   	int3   
   140017e56:	cc                   	int3   
   140017e57:	cc                   	int3   
   140017e58:	cc                   	int3   
   140017e59:	cc                   	int3   
   140017e5a:	cc                   	int3   
   140017e5b:	cc                   	int3   
   140017e5c:	cc                   	int3   
   140017e5d:	cc                   	int3   
   140017e5e:	cc                   	int3   
   140017e5f:	cc                   	int3   
   140017e60:	cc                   	int3   
   140017e61:	cc                   	int3   
   140017e62:	cc                   	int3   
   140017e63:	cc                   	int3   
   140017e64:	cc                   	int3   
   140017e65:	cc                   	int3   
   140017e66:	cc                   	int3   
   140017e67:	cc                   	int3   
   140017e68:	cc                   	int3   
   140017e69:	cc                   	int3   
   140017e6a:	cc                   	int3   
   140017e6b:	cc                   	int3   
   140017e6c:	cc                   	int3   
   140017e6d:	cc                   	int3   
   140017e6e:	cc                   	int3   
   140017e6f:	cc                   	int3   
   140017e70:	cc                   	int3   
   140017e71:	cc                   	int3   
   140017e72:	cc                   	int3   
   140017e73:	cc                   	int3   
   140017e74:	cc                   	int3   
   140017e75:	cc                   	int3   
   140017e76:	cc                   	int3   
   140017e77:	cc                   	int3   
   140017e78:	cc                   	int3   
   140017e79:	cc                   	int3   
   140017e7a:	cc                   	int3   
   140017e7b:	cc                   	int3   
   140017e7c:	cc                   	int3   
   140017e7d:	cc                   	int3   
   140017e7e:	cc                   	int3   
   140017e7f:	cc                   	int3   
   140017e80:	cc                   	int3   
   140017e81:	cc                   	int3   
   140017e82:	cc                   	int3   
   140017e83:	cc                   	int3   
   140017e84:	cc                   	int3   
   140017e85:	cc                   	int3   
   140017e86:	cc                   	int3   
   140017e87:	cc                   	int3   
   140017e88:	cc                   	int3   
   140017e89:	cc                   	int3   
   140017e8a:	cc                   	int3   
   140017e8b:	cc                   	int3   
   140017e8c:	cc                   	int3   
   140017e8d:	cc                   	int3   
   140017e8e:	cc                   	int3   
   140017e8f:	cc                   	int3   
   140017e90:	cc                   	int3   
   140017e91:	cc                   	int3   
   140017e92:	cc                   	int3   
   140017e93:	cc                   	int3   
   140017e94:	cc                   	int3   
   140017e95:	cc                   	int3   
   140017e96:	cc                   	int3   
   140017e97:	cc                   	int3   
   140017e98:	cc                   	int3   
   140017e99:	cc                   	int3   
   140017e9a:	cc                   	int3   
   140017e9b:	cc                   	int3   
   140017e9c:	cc                   	int3   
   140017e9d:	cc                   	int3   
   140017e9e:	cc                   	int3   
   140017e9f:	cc                   	int3   
   140017ea0:	cc                   	int3   
   140017ea1:	cc                   	int3   
   140017ea2:	cc                   	int3   
   140017ea3:	cc                   	int3   
   140017ea4:	cc                   	int3   
   140017ea5:	cc                   	int3   
   140017ea6:	cc                   	int3   
   140017ea7:	cc                   	int3   
   140017ea8:	cc                   	int3   
   140017ea9:	cc                   	int3   
   140017eaa:	cc                   	int3   
   140017eab:	cc                   	int3   
   140017eac:	cc                   	int3   
   140017ead:	cc                   	int3   
   140017eae:	cc                   	int3   
   140017eaf:	cc                   	int3   
   140017eb0:	cc                   	int3   
   140017eb1:	cc                   	int3   
   140017eb2:	cc                   	int3   
   140017eb3:	cc                   	int3   
   140017eb4:	cc                   	int3   
   140017eb5:	cc                   	int3   
   140017eb6:	cc                   	int3   
   140017eb7:	cc                   	int3   
   140017eb8:	cc                   	int3   
   140017eb9:	cc                   	int3   
   140017eba:	cc                   	int3   
   140017ebb:	cc                   	int3   
   140017ebc:	cc                   	int3   
   140017ebd:	cc                   	int3   
   140017ebe:	cc                   	int3   
   140017ebf:	cc                   	int3   
   140017ec0:	cc                   	int3   
   140017ec1:	cc                   	int3   
   140017ec2:	cc                   	int3   
   140017ec3:	cc                   	int3   
   140017ec4:	cc                   	int3   
   140017ec5:	cc                   	int3   
   140017ec6:	cc                   	int3   
   140017ec7:	cc                   	int3   
   140017ec8:	cc                   	int3   
   140017ec9:	cc                   	int3   
   140017eca:	cc                   	int3   
   140017ecb:	cc                   	int3   
   140017ecc:	cc                   	int3   
   140017ecd:	cc                   	int3   
   140017ece:	cc                   	int3   
   140017ecf:	cc                   	int3   
   140017ed0:	cc                   	int3   
   140017ed1:	cc                   	int3   
   140017ed2:	cc                   	int3   
   140017ed3:	cc                   	int3   
   140017ed4:	cc                   	int3   
   140017ed5:	cc                   	int3   
   140017ed6:	cc                   	int3   
   140017ed7:	cc                   	int3   
   140017ed8:	cc                   	int3   
   140017ed9:	cc                   	int3   
   140017eda:	cc                   	int3   
   140017edb:	cc                   	int3   
   140017edc:	cc                   	int3   
   140017edd:	cc                   	int3   
   140017ede:	cc                   	int3   
   140017edf:	cc                   	int3   
   140017ee0:	cc                   	int3   
   140017ee1:	cc                   	int3   
   140017ee2:	cc                   	int3   
   140017ee3:	cc                   	int3   
   140017ee4:	cc                   	int3   
   140017ee5:	cc                   	int3   
   140017ee6:	cc                   	int3   
   140017ee7:	cc                   	int3   
   140017ee8:	cc                   	int3   
   140017ee9:	cc                   	int3   
   140017eea:	cc                   	int3   
   140017eeb:	cc                   	int3   
   140017eec:	cc                   	int3   
   140017eed:	cc                   	int3   
   140017eee:	cc                   	int3   
   140017eef:	cc                   	int3   
   140017ef0:	cc                   	int3   
   140017ef1:	cc                   	int3   
   140017ef2:	cc                   	int3   
   140017ef3:	cc                   	int3   
   140017ef4:	cc                   	int3   
   140017ef5:	cc                   	int3   
   140017ef6:	cc                   	int3   
   140017ef7:	cc                   	int3   
   140017ef8:	cc                   	int3   
   140017ef9:	cc                   	int3   
   140017efa:	cc                   	int3   
   140017efb:	cc                   	int3   
   140017efc:	cc                   	int3   
   140017efd:	cc                   	int3   
   140017efe:	cc                   	int3   
   140017eff:	cc                   	int3   
   140017f00:	cc                   	int3   
   140017f01:	cc                   	int3   
   140017f02:	cc                   	int3   
   140017f03:	cc                   	int3   
   140017f04:	cc                   	int3   
   140017f05:	cc                   	int3   
   140017f06:	cc                   	int3   
   140017f07:	cc                   	int3   
   140017f08:	cc                   	int3   
   140017f09:	cc                   	int3   
   140017f0a:	cc                   	int3   
   140017f0b:	cc                   	int3   
   140017f0c:	cc                   	int3   
   140017f0d:	cc                   	int3   
   140017f0e:	cc                   	int3   
   140017f0f:	cc                   	int3   
   140017f10:	cc                   	int3   
   140017f11:	cc                   	int3   
   140017f12:	cc                   	int3   
   140017f13:	cc                   	int3   
   140017f14:	cc                   	int3   
   140017f15:	cc                   	int3   
   140017f16:	cc                   	int3   
   140017f17:	cc                   	int3   
   140017f18:	cc                   	int3   
   140017f19:	cc                   	int3   
   140017f1a:	cc                   	int3   
   140017f1b:	cc                   	int3   
   140017f1c:	cc                   	int3   
   140017f1d:	cc                   	int3   
   140017f1e:	cc                   	int3   
   140017f1f:	cc                   	int3   
   140017f20:	cc                   	int3   
   140017f21:	cc                   	int3   
   140017f22:	cc                   	int3   
   140017f23:	cc                   	int3   
   140017f24:	cc                   	int3   
   140017f25:	cc                   	int3   
   140017f26:	cc                   	int3   
   140017f27:	cc                   	int3   
   140017f28:	cc                   	int3   
   140017f29:	cc                   	int3   
   140017f2a:	cc                   	int3   
   140017f2b:	cc                   	int3   
   140017f2c:	cc                   	int3   
   140017f2d:	cc                   	int3   
   140017f2e:	cc                   	int3   
   140017f2f:	cc                   	int3   
   140017f30:	cc                   	int3   
   140017f31:	cc                   	int3   
   140017f32:	cc                   	int3   
   140017f33:	cc                   	int3   
   140017f34:	cc                   	int3   
   140017f35:	cc                   	int3   
   140017f36:	cc                   	int3   
   140017f37:	cc                   	int3   
   140017f38:	cc                   	int3   
   140017f39:	cc                   	int3   
   140017f3a:	cc                   	int3   
   140017f3b:	cc                   	int3   
   140017f3c:	cc                   	int3   
   140017f3d:	cc                   	int3   
   140017f3e:	cc                   	int3   
   140017f3f:	cc                   	int3   
   140017f40:	cc                   	int3   
   140017f41:	cc                   	int3   
   140017f42:	cc                   	int3   
   140017f43:	cc                   	int3   
   140017f44:	cc                   	int3   
   140017f45:	cc                   	int3   
   140017f46:	cc                   	int3   
   140017f47:	cc                   	int3   
   140017f48:	cc                   	int3   
   140017f49:	cc                   	int3   
   140017f4a:	cc                   	int3   
   140017f4b:	cc                   	int3   
   140017f4c:	cc                   	int3   
   140017f4d:	cc                   	int3   
   140017f4e:	cc                   	int3   
   140017f4f:	cc                   	int3   
   140017f50:	cc                   	int3   
   140017f51:	cc                   	int3   
   140017f52:	cc                   	int3   
   140017f53:	cc                   	int3   
   140017f54:	cc                   	int3   
   140017f55:	cc                   	int3   
   140017f56:	cc                   	int3   
   140017f57:	cc                   	int3   
   140017f58:	cc                   	int3   
   140017f59:	cc                   	int3   
   140017f5a:	cc                   	int3   
   140017f5b:	cc                   	int3   
   140017f5c:	cc                   	int3   
   140017f5d:	cc                   	int3   
   140017f5e:	cc                   	int3   
   140017f5f:	cc                   	int3   
   140017f60:	cc                   	int3   
   140017f61:	cc                   	int3   
   140017f62:	cc                   	int3   
   140017f63:	cc                   	int3   
   140017f64:	cc                   	int3   
   140017f65:	cc                   	int3   
   140017f66:	cc                   	int3   
   140017f67:	cc                   	int3   
   140017f68:	cc                   	int3   
   140017f69:	cc                   	int3   
   140017f6a:	cc                   	int3   
   140017f6b:	cc                   	int3   
   140017f6c:	cc                   	int3   
   140017f6d:	cc                   	int3   
   140017f6e:	cc                   	int3   
   140017f6f:	cc                   	int3   
   140017f70:	cc                   	int3   
   140017f71:	cc                   	int3   
   140017f72:	cc                   	int3   
   140017f73:	cc                   	int3   
   140017f74:	cc                   	int3   
   140017f75:	cc                   	int3   
   140017f76:	cc                   	int3   
   140017f77:	cc                   	int3   
   140017f78:	cc                   	int3   
   140017f79:	cc                   	int3   
   140017f7a:	cc                   	int3   
   140017f7b:	cc                   	int3   
   140017f7c:	cc                   	int3   
   140017f7d:	cc                   	int3   
   140017f7e:	cc                   	int3   
   140017f7f:	cc                   	int3   
   140017f80:	cc                   	int3   
   140017f81:	cc                   	int3   
   140017f82:	cc                   	int3   
   140017f83:	cc                   	int3   
   140017f84:	cc                   	int3   
   140017f85:	cc                   	int3   
   140017f86:	cc                   	int3   
   140017f87:	cc                   	int3   
   140017f88:	cc                   	int3   
   140017f89:	cc                   	int3   
   140017f8a:	cc                   	int3   
   140017f8b:	cc                   	int3   
   140017f8c:	cc                   	int3   
   140017f8d:	cc                   	int3   
   140017f8e:	cc                   	int3   
   140017f8f:	cc                   	int3   
   140017f90:	cc                   	int3   
   140017f91:	cc                   	int3   
   140017f92:	cc                   	int3   
   140017f93:	cc                   	int3   
   140017f94:	cc                   	int3   
   140017f95:	cc                   	int3   
   140017f96:	cc                   	int3   
   140017f97:	cc                   	int3   
   140017f98:	cc                   	int3   
   140017f99:	cc                   	int3   
   140017f9a:	cc                   	int3   
   140017f9b:	cc                   	int3   
   140017f9c:	cc                   	int3   
   140017f9d:	cc                   	int3   
   140017f9e:	cc                   	int3   
   140017f9f:	cc                   	int3   
   140017fa0:	cc                   	int3   
   140017fa1:	cc                   	int3   
   140017fa2:	cc                   	int3   
   140017fa3:	cc                   	int3   
   140017fa4:	cc                   	int3   
   140017fa5:	cc                   	int3   
   140017fa6:	cc                   	int3   
   140017fa7:	cc                   	int3   
   140017fa8:	cc                   	int3   
   140017fa9:	cc                   	int3   
   140017faa:	cc                   	int3   
   140017fab:	cc                   	int3   
   140017fac:	cc                   	int3   
   140017fad:	cc                   	int3   
   140017fae:	cc                   	int3   
   140017faf:	cc                   	int3   
   140017fb0:	cc                   	int3   
   140017fb1:	cc                   	int3   
   140017fb2:	cc                   	int3   
   140017fb3:	cc                   	int3   
   140017fb4:	cc                   	int3   
   140017fb5:	cc                   	int3   
   140017fb6:	cc                   	int3   
   140017fb7:	cc                   	int3   
   140017fb8:	cc                   	int3   
   140017fb9:	cc                   	int3   
   140017fba:	cc                   	int3   
   140017fbb:	cc                   	int3   
   140017fbc:	cc                   	int3   
   140017fbd:	cc                   	int3   
   140017fbe:	cc                   	int3   
   140017fbf:	cc                   	int3   
   140017fc0:	cc                   	int3   
   140017fc1:	cc                   	int3   
   140017fc2:	cc                   	int3   
   140017fc3:	cc                   	int3   
   140017fc4:	cc                   	int3   
   140017fc5:	cc                   	int3   
   140017fc6:	cc                   	int3   
   140017fc7:	cc                   	int3   
   140017fc8:	cc                   	int3   
   140017fc9:	cc                   	int3   
   140017fca:	cc                   	int3   
   140017fcb:	cc                   	int3   
   140017fcc:	cc                   	int3   
   140017fcd:	cc                   	int3   
   140017fce:	cc                   	int3   
   140017fcf:	cc                   	int3   
   140017fd0:	cc                   	int3   
   140017fd1:	cc                   	int3   
   140017fd2:	cc                   	int3   
   140017fd3:	cc                   	int3   
   140017fd4:	cc                   	int3   
   140017fd5:	cc                   	int3   
   140017fd6:	cc                   	int3   
   140017fd7:	cc                   	int3   
   140017fd8:	cc                   	int3   
   140017fd9:	cc                   	int3   
   140017fda:	cc                   	int3   
   140017fdb:	cc                   	int3   
   140017fdc:	cc                   	int3   
   140017fdd:	cc                   	int3   
   140017fde:	cc                   	int3   
   140017fdf:	cc                   	int3   
   140017fe0:	cc                   	int3   
   140017fe1:	cc                   	int3   
   140017fe2:	cc                   	int3   
   140017fe3:	cc                   	int3   
   140017fe4:	cc                   	int3   
   140017fe5:	cc                   	int3   
   140017fe6:	cc                   	int3   
   140017fe7:	cc                   	int3   
   140017fe8:	cc                   	int3   
   140017fe9:	cc                   	int3   
   140017fea:	cc                   	int3   
   140017feb:	cc                   	int3   
   140017fec:	cc                   	int3   
   140017fed:	cc                   	int3   
   140017fee:	cc                   	int3   
   140017fef:	cc                   	int3   
   140017ff0:	cc                   	int3   
   140017ff1:	cc                   	int3   
   140017ff2:	cc                   	int3   
   140017ff3:	cc                   	int3   
   140017ff4:	cc                   	int3   
   140017ff5:	cc                   	int3   
   140017ff6:	cc                   	int3   
   140017ff7:	cc                   	int3   
   140017ff8:	cc                   	int3   
   140017ff9:	cc                   	int3   
   140017ffa:	cc                   	int3   
   140017ffb:	cc                   	int3   
   140017ffc:	cc                   	int3   
   140017ffd:	cc                   	int3   
   140017ffe:	cc                   	int3   
   140017fff:	cc                   	int3   
   140018000:	cc                   	int3   
   140018001:	cc                   	int3   
   140018002:	cc                   	int3   
   140018003:	cc                   	int3   
   140018004:	cc                   	int3   
   140018005:	cc                   	int3   
   140018006:	cc                   	int3   
   140018007:	cc                   	int3   
   140018008:	cc                   	int3   
   140018009:	cc                   	int3   
   14001800a:	cc                   	int3   
   14001800b:	cc                   	int3   
   14001800c:	cc                   	int3   
   14001800d:	cc                   	int3   
   14001800e:	cc                   	int3   
   14001800f:	cc                   	int3   
   140018010:	cc                   	int3   
   140018011:	cc                   	int3   
   140018012:	cc                   	int3   
   140018013:	cc                   	int3   
   140018014:	cc                   	int3   
   140018015:	cc                   	int3   
   140018016:	cc                   	int3   
   140018017:	cc                   	int3   
   140018018:	cc                   	int3   
   140018019:	cc                   	int3   
   14001801a:	cc                   	int3   
   14001801b:	cc                   	int3   
   14001801c:	cc                   	int3   
   14001801d:	cc                   	int3   
   14001801e:	cc                   	int3   
   14001801f:	cc                   	int3   
   140018020:	cc                   	int3   
   140018021:	cc                   	int3   
   140018022:	cc                   	int3   
   140018023:	cc                   	int3   
   140018024:	cc                   	int3   
   140018025:	cc                   	int3   
   140018026:	cc                   	int3   
   140018027:	cc                   	int3   
   140018028:	cc                   	int3   
   140018029:	cc                   	int3   
   14001802a:	cc                   	int3   
   14001802b:	cc                   	int3   
   14001802c:	cc                   	int3   
   14001802d:	cc                   	int3   
   14001802e:	cc                   	int3   
   14001802f:	cc                   	int3   
   140018030:	cc                   	int3   
   140018031:	cc                   	int3   
   140018032:	cc                   	int3   
   140018033:	cc                   	int3   
   140018034:	cc                   	int3   
   140018035:	cc                   	int3   
   140018036:	cc                   	int3   
   140018037:	cc                   	int3   
   140018038:	cc                   	int3   
   140018039:	cc                   	int3   
   14001803a:	cc                   	int3   
   14001803b:	cc                   	int3   
   14001803c:	cc                   	int3   
   14001803d:	cc                   	int3   
   14001803e:	cc                   	int3   
   14001803f:	cc                   	int3   
   140018040:	cc                   	int3   
   140018041:	cc                   	int3   
   140018042:	cc                   	int3   
   140018043:	cc                   	int3   
   140018044:	cc                   	int3   
   140018045:	cc                   	int3   
   140018046:	cc                   	int3   
   140018047:	cc                   	int3   
   140018048:	cc                   	int3   
   140018049:	cc                   	int3   
   14001804a:	cc                   	int3   
   14001804b:	cc                   	int3   
   14001804c:	cc                   	int3   
   14001804d:	cc                   	int3   
   14001804e:	cc                   	int3   
   14001804f:	cc                   	int3   
   140018050:	cc                   	int3   
   140018051:	cc                   	int3   
   140018052:	cc                   	int3   
   140018053:	cc                   	int3   
   140018054:	cc                   	int3   
   140018055:	cc                   	int3   
   140018056:	cc                   	int3   
   140018057:	cc                   	int3   
   140018058:	cc                   	int3   
   140018059:	cc                   	int3   
   14001805a:	cc                   	int3   
   14001805b:	cc                   	int3   
   14001805c:	cc                   	int3   
   14001805d:	cc                   	int3   
   14001805e:	cc                   	int3   
   14001805f:	cc                   	int3   
   140018060:	cc                   	int3   
   140018061:	cc                   	int3   
   140018062:	cc                   	int3   
   140018063:	cc                   	int3   
   140018064:	cc                   	int3   
   140018065:	cc                   	int3   
   140018066:	cc                   	int3   
   140018067:	cc                   	int3   
   140018068:	cc                   	int3   
   140018069:	cc                   	int3   
   14001806a:	cc                   	int3   
   14001806b:	cc                   	int3   
   14001806c:	cc                   	int3   
   14001806d:	cc                   	int3   
   14001806e:	cc                   	int3   
   14001806f:	cc                   	int3   
   140018070:	cc                   	int3   
   140018071:	cc                   	int3   
   140018072:	cc                   	int3   
   140018073:	cc                   	int3   
   140018074:	cc                   	int3   
   140018075:	cc                   	int3   
   140018076:	cc                   	int3   
   140018077:	cc                   	int3   
   140018078:	cc                   	int3   
   140018079:	cc                   	int3   
   14001807a:	cc                   	int3   
   14001807b:	cc                   	int3   
   14001807c:	cc                   	int3   
   14001807d:	cc                   	int3   
   14001807e:	cc                   	int3   
   14001807f:	cc                   	int3   
   140018080:	cc                   	int3   
   140018081:	cc                   	int3   
   140018082:	cc                   	int3   
   140018083:	cc                   	int3   
   140018084:	cc                   	int3   
   140018085:	cc                   	int3   
   140018086:	cc                   	int3   
   140018087:	cc                   	int3   
   140018088:	cc                   	int3   
   140018089:	cc                   	int3   
   14001808a:	cc                   	int3   
   14001808b:	cc                   	int3   
   14001808c:	cc                   	int3   
   14001808d:	cc                   	int3   
   14001808e:	cc                   	int3   
   14001808f:	cc                   	int3   
   140018090:	cc                   	int3   
   140018091:	cc                   	int3   
   140018092:	cc                   	int3   
   140018093:	cc                   	int3   
   140018094:	cc                   	int3   
   140018095:	cc                   	int3   
   140018096:	cc                   	int3   
   140018097:	cc                   	int3   
   140018098:	cc                   	int3   
   140018099:	cc                   	int3   
   14001809a:	cc                   	int3   
   14001809b:	cc                   	int3   
   14001809c:	cc                   	int3   
   14001809d:	cc                   	int3   
   14001809e:	cc                   	int3   
   14001809f:	cc                   	int3   
   1400180a0:	cc                   	int3   
   1400180a1:	cc                   	int3   
   1400180a2:	cc                   	int3   
   1400180a3:	cc                   	int3   
   1400180a4:	cc                   	int3   
   1400180a5:	cc                   	int3   
   1400180a6:	cc                   	int3   
   1400180a7:	cc                   	int3   
   1400180a8:	cc                   	int3   
   1400180a9:	cc                   	int3   
   1400180aa:	cc                   	int3   
   1400180ab:	cc                   	int3   
   1400180ac:	cc                   	int3   
   1400180ad:	cc                   	int3   
   1400180ae:	cc                   	int3   
   1400180af:	cc                   	int3   
   1400180b0:	cc                   	int3   
   1400180b1:	cc                   	int3   
   1400180b2:	cc                   	int3   
   1400180b3:	cc                   	int3   
   1400180b4:	cc                   	int3   
   1400180b5:	cc                   	int3   
   1400180b6:	cc                   	int3   
   1400180b7:	cc                   	int3   
   1400180b8:	cc                   	int3   
   1400180b9:	cc                   	int3   
   1400180ba:	cc                   	int3   
   1400180bb:	cc                   	int3   
   1400180bc:	cc                   	int3   
   1400180bd:	cc                   	int3   
   1400180be:	cc                   	int3   
   1400180bf:	cc                   	int3   
   1400180c0:	cc                   	int3   
   1400180c1:	cc                   	int3   
   1400180c2:	cc                   	int3   
   1400180c3:	cc                   	int3   
   1400180c4:	cc                   	int3   
   1400180c5:	cc                   	int3   
   1400180c6:	cc                   	int3   
   1400180c7:	cc                   	int3   
   1400180c8:	cc                   	int3   
   1400180c9:	cc                   	int3   
   1400180ca:	cc                   	int3   
   1400180cb:	cc                   	int3   
   1400180cc:	cc                   	int3   
   1400180cd:	cc                   	int3   
   1400180ce:	cc                   	int3   
   1400180cf:	cc                   	int3   
   1400180d0:	cc                   	int3   
   1400180d1:	cc                   	int3   
   1400180d2:	cc                   	int3   
   1400180d3:	cc                   	int3   
   1400180d4:	cc                   	int3   
   1400180d5:	cc                   	int3   
   1400180d6:	cc                   	int3   
   1400180d7:	cc                   	int3   
   1400180d8:	cc                   	int3   
   1400180d9:	cc                   	int3   
   1400180da:	cc                   	int3   
   1400180db:	cc                   	int3   
   1400180dc:	cc                   	int3   
   1400180dd:	cc                   	int3   
   1400180de:	cc                   	int3   
   1400180df:	cc                   	int3   
   1400180e0:	cc                   	int3   
   1400180e1:	cc                   	int3   
   1400180e2:	cc                   	int3   
   1400180e3:	cc                   	int3   
   1400180e4:	cc                   	int3   
   1400180e5:	cc                   	int3   
   1400180e6:	cc                   	int3   
   1400180e7:	cc                   	int3   
   1400180e8:	cc                   	int3   
   1400180e9:	cc                   	int3   
   1400180ea:	cc                   	int3   
   1400180eb:	cc                   	int3   
   1400180ec:	cc                   	int3   
   1400180ed:	cc                   	int3   
   1400180ee:	cc                   	int3   
   1400180ef:	cc                   	int3   
   1400180f0:	cc                   	int3   
   1400180f1:	cc                   	int3   
   1400180f2:	cc                   	int3   
   1400180f3:	cc                   	int3   
   1400180f4:	cc                   	int3   
   1400180f5:	cc                   	int3   
   1400180f6:	cc                   	int3   
   1400180f7:	cc                   	int3   
   1400180f8:	cc                   	int3   
   1400180f9:	cc                   	int3   
   1400180fa:	cc                   	int3   
   1400180fb:	cc                   	int3   
   1400180fc:	cc                   	int3   
   1400180fd:	cc                   	int3   
   1400180fe:	cc                   	int3   
   1400180ff:	cc                   	int3   
   140018100:	cc                   	int3   
   140018101:	cc                   	int3   
   140018102:	cc                   	int3   
   140018103:	cc                   	int3   
   140018104:	cc                   	int3   
   140018105:	cc                   	int3   
   140018106:	cc                   	int3   
   140018107:	cc                   	int3   
   140018108:	cc                   	int3   
   140018109:	cc                   	int3   
   14001810a:	cc                   	int3   
   14001810b:	cc                   	int3   
   14001810c:	cc                   	int3   
   14001810d:	cc                   	int3   
   14001810e:	cc                   	int3   
   14001810f:	cc                   	int3   
   140018110:	cc                   	int3   
   140018111:	cc                   	int3   
   140018112:	cc                   	int3   
   140018113:	cc                   	int3   
   140018114:	cc                   	int3   
   140018115:	cc                   	int3   
   140018116:	cc                   	int3   
   140018117:	cc                   	int3   
   140018118:	cc                   	int3   
   140018119:	cc                   	int3   
   14001811a:	cc                   	int3   
   14001811b:	cc                   	int3   
   14001811c:	cc                   	int3   
   14001811d:	cc                   	int3   
   14001811e:	cc                   	int3   
   14001811f:	cc                   	int3   
   140018120:	cc                   	int3   
   140018121:	cc                   	int3   
   140018122:	cc                   	int3   
   140018123:	cc                   	int3   
   140018124:	cc                   	int3   
   140018125:	cc                   	int3   
   140018126:	cc                   	int3   
   140018127:	cc                   	int3   
   140018128:	cc                   	int3   
   140018129:	cc                   	int3   
   14001812a:	cc                   	int3   
   14001812b:	cc                   	int3   
   14001812c:	cc                   	int3   
   14001812d:	cc                   	int3   
   14001812e:	cc                   	int3   
   14001812f:	cc                   	int3   
   140018130:	cc                   	int3   
   140018131:	cc                   	int3   
   140018132:	cc                   	int3   
   140018133:	cc                   	int3   
   140018134:	cc                   	int3   
   140018135:	cc                   	int3   
   140018136:	cc                   	int3   
   140018137:	cc                   	int3   
   140018138:	cc                   	int3   
   140018139:	cc                   	int3   
   14001813a:	cc                   	int3   
   14001813b:	cc                   	int3   
   14001813c:	cc                   	int3   
   14001813d:	cc                   	int3   
   14001813e:	cc                   	int3   
   14001813f:	cc                   	int3   
   140018140:	cc                   	int3   
   140018141:	cc                   	int3   
   140018142:	cc                   	int3   
   140018143:	cc                   	int3   
   140018144:	cc                   	int3   
   140018145:	cc                   	int3   
   140018146:	cc                   	int3   
   140018147:	cc                   	int3   
   140018148:	cc                   	int3   
   140018149:	cc                   	int3   
   14001814a:	cc                   	int3   
   14001814b:	cc                   	int3   
   14001814c:	cc                   	int3   
   14001814d:	cc                   	int3   
   14001814e:	cc                   	int3   
   14001814f:	cc                   	int3   
   140018150:	cc                   	int3   
   140018151:	cc                   	int3   
   140018152:	cc                   	int3   
   140018153:	cc                   	int3   
   140018154:	cc                   	int3   
   140018155:	cc                   	int3   
   140018156:	cc                   	int3   
   140018157:	cc                   	int3   
   140018158:	cc                   	int3   
   140018159:	cc                   	int3   
   14001815a:	cc                   	int3   
   14001815b:	cc                   	int3   
   14001815c:	cc                   	int3   
   14001815d:	cc                   	int3   
   14001815e:	cc                   	int3   
   14001815f:	cc                   	int3   
   140018160:	cc                   	int3   
   140018161:	cc                   	int3   
   140018162:	cc                   	int3   
   140018163:	cc                   	int3   
   140018164:	cc                   	int3   
   140018165:	cc                   	int3   
   140018166:	cc                   	int3   
   140018167:	cc                   	int3   
   140018168:	cc                   	int3   
   140018169:	cc                   	int3   
   14001816a:	cc                   	int3   
   14001816b:	cc                   	int3   
   14001816c:	cc                   	int3   
   14001816d:	cc                   	int3   
   14001816e:	cc                   	int3   
   14001816f:	cc                   	int3   
   140018170:	cc                   	int3   
   140018171:	cc                   	int3   
   140018172:	cc                   	int3   
   140018173:	cc                   	int3   
   140018174:	cc                   	int3   
   140018175:	cc                   	int3   
   140018176:	cc                   	int3   
   140018177:	cc                   	int3   
   140018178:	cc                   	int3   
   140018179:	cc                   	int3   
   14001817a:	cc                   	int3   
   14001817b:	cc                   	int3   
   14001817c:	cc                   	int3   
   14001817d:	cc                   	int3   
   14001817e:	cc                   	int3   
   14001817f:	cc                   	int3   
   140018180:	cc                   	int3   
   140018181:	cc                   	int3   
   140018182:	cc                   	int3   
   140018183:	cc                   	int3   
   140018184:	cc                   	int3   
   140018185:	cc                   	int3   
   140018186:	cc                   	int3   
   140018187:	cc                   	int3   
   140018188:	cc                   	int3   
   140018189:	cc                   	int3   
   14001818a:	cc                   	int3   
   14001818b:	cc                   	int3   
   14001818c:	cc                   	int3   
   14001818d:	cc                   	int3   
   14001818e:	cc                   	int3   
   14001818f:	cc                   	int3   
   140018190:	cc                   	int3   
   140018191:	cc                   	int3   
   140018192:	cc                   	int3   
   140018193:	cc                   	int3   
   140018194:	cc                   	int3   
   140018195:	cc                   	int3   
   140018196:	cc                   	int3   
   140018197:	cc                   	int3   
   140018198:	cc                   	int3   
   140018199:	cc                   	int3   
   14001819a:	cc                   	int3   
   14001819b:	cc                   	int3   
   14001819c:	cc                   	int3   
   14001819d:	cc                   	int3   
   14001819e:	cc                   	int3   
   14001819f:	cc                   	int3   
   1400181a0:	cc                   	int3   
   1400181a1:	cc                   	int3   
   1400181a2:	cc                   	int3   
   1400181a3:	cc                   	int3   
   1400181a4:	cc                   	int3   
   1400181a5:	cc                   	int3   
   1400181a6:	cc                   	int3   
   1400181a7:	cc                   	int3   
   1400181a8:	cc                   	int3   
   1400181a9:	cc                   	int3   
   1400181aa:	cc                   	int3   
   1400181ab:	cc                   	int3   
   1400181ac:	cc                   	int3   
   1400181ad:	cc                   	int3   
   1400181ae:	cc                   	int3   
   1400181af:	cc                   	int3   
   1400181b0:	cc                   	int3   
   1400181b1:	cc                   	int3   
   1400181b2:	cc                   	int3   
   1400181b3:	cc                   	int3   
   1400181b4:	cc                   	int3   
   1400181b5:	cc                   	int3   
   1400181b6:	cc                   	int3   
   1400181b7:	cc                   	int3   
   1400181b8:	cc                   	int3   
   1400181b9:	cc                   	int3   
   1400181ba:	cc                   	int3   
   1400181bb:	cc                   	int3   
   1400181bc:	cc                   	int3   
   1400181bd:	cc                   	int3   
   1400181be:	cc                   	int3   
   1400181bf:	cc                   	int3   
   1400181c0:	cc                   	int3   
   1400181c1:	cc                   	int3   
   1400181c2:	cc                   	int3   
   1400181c3:	cc                   	int3   
   1400181c4:	cc                   	int3   
   1400181c5:	cc                   	int3   
   1400181c6:	cc                   	int3   
   1400181c7:	cc                   	int3   
   1400181c8:	cc                   	int3   
   1400181c9:	cc                   	int3   
   1400181ca:	cc                   	int3   
   1400181cb:	cc                   	int3   
   1400181cc:	cc                   	int3   
   1400181cd:	cc                   	int3   
   1400181ce:	cc                   	int3   
   1400181cf:	cc                   	int3   
   1400181d0:	cc                   	int3   
   1400181d1:	cc                   	int3   
   1400181d2:	cc                   	int3   
   1400181d3:	cc                   	int3   
   1400181d4:	cc                   	int3   
   1400181d5:	cc                   	int3   
   1400181d6:	cc                   	int3   
   1400181d7:	cc                   	int3   
   1400181d8:	cc                   	int3   
   1400181d9:	cc                   	int3   
   1400181da:	cc                   	int3   
   1400181db:	cc                   	int3   
   1400181dc:	cc                   	int3   
   1400181dd:	cc                   	int3   
   1400181de:	cc                   	int3   
   1400181df:	cc                   	int3   
   1400181e0:	cc                   	int3   
   1400181e1:	cc                   	int3   
   1400181e2:	cc                   	int3   
   1400181e3:	cc                   	int3   
   1400181e4:	cc                   	int3   
   1400181e5:	cc                   	int3   
   1400181e6:	cc                   	int3   
   1400181e7:	cc                   	int3   
   1400181e8:	cc                   	int3   
   1400181e9:	cc                   	int3   
   1400181ea:	cc                   	int3   
   1400181eb:	cc                   	int3   
   1400181ec:	cc                   	int3   
   1400181ed:	cc                   	int3   
   1400181ee:	cc                   	int3   
   1400181ef:	cc                   	int3   
   1400181f0:	cc                   	int3   
   1400181f1:	cc                   	int3   
   1400181f2:	cc                   	int3   
   1400181f3:	cc                   	int3   
   1400181f4:	cc                   	int3   
   1400181f5:	cc                   	int3   
   1400181f6:	cc                   	int3   
   1400181f7:	cc                   	int3   
   1400181f8:	cc                   	int3   
   1400181f9:	cc                   	int3   
   1400181fa:	cc                   	int3   
   1400181fb:	cc                   	int3   
   1400181fc:	cc                   	int3   
   1400181fd:	cc                   	int3   
   1400181fe:	cc                   	int3   
   1400181ff:	cc                   	int3   
   140018200:	cc                   	int3   
   140018201:	cc                   	int3   
   140018202:	cc                   	int3   
   140018203:	cc                   	int3   
   140018204:	cc                   	int3   
   140018205:	cc                   	int3   
   140018206:	cc                   	int3   
   140018207:	cc                   	int3   
   140018208:	cc                   	int3   
   140018209:	cc                   	int3   
   14001820a:	cc                   	int3   
   14001820b:	cc                   	int3   
   14001820c:	cc                   	int3   
   14001820d:	cc                   	int3   
   14001820e:	cc                   	int3   
   14001820f:	cc                   	int3   
   140018210:	cc                   	int3   
   140018211:	cc                   	int3   
   140018212:	cc                   	int3   
   140018213:	cc                   	int3   
   140018214:	cc                   	int3   
   140018215:	cc                   	int3   
   140018216:	cc                   	int3   
   140018217:	cc                   	int3   
   140018218:	cc                   	int3   
   140018219:	cc                   	int3   
   14001821a:	cc                   	int3   
   14001821b:	cc                   	int3   
   14001821c:	cc                   	int3   
   14001821d:	cc                   	int3   
   14001821e:	cc                   	int3   
   14001821f:	cc                   	int3   
   140018220:	cc                   	int3   
   140018221:	cc                   	int3   
   140018222:	cc                   	int3   
   140018223:	cc                   	int3   
   140018224:	cc                   	int3   
   140018225:	cc                   	int3   
   140018226:	cc                   	int3   
   140018227:	cc                   	int3   
   140018228:	cc                   	int3   
   140018229:	cc                   	int3   
   14001822a:	cc                   	int3   
   14001822b:	cc                   	int3   
   14001822c:	cc                   	int3   
   14001822d:	cc                   	int3   
   14001822e:	cc                   	int3   
   14001822f:	cc                   	int3   
   140018230:	cc                   	int3   
   140018231:	cc                   	int3   
   140018232:	cc                   	int3   
   140018233:	cc                   	int3   
   140018234:	cc                   	int3   
   140018235:	cc                   	int3   
   140018236:	cc                   	int3   
   140018237:	cc                   	int3   
   140018238:	cc                   	int3   
   140018239:	cc                   	int3   
   14001823a:	cc                   	int3   
   14001823b:	cc                   	int3   
   14001823c:	cc                   	int3   
   14001823d:	cc                   	int3   
   14001823e:	cc                   	int3   
   14001823f:	cc                   	int3   
   140018240:	cc                   	int3   
   140018241:	cc                   	int3   
   140018242:	cc                   	int3   
   140018243:	cc                   	int3   
   140018244:	cc                   	int3   
   140018245:	cc                   	int3   
   140018246:	cc                   	int3   
   140018247:	cc                   	int3   
   140018248:	cc                   	int3   
   140018249:	cc                   	int3   
   14001824a:	cc                   	int3   
   14001824b:	cc                   	int3   
   14001824c:	cc                   	int3   
   14001824d:	cc                   	int3   
   14001824e:	cc                   	int3   
   14001824f:	cc                   	int3   
   140018250:	cc                   	int3   
   140018251:	cc                   	int3   
   140018252:	cc                   	int3   
   140018253:	cc                   	int3   
   140018254:	cc                   	int3   
   140018255:	cc                   	int3   
   140018256:	cc                   	int3   
   140018257:	cc                   	int3   
   140018258:	cc                   	int3   
   140018259:	cc                   	int3   
   14001825a:	cc                   	int3   
   14001825b:	cc                   	int3   
   14001825c:	cc                   	int3   
   14001825d:	cc                   	int3   
   14001825e:	cc                   	int3   
   14001825f:	cc                   	int3   
   140018260:	cc                   	int3   
   140018261:	cc                   	int3   
   140018262:	cc                   	int3   
   140018263:	cc                   	int3   
   140018264:	cc                   	int3   
   140018265:	cc                   	int3   
   140018266:	cc                   	int3   
   140018267:	cc                   	int3   
   140018268:	cc                   	int3   
   140018269:	cc                   	int3   
   14001826a:	cc                   	int3   
   14001826b:	cc                   	int3   
   14001826c:	cc                   	int3   
   14001826d:	cc                   	int3   
   14001826e:	cc                   	int3   
   14001826f:	cc                   	int3   
   140018270:	cc                   	int3   
   140018271:	cc                   	int3   
   140018272:	cc                   	int3   
   140018273:	cc                   	int3   
   140018274:	cc                   	int3   
   140018275:	cc                   	int3   
   140018276:	cc                   	int3   
   140018277:	cc                   	int3   
   140018278:	cc                   	int3   
   140018279:	cc                   	int3   
   14001827a:	cc                   	int3   
   14001827b:	cc                   	int3   
   14001827c:	cc                   	int3   
   14001827d:	cc                   	int3   
   14001827e:	cc                   	int3   
   14001827f:	cc                   	int3   
   140018280:	cc                   	int3   
   140018281:	cc                   	int3   
   140018282:	cc                   	int3   
   140018283:	cc                   	int3   
   140018284:	cc                   	int3   
   140018285:	cc                   	int3   
   140018286:	cc                   	int3   
   140018287:	cc                   	int3   
   140018288:	cc                   	int3   
   140018289:	cc                   	int3   
   14001828a:	cc                   	int3   
   14001828b:	cc                   	int3   
   14001828c:	cc                   	int3   
   14001828d:	cc                   	int3   
   14001828e:	cc                   	int3   
   14001828f:	cc                   	int3   
   140018290:	cc                   	int3   
   140018291:	cc                   	int3   
   140018292:	cc                   	int3   
   140018293:	cc                   	int3   
   140018294:	cc                   	int3   
   140018295:	cc                   	int3   
   140018296:	cc                   	int3   
   140018297:	cc                   	int3   
   140018298:	cc                   	int3   
   140018299:	cc                   	int3   
   14001829a:	cc                   	int3   
   14001829b:	cc                   	int3   
   14001829c:	cc                   	int3   
   14001829d:	cc                   	int3   
   14001829e:	cc                   	int3   
   14001829f:	cc                   	int3   
   1400182a0:	cc                   	int3   
   1400182a1:	cc                   	int3   
   1400182a2:	cc                   	int3   
   1400182a3:	cc                   	int3   
   1400182a4:	cc                   	int3   
   1400182a5:	cc                   	int3   
   1400182a6:	cc                   	int3   
   1400182a7:	cc                   	int3   
   1400182a8:	cc                   	int3   
   1400182a9:	cc                   	int3   
   1400182aa:	cc                   	int3   
   1400182ab:	cc                   	int3   
   1400182ac:	cc                   	int3   
   1400182ad:	cc                   	int3   
   1400182ae:	cc                   	int3   
   1400182af:	cc                   	int3   
   1400182b0:	cc                   	int3   
   1400182b1:	cc                   	int3   
   1400182b2:	cc                   	int3   
   1400182b3:	cc                   	int3   
   1400182b4:	cc                   	int3   
   1400182b5:	cc                   	int3   
   1400182b6:	cc                   	int3   
   1400182b7:	cc                   	int3   
   1400182b8:	cc                   	int3   
   1400182b9:	cc                   	int3   
   1400182ba:	cc                   	int3   
   1400182bb:	cc                   	int3   
   1400182bc:	cc                   	int3   
   1400182bd:	cc                   	int3   
   1400182be:	cc                   	int3   
   1400182bf:	cc                   	int3   
   1400182c0:	cc                   	int3   
   1400182c1:	cc                   	int3   
   1400182c2:	cc                   	int3   
   1400182c3:	cc                   	int3   
   1400182c4:	cc                   	int3   
   1400182c5:	cc                   	int3   
   1400182c6:	cc                   	int3   
   1400182c7:	cc                   	int3   
   1400182c8:	cc                   	int3   
   1400182c9:	cc                   	int3   
   1400182ca:	cc                   	int3   
   1400182cb:	cc                   	int3   
   1400182cc:	cc                   	int3   
   1400182cd:	cc                   	int3   
   1400182ce:	cc                   	int3   
   1400182cf:	cc                   	int3   
   1400182d0:	cc                   	int3   
   1400182d1:	cc                   	int3   
   1400182d2:	cc                   	int3   
   1400182d3:	cc                   	int3   
   1400182d4:	cc                   	int3   
   1400182d5:	cc                   	int3   
   1400182d6:	cc                   	int3   
   1400182d7:	cc                   	int3   
   1400182d8:	cc                   	int3   
   1400182d9:	cc                   	int3   
   1400182da:	cc                   	int3   
   1400182db:	cc                   	int3   
   1400182dc:	cc                   	int3   
   1400182dd:	cc                   	int3   
   1400182de:	cc                   	int3   
   1400182df:	cc                   	int3   
   1400182e0:	cc                   	int3   
   1400182e1:	cc                   	int3   
   1400182e2:	cc                   	int3   
   1400182e3:	cc                   	int3   
   1400182e4:	cc                   	int3   
   1400182e5:	cc                   	int3   
   1400182e6:	cc                   	int3   
   1400182e7:	cc                   	int3   
   1400182e8:	cc                   	int3   
   1400182e9:	cc                   	int3   
   1400182ea:	cc                   	int3   
   1400182eb:	cc                   	int3   
   1400182ec:	cc                   	int3   
   1400182ed:	cc                   	int3   
   1400182ee:	cc                   	int3   
   1400182ef:	cc                   	int3   
   1400182f0:	cc                   	int3   
   1400182f1:	cc                   	int3   
   1400182f2:	cc                   	int3   
   1400182f3:	cc                   	int3   
   1400182f4:	cc                   	int3   
   1400182f5:	cc                   	int3   
   1400182f6:	cc                   	int3   
   1400182f7:	cc                   	int3   
   1400182f8:	cc                   	int3   
   1400182f9:	cc                   	int3   
   1400182fa:	cc                   	int3   
   1400182fb:	cc                   	int3   
   1400182fc:	cc                   	int3   
   1400182fd:	cc                   	int3   
   1400182fe:	cc                   	int3   
   1400182ff:	cc                   	int3   
   140018300:	cc                   	int3   
   140018301:	cc                   	int3   
   140018302:	cc                   	int3   
   140018303:	cc                   	int3   
   140018304:	cc                   	int3   
   140018305:	cc                   	int3   
   140018306:	cc                   	int3   
   140018307:	cc                   	int3   
   140018308:	cc                   	int3   
   140018309:	cc                   	int3   
   14001830a:	cc                   	int3   
   14001830b:	cc                   	int3   
   14001830c:	cc                   	int3   
   14001830d:	cc                   	int3   
   14001830e:	cc                   	int3   
   14001830f:	cc                   	int3   
   140018310:	cc                   	int3   
   140018311:	cc                   	int3   
   140018312:	cc                   	int3   
   140018313:	cc                   	int3   
   140018314:	cc                   	int3   
   140018315:	cc                   	int3   
   140018316:	cc                   	int3   
   140018317:	cc                   	int3   
   140018318:	cc                   	int3   
   140018319:	cc                   	int3   
   14001831a:	cc                   	int3   
   14001831b:	cc                   	int3   
   14001831c:	cc                   	int3   
   14001831d:	cc                   	int3   
   14001831e:	cc                   	int3   
   14001831f:	cc                   	int3   
   140018320:	cc                   	int3   
   140018321:	cc                   	int3   
   140018322:	cc                   	int3   
   140018323:	cc                   	int3   
   140018324:	cc                   	int3   
   140018325:	cc                   	int3   
   140018326:	cc                   	int3   
   140018327:	cc                   	int3   
   140018328:	cc                   	int3   
   140018329:	cc                   	int3   
   14001832a:	cc                   	int3   
   14001832b:	cc                   	int3   
   14001832c:	cc                   	int3   
   14001832d:	cc                   	int3   
   14001832e:	cc                   	int3   
   14001832f:	cc                   	int3   
   140018330:	cc                   	int3   
   140018331:	cc                   	int3   
   140018332:	cc                   	int3   
   140018333:	cc                   	int3   
   140018334:	cc                   	int3   
   140018335:	cc                   	int3   
   140018336:	cc                   	int3   
   140018337:	cc                   	int3   
   140018338:	cc                   	int3   
   140018339:	cc                   	int3   
   14001833a:	cc                   	int3   
   14001833b:	cc                   	int3   
   14001833c:	cc                   	int3   
   14001833d:	cc                   	int3   
   14001833e:	cc                   	int3   
   14001833f:	cc                   	int3   
   140018340:	cc                   	int3   
   140018341:	cc                   	int3   
   140018342:	cc                   	int3   
   140018343:	cc                   	int3   
   140018344:	cc                   	int3   
   140018345:	cc                   	int3   
   140018346:	cc                   	int3   
   140018347:	cc                   	int3   
   140018348:	cc                   	int3   
   140018349:	cc                   	int3   
   14001834a:	cc                   	int3   
   14001834b:	cc                   	int3   
   14001834c:	cc                   	int3   
   14001834d:	cc                   	int3   
   14001834e:	cc                   	int3   
   14001834f:	cc                   	int3   
   140018350:	cc                   	int3   
   140018351:	cc                   	int3   
   140018352:	cc                   	int3   
   140018353:	cc                   	int3   
   140018354:	cc                   	int3   
   140018355:	cc                   	int3   
   140018356:	cc                   	int3   
   140018357:	cc                   	int3   
   140018358:	cc                   	int3   
   140018359:	cc                   	int3   
   14001835a:	cc                   	int3   
   14001835b:	cc                   	int3   
   14001835c:	cc                   	int3   
   14001835d:	cc                   	int3   
   14001835e:	cc                   	int3   
   14001835f:	cc                   	int3   
   140018360:	cc                   	int3   
   140018361:	cc                   	int3   
   140018362:	cc                   	int3   
   140018363:	cc                   	int3   
   140018364:	cc                   	int3   
   140018365:	cc                   	int3   
   140018366:	cc                   	int3   
   140018367:	cc                   	int3   
   140018368:	cc                   	int3   
   140018369:	cc                   	int3   
   14001836a:	cc                   	int3   
   14001836b:	cc                   	int3   
   14001836c:	cc                   	int3   
   14001836d:	cc                   	int3   
   14001836e:	cc                   	int3   
   14001836f:	cc                   	int3   
   140018370:	cc                   	int3   
   140018371:	cc                   	int3   
   140018372:	cc                   	int3   
   140018373:	cc                   	int3   
   140018374:	cc                   	int3   
   140018375:	cc                   	int3   
   140018376:	cc                   	int3   
   140018377:	cc                   	int3   
   140018378:	cc                   	int3   
   140018379:	cc                   	int3   
   14001837a:	cc                   	int3   
   14001837b:	cc                   	int3   
   14001837c:	cc                   	int3   
   14001837d:	cc                   	int3   
   14001837e:	cc                   	int3   
   14001837f:	cc                   	int3   
   140018380:	cc                   	int3   
   140018381:	cc                   	int3   
   140018382:	cc                   	int3   
   140018383:	cc                   	int3   
   140018384:	cc                   	int3   
   140018385:	cc                   	int3   
   140018386:	cc                   	int3   
   140018387:	cc                   	int3   
   140018388:	cc                   	int3   
   140018389:	cc                   	int3   
   14001838a:	cc                   	int3   
   14001838b:	cc                   	int3   
   14001838c:	cc                   	int3   
   14001838d:	cc                   	int3   
   14001838e:	cc                   	int3   
   14001838f:	cc                   	int3   
   140018390:	cc                   	int3   
   140018391:	cc                   	int3   
   140018392:	cc                   	int3   
   140018393:	cc                   	int3   
   140018394:	cc                   	int3   
   140018395:	cc                   	int3   
   140018396:	cc                   	int3   
   140018397:	cc                   	int3   
   140018398:	cc                   	int3   
   140018399:	cc                   	int3   
   14001839a:	cc                   	int3   
   14001839b:	cc                   	int3   
   14001839c:	cc                   	int3   
   14001839d:	cc                   	int3   
   14001839e:	cc                   	int3   
   14001839f:	cc                   	int3   
   1400183a0:	cc                   	int3   
   1400183a1:	cc                   	int3   
   1400183a2:	cc                   	int3   
   1400183a3:	cc                   	int3   
   1400183a4:	cc                   	int3   
   1400183a5:	cc                   	int3   
   1400183a6:	cc                   	int3   
   1400183a7:	cc                   	int3   
   1400183a8:	cc                   	int3   
   1400183a9:	cc                   	int3   
   1400183aa:	cc                   	int3   
   1400183ab:	cc                   	int3   
   1400183ac:	cc                   	int3   
   1400183ad:	cc                   	int3   
   1400183ae:	cc                   	int3   
   1400183af:	cc                   	int3   
   1400183b0:	cc                   	int3   
   1400183b1:	cc                   	int3   
   1400183b2:	cc                   	int3   
   1400183b3:	cc                   	int3   
   1400183b4:	cc                   	int3   
   1400183b5:	cc                   	int3   
   1400183b6:	cc                   	int3   
   1400183b7:	cc                   	int3   
   1400183b8:	cc                   	int3   
   1400183b9:	cc                   	int3   
   1400183ba:	cc                   	int3   
   1400183bb:	cc                   	int3   
   1400183bc:	cc                   	int3   
   1400183bd:	cc                   	int3   
   1400183be:	cc                   	int3   
   1400183bf:	cc                   	int3   
   1400183c0:	cc                   	int3   
   1400183c1:	cc                   	int3   
   1400183c2:	cc                   	int3   
   1400183c3:	cc                   	int3   
   1400183c4:	cc                   	int3   
   1400183c5:	cc                   	int3   
   1400183c6:	cc                   	int3   
   1400183c7:	cc                   	int3   
   1400183c8:	cc                   	int3   
   1400183c9:	cc                   	int3   
   1400183ca:	cc                   	int3   
   1400183cb:	cc                   	int3   
   1400183cc:	cc                   	int3   
   1400183cd:	cc                   	int3   
   1400183ce:	cc                   	int3   
   1400183cf:	cc                   	int3   
   1400183d0:	cc                   	int3   
   1400183d1:	cc                   	int3   
   1400183d2:	cc                   	int3   
   1400183d3:	cc                   	int3   
   1400183d4:	cc                   	int3   
   1400183d5:	cc                   	int3   
   1400183d6:	cc                   	int3   
   1400183d7:	cc                   	int3   
   1400183d8:	cc                   	int3   
   1400183d9:	cc                   	int3   
   1400183da:	cc                   	int3   
   1400183db:	cc                   	int3   
   1400183dc:	cc                   	int3   
   1400183dd:	cc                   	int3   
   1400183de:	cc                   	int3   
   1400183df:	cc                   	int3   
   1400183e0:	cc                   	int3   
   1400183e1:	cc                   	int3   
   1400183e2:	cc                   	int3   
   1400183e3:	cc                   	int3   
   1400183e4:	cc                   	int3   
   1400183e5:	cc                   	int3   
   1400183e6:	cc                   	int3   
   1400183e7:	cc                   	int3   
   1400183e8:	cc                   	int3   
   1400183e9:	cc                   	int3   
   1400183ea:	cc                   	int3   
   1400183eb:	cc                   	int3   
   1400183ec:	cc                   	int3   
   1400183ed:	cc                   	int3   
   1400183ee:	cc                   	int3   
   1400183ef:	cc                   	int3   
   1400183f0:	cc                   	int3   
   1400183f1:	cc                   	int3   
   1400183f2:	cc                   	int3   
   1400183f3:	cc                   	int3   
   1400183f4:	cc                   	int3   
   1400183f5:	cc                   	int3   
   1400183f6:	cc                   	int3   
   1400183f7:	cc                   	int3   
   1400183f8:	cc                   	int3   
   1400183f9:	cc                   	int3   
   1400183fa:	cc                   	int3   
   1400183fb:	cc                   	int3   
   1400183fc:	cc                   	int3   
   1400183fd:	cc                   	int3   
   1400183fe:	cc                   	int3   
   1400183ff:	cc                   	int3   
   140018400:	cc                   	int3   
   140018401:	cc                   	int3   
   140018402:	cc                   	int3   
   140018403:	cc                   	int3   
   140018404:	cc                   	int3   
   140018405:	cc                   	int3   
   140018406:	cc                   	int3   
   140018407:	cc                   	int3   
   140018408:	cc                   	int3   
   140018409:	cc                   	int3   
   14001840a:	cc                   	int3   
   14001840b:	cc                   	int3   
   14001840c:	cc                   	int3   
   14001840d:	cc                   	int3   
   14001840e:	cc                   	int3   
   14001840f:	cc                   	int3   
   140018410:	cc                   	int3   
   140018411:	cc                   	int3   
   140018412:	cc                   	int3   
   140018413:	cc                   	int3   
   140018414:	cc                   	int3   
   140018415:	cc                   	int3   
   140018416:	cc                   	int3   
   140018417:	cc                   	int3   
   140018418:	cc                   	int3   
   140018419:	cc                   	int3   
   14001841a:	cc                   	int3   
   14001841b:	cc                   	int3   
   14001841c:	cc                   	int3   
   14001841d:	cc                   	int3   
   14001841e:	cc                   	int3   
   14001841f:	cc                   	int3   
   140018420:	cc                   	int3   
   140018421:	cc                   	int3   
   140018422:	cc                   	int3   
   140018423:	cc                   	int3   
   140018424:	cc                   	int3   
   140018425:	cc                   	int3   
   140018426:	cc                   	int3   
   140018427:	cc                   	int3   
   140018428:	cc                   	int3   
   140018429:	cc                   	int3   
   14001842a:	cc                   	int3   
   14001842b:	cc                   	int3   
   14001842c:	cc                   	int3   
   14001842d:	cc                   	int3   
   14001842e:	cc                   	int3   
   14001842f:	cc                   	int3   
   140018430:	cc                   	int3   
   140018431:	cc                   	int3   
   140018432:	cc                   	int3   
   140018433:	cc                   	int3   
   140018434:	cc                   	int3   
   140018435:	cc                   	int3   
   140018436:	cc                   	int3   
   140018437:	cc                   	int3   
   140018438:	cc                   	int3   
   140018439:	cc                   	int3   
   14001843a:	cc                   	int3   
   14001843b:	cc                   	int3   
   14001843c:	cc                   	int3   
   14001843d:	cc                   	int3   
   14001843e:	cc                   	int3   
   14001843f:	cc                   	int3   
   140018440:	cc                   	int3   
   140018441:	cc                   	int3   
   140018442:	cc                   	int3   
   140018443:	cc                   	int3   
   140018444:	cc                   	int3   
   140018445:	cc                   	int3   
   140018446:	cc                   	int3   
   140018447:	cc                   	int3   
   140018448:	cc                   	int3   
   140018449:	cc                   	int3   
   14001844a:	cc                   	int3   
   14001844b:	cc                   	int3   
   14001844c:	cc                   	int3   
   14001844d:	cc                   	int3   
   14001844e:	cc                   	int3   
   14001844f:	cc                   	int3   
   140018450:	cc                   	int3   
   140018451:	cc                   	int3   
   140018452:	cc                   	int3   
   140018453:	cc                   	int3   
   140018454:	cc                   	int3   
   140018455:	cc                   	int3   
   140018456:	cc                   	int3   
   140018457:	cc                   	int3   
   140018458:	cc                   	int3   
   140018459:	cc                   	int3   
   14001845a:	cc                   	int3   
   14001845b:	cc                   	int3   
   14001845c:	cc                   	int3   
   14001845d:	cc                   	int3   
   14001845e:	cc                   	int3   
   14001845f:	cc                   	int3   
   140018460:	cc                   	int3   
   140018461:	cc                   	int3   
   140018462:	cc                   	int3   
   140018463:	cc                   	int3   
   140018464:	cc                   	int3   
   140018465:	cc                   	int3   
   140018466:	cc                   	int3   
   140018467:	cc                   	int3   
   140018468:	cc                   	int3   
   140018469:	cc                   	int3   
   14001846a:	cc                   	int3   
   14001846b:	cc                   	int3   
   14001846c:	cc                   	int3   
   14001846d:	cc                   	int3   
   14001846e:	cc                   	int3   
   14001846f:	cc                   	int3   
   140018470:	cc                   	int3   
   140018471:	cc                   	int3   
   140018472:	cc                   	int3   
   140018473:	cc                   	int3   
   140018474:	cc                   	int3   
   140018475:	cc                   	int3   
   140018476:	cc                   	int3   
   140018477:	cc                   	int3   
   140018478:	cc                   	int3   
   140018479:	cc                   	int3   
   14001847a:	cc                   	int3   
   14001847b:	cc                   	int3   
   14001847c:	cc                   	int3   
   14001847d:	cc                   	int3   
   14001847e:	cc                   	int3   
   14001847f:	cc                   	int3   
   140018480:	cc                   	int3   
   140018481:	cc                   	int3   
   140018482:	cc                   	int3   
   140018483:	cc                   	int3   
   140018484:	cc                   	int3   
   140018485:	cc                   	int3   
   140018486:	cc                   	int3   
   140018487:	cc                   	int3   
   140018488:	cc                   	int3   
   140018489:	cc                   	int3   
   14001848a:	cc                   	int3   
   14001848b:	cc                   	int3   
   14001848c:	cc                   	int3   
   14001848d:	cc                   	int3   
   14001848e:	cc                   	int3   
   14001848f:	cc                   	int3   
   140018490:	cc                   	int3   
   140018491:	cc                   	int3   
   140018492:	cc                   	int3   
   140018493:	cc                   	int3   
   140018494:	cc                   	int3   
   140018495:	cc                   	int3   
   140018496:	cc                   	int3   
   140018497:	cc                   	int3   
   140018498:	cc                   	int3   
   140018499:	cc                   	int3   
   14001849a:	cc                   	int3   
   14001849b:	cc                   	int3   
   14001849c:	cc                   	int3   
   14001849d:	cc                   	int3   
   14001849e:	cc                   	int3   
   14001849f:	cc                   	int3   
   1400184a0:	cc                   	int3   
   1400184a1:	cc                   	int3   
   1400184a2:	cc                   	int3   
   1400184a3:	cc                   	int3   
   1400184a4:	cc                   	int3   
   1400184a5:	cc                   	int3   
   1400184a6:	cc                   	int3   
   1400184a7:	cc                   	int3   
   1400184a8:	cc                   	int3   
   1400184a9:	cc                   	int3   
   1400184aa:	cc                   	int3   
   1400184ab:	cc                   	int3   
   1400184ac:	cc                   	int3   
   1400184ad:	cc                   	int3   
   1400184ae:	cc                   	int3   
   1400184af:	cc                   	int3   
   1400184b0:	cc                   	int3   
   1400184b1:	cc                   	int3   
   1400184b2:	cc                   	int3   
   1400184b3:	cc                   	int3   
   1400184b4:	cc                   	int3   
   1400184b5:	cc                   	int3   
   1400184b6:	cc                   	int3   
   1400184b7:	cc                   	int3   
   1400184b8:	cc                   	int3   
   1400184b9:	cc                   	int3   
   1400184ba:	cc                   	int3   
   1400184bb:	cc                   	int3   
   1400184bc:	cc                   	int3   
   1400184bd:	cc                   	int3   
   1400184be:	cc                   	int3   
   1400184bf:	cc                   	int3   
   1400184c0:	cc                   	int3   
   1400184c1:	cc                   	int3   
   1400184c2:	cc                   	int3   
   1400184c3:	cc                   	int3   
   1400184c4:	cc                   	int3   
   1400184c5:	cc                   	int3   
   1400184c6:	cc                   	int3   
   1400184c7:	cc                   	int3   
   1400184c8:	cc                   	int3   
   1400184c9:	cc                   	int3   
   1400184ca:	cc                   	int3   
   1400184cb:	cc                   	int3   
   1400184cc:	cc                   	int3   
   1400184cd:	cc                   	int3   
   1400184ce:	cc                   	int3   
   1400184cf:	cc                   	int3   
   1400184d0:	cc                   	int3   
   1400184d1:	cc                   	int3   
   1400184d2:	cc                   	int3   
   1400184d3:	cc                   	int3   
   1400184d4:	cc                   	int3   
   1400184d5:	cc                   	int3   
   1400184d6:	cc                   	int3   
   1400184d7:	cc                   	int3   
   1400184d8:	cc                   	int3   
   1400184d9:	cc                   	int3   
   1400184da:	cc                   	int3   
   1400184db:	cc                   	int3   
   1400184dc:	cc                   	int3   
   1400184dd:	cc                   	int3   
   1400184de:	cc                   	int3   
   1400184df:	cc                   	int3   
   1400184e0:	cc                   	int3   
   1400184e1:	cc                   	int3   
   1400184e2:	cc                   	int3   
   1400184e3:	cc                   	int3   
   1400184e4:	cc                   	int3   
   1400184e5:	cc                   	int3   
   1400184e6:	cc                   	int3   
   1400184e7:	cc                   	int3   
   1400184e8:	cc                   	int3   
   1400184e9:	cc                   	int3   
   1400184ea:	cc                   	int3   
   1400184eb:	cc                   	int3   
   1400184ec:	cc                   	int3   
   1400184ed:	cc                   	int3   
   1400184ee:	cc                   	int3   
   1400184ef:	cc                   	int3   
   1400184f0:	cc                   	int3   
   1400184f1:	cc                   	int3   
   1400184f2:	cc                   	int3   
   1400184f3:	cc                   	int3   
   1400184f4:	cc                   	int3   
   1400184f5:	cc                   	int3   
   1400184f6:	cc                   	int3   
   1400184f7:	cc                   	int3   
   1400184f8:	cc                   	int3   
   1400184f9:	cc                   	int3   
   1400184fa:	cc                   	int3   
   1400184fb:	cc                   	int3   
   1400184fc:	cc                   	int3   
   1400184fd:	cc                   	int3   
   1400184fe:	cc                   	int3   
   1400184ff:	cc                   	int3   
   140018500:	cc                   	int3   
   140018501:	cc                   	int3   
   140018502:	cc                   	int3   
   140018503:	cc                   	int3   
   140018504:	cc                   	int3   
   140018505:	cc                   	int3   
   140018506:	cc                   	int3   
   140018507:	cc                   	int3   
   140018508:	cc                   	int3   
   140018509:	cc                   	int3   
   14001850a:	cc                   	int3   
   14001850b:	cc                   	int3   
   14001850c:	cc                   	int3   
   14001850d:	cc                   	int3   
   14001850e:	cc                   	int3   
   14001850f:	cc                   	int3   
   140018510:	cc                   	int3   
   140018511:	cc                   	int3   
   140018512:	cc                   	int3   
   140018513:	cc                   	int3   
   140018514:	cc                   	int3   
   140018515:	cc                   	int3   
   140018516:	cc                   	int3   
   140018517:	cc                   	int3   
   140018518:	cc                   	int3   
   140018519:	cc                   	int3   
   14001851a:	cc                   	int3   
   14001851b:	cc                   	int3   
   14001851c:	cc                   	int3   
   14001851d:	cc                   	int3   
   14001851e:	cc                   	int3   
   14001851f:	cc                   	int3   
   140018520:	cc                   	int3   
   140018521:	cc                   	int3   
   140018522:	cc                   	int3   
   140018523:	cc                   	int3   
   140018524:	cc                   	int3   
   140018525:	cc                   	int3   
   140018526:	cc                   	int3   
   140018527:	cc                   	int3   
   140018528:	cc                   	int3   
   140018529:	cc                   	int3   
   14001852a:	cc                   	int3   
   14001852b:	cc                   	int3   
   14001852c:	cc                   	int3   
   14001852d:	cc                   	int3   
   14001852e:	cc                   	int3   
   14001852f:	cc                   	int3   
   140018530:	cc                   	int3   
   140018531:	cc                   	int3   
   140018532:	cc                   	int3   
   140018533:	cc                   	int3   
   140018534:	cc                   	int3   
   140018535:	cc                   	int3   
   140018536:	cc                   	int3   
   140018537:	cc                   	int3   
   140018538:	cc                   	int3   
   140018539:	cc                   	int3   
   14001853a:	cc                   	int3   
   14001853b:	cc                   	int3   
   14001853c:	cc                   	int3   
   14001853d:	cc                   	int3   
   14001853e:	cc                   	int3   
   14001853f:	cc                   	int3   
   140018540:	cc                   	int3   
   140018541:	cc                   	int3   
   140018542:	cc                   	int3   
   140018543:	cc                   	int3   
   140018544:	cc                   	int3   
   140018545:	cc                   	int3   
   140018546:	cc                   	int3   
   140018547:	cc                   	int3   
   140018548:	cc                   	int3   
   140018549:	cc                   	int3   
   14001854a:	cc                   	int3   
   14001854b:	cc                   	int3   
   14001854c:	cc                   	int3   
   14001854d:	cc                   	int3   
   14001854e:	cc                   	int3   
   14001854f:	cc                   	int3   
   140018550:	cc                   	int3   
   140018551:	cc                   	int3   
   140018552:	cc                   	int3   
   140018553:	cc                   	int3   
   140018554:	cc                   	int3   
   140018555:	cc                   	int3   
   140018556:	cc                   	int3   
   140018557:	cc                   	int3   
   140018558:	cc                   	int3   
   140018559:	cc                   	int3   
   14001855a:	cc                   	int3   
   14001855b:	cc                   	int3   
   14001855c:	cc                   	int3   
   14001855d:	cc                   	int3   
   14001855e:	cc                   	int3   
   14001855f:	cc                   	int3   
   140018560:	cc                   	int3   
   140018561:	cc                   	int3   
   140018562:	cc                   	int3   
   140018563:	cc                   	int3   
   140018564:	cc                   	int3   
   140018565:	cc                   	int3   
   140018566:	cc                   	int3   
   140018567:	cc                   	int3   
   140018568:	cc                   	int3   
   140018569:	cc                   	int3   
   14001856a:	cc                   	int3   
   14001856b:	cc                   	int3   
   14001856c:	cc                   	int3   
   14001856d:	cc                   	int3   
   14001856e:	cc                   	int3   
   14001856f:	cc                   	int3   
   140018570:	cc                   	int3   
   140018571:	cc                   	int3   
   140018572:	cc                   	int3   
   140018573:	cc                   	int3   
   140018574:	cc                   	int3   
   140018575:	cc                   	int3   
   140018576:	cc                   	int3   
   140018577:	cc                   	int3   
   140018578:	cc                   	int3   
   140018579:	cc                   	int3   
   14001857a:	cc                   	int3   
   14001857b:	cc                   	int3   
   14001857c:	cc                   	int3   
   14001857d:	cc                   	int3   
   14001857e:	cc                   	int3   
   14001857f:	cc                   	int3   
   140018580:	cc                   	int3   
   140018581:	cc                   	int3   
   140018582:	cc                   	int3   
   140018583:	cc                   	int3   
   140018584:	cc                   	int3   
   140018585:	cc                   	int3   
   140018586:	cc                   	int3   
   140018587:	cc                   	int3   
   140018588:	cc                   	int3   
   140018589:	cc                   	int3   
   14001858a:	cc                   	int3   
   14001858b:	cc                   	int3   
   14001858c:	cc                   	int3   
   14001858d:	cc                   	int3   
   14001858e:	cc                   	int3   
   14001858f:	cc                   	int3   
   140018590:	cc                   	int3   
   140018591:	cc                   	int3   
   140018592:	cc                   	int3   
   140018593:	cc                   	int3   
   140018594:	cc                   	int3   
   140018595:	cc                   	int3   
   140018596:	cc                   	int3   
   140018597:	cc                   	int3   
   140018598:	cc                   	int3   
   140018599:	cc                   	int3   
   14001859a:	cc                   	int3   
   14001859b:	cc                   	int3   
   14001859c:	cc                   	int3   
   14001859d:	cc                   	int3   
   14001859e:	cc                   	int3   
   14001859f:	cc                   	int3   
   1400185a0:	cc                   	int3   
   1400185a1:	cc                   	int3   
   1400185a2:	cc                   	int3   
   1400185a3:	cc                   	int3   
   1400185a4:	cc                   	int3   
   1400185a5:	cc                   	int3   
   1400185a6:	cc                   	int3   
   1400185a7:	cc                   	int3   
   1400185a8:	cc                   	int3   
   1400185a9:	cc                   	int3   
   1400185aa:	cc                   	int3   
   1400185ab:	cc                   	int3   
   1400185ac:	cc                   	int3   
   1400185ad:	cc                   	int3   
   1400185ae:	cc                   	int3   
   1400185af:	cc                   	int3   
   1400185b0:	cc                   	int3   
   1400185b1:	cc                   	int3   
   1400185b2:	cc                   	int3   
   1400185b3:	cc                   	int3   
   1400185b4:	cc                   	int3   
   1400185b5:	cc                   	int3   
   1400185b6:	cc                   	int3   
   1400185b7:	cc                   	int3   
   1400185b8:	cc                   	int3   
   1400185b9:	cc                   	int3   
   1400185ba:	cc                   	int3   
   1400185bb:	cc                   	int3   
   1400185bc:	cc                   	int3   
   1400185bd:	cc                   	int3   
   1400185be:	cc                   	int3   
   1400185bf:	cc                   	int3   
   1400185c0:	cc                   	int3   
   1400185c1:	cc                   	int3   
   1400185c2:	cc                   	int3   
   1400185c3:	cc                   	int3   
   1400185c4:	cc                   	int3   
   1400185c5:	cc                   	int3   
   1400185c6:	cc                   	int3   
   1400185c7:	cc                   	int3   
   1400185c8:	cc                   	int3   
   1400185c9:	cc                   	int3   
   1400185ca:	cc                   	int3   
   1400185cb:	cc                   	int3   
   1400185cc:	cc                   	int3   
   1400185cd:	cc                   	int3   
   1400185ce:	cc                   	int3   
   1400185cf:	cc                   	int3   
   1400185d0:	cc                   	int3   
   1400185d1:	cc                   	int3   
   1400185d2:	cc                   	int3   
   1400185d3:	cc                   	int3   
   1400185d4:	cc                   	int3   
   1400185d5:	cc                   	int3   
   1400185d6:	cc                   	int3   
   1400185d7:	cc                   	int3   
   1400185d8:	cc                   	int3   
   1400185d9:	cc                   	int3   
   1400185da:	cc                   	int3   
   1400185db:	cc                   	int3   
   1400185dc:	cc                   	int3   
   1400185dd:	cc                   	int3   
   1400185de:	cc                   	int3   
   1400185df:	cc                   	int3   
   1400185e0:	cc                   	int3   
   1400185e1:	cc                   	int3   
   1400185e2:	cc                   	int3   
   1400185e3:	cc                   	int3   
   1400185e4:	cc                   	int3   
   1400185e5:	cc                   	int3   
   1400185e6:	cc                   	int3   
   1400185e7:	cc                   	int3   
   1400185e8:	cc                   	int3   
   1400185e9:	cc                   	int3   
   1400185ea:	cc                   	int3   
   1400185eb:	cc                   	int3   
   1400185ec:	cc                   	int3   
   1400185ed:	cc                   	int3   
   1400185ee:	cc                   	int3   
   1400185ef:	cc                   	int3   
   1400185f0:	cc                   	int3   
   1400185f1:	cc                   	int3   
   1400185f2:	cc                   	int3   
   1400185f3:	cc                   	int3   
   1400185f4:	cc                   	int3   
   1400185f5:	cc                   	int3   
   1400185f6:	cc                   	int3   
   1400185f7:	cc                   	int3   
   1400185f8:	cc                   	int3   
   1400185f9:	cc                   	int3   
   1400185fa:	cc                   	int3   
   1400185fb:	cc                   	int3   
   1400185fc:	cc                   	int3   
   1400185fd:	cc                   	int3   
   1400185fe:	cc                   	int3   
   1400185ff:	cc                   	int3   
   140018600:	cc                   	int3   
   140018601:	cc                   	int3   
   140018602:	cc                   	int3   
   140018603:	cc                   	int3   
   140018604:	cc                   	int3   
   140018605:	cc                   	int3   
   140018606:	cc                   	int3   
   140018607:	cc                   	int3   
   140018608:	cc                   	int3   
   140018609:	cc                   	int3   
   14001860a:	cc                   	int3   
   14001860b:	cc                   	int3   
   14001860c:	cc                   	int3   
   14001860d:	cc                   	int3   
   14001860e:	cc                   	int3   
   14001860f:	cc                   	int3   
   140018610:	cc                   	int3   
   140018611:	cc                   	int3   
   140018612:	cc                   	int3   
   140018613:	cc                   	int3   
   140018614:	cc                   	int3   
   140018615:	cc                   	int3   
   140018616:	cc                   	int3   
   140018617:	cc                   	int3   
   140018618:	cc                   	int3   
   140018619:	cc                   	int3   
   14001861a:	cc                   	int3   
   14001861b:	cc                   	int3   
   14001861c:	cc                   	int3   
   14001861d:	cc                   	int3   
   14001861e:	cc                   	int3   
   14001861f:	cc                   	int3   
   140018620:	cc                   	int3   
   140018621:	cc                   	int3   
   140018622:	cc                   	int3   
   140018623:	cc                   	int3   
   140018624:	cc                   	int3   
   140018625:	cc                   	int3   
   140018626:	cc                   	int3   
   140018627:	cc                   	int3   
   140018628:	cc                   	int3   
   140018629:	cc                   	int3   
   14001862a:	cc                   	int3   
   14001862b:	cc                   	int3   
   14001862c:	cc                   	int3   
   14001862d:	cc                   	int3   
   14001862e:	cc                   	int3   
   14001862f:	cc                   	int3   
   140018630:	cc                   	int3   
   140018631:	cc                   	int3   
   140018632:	cc                   	int3   
   140018633:	cc                   	int3   
   140018634:	cc                   	int3   
   140018635:	cc                   	int3   
   140018636:	cc                   	int3   
   140018637:	cc                   	int3   
   140018638:	cc                   	int3   
   140018639:	cc                   	int3   
   14001863a:	cc                   	int3   
   14001863b:	cc                   	int3   
   14001863c:	cc                   	int3   
   14001863d:	cc                   	int3   
   14001863e:	cc                   	int3   
   14001863f:	cc                   	int3   
   140018640:	cc                   	int3   
   140018641:	cc                   	int3   
   140018642:	cc                   	int3   
   140018643:	cc                   	int3   
   140018644:	cc                   	int3   
   140018645:	cc                   	int3   
   140018646:	cc                   	int3   
   140018647:	cc                   	int3   
   140018648:	cc                   	int3   
   140018649:	cc                   	int3   
   14001864a:	cc                   	int3   
   14001864b:	cc                   	int3   
   14001864c:	cc                   	int3   
   14001864d:	cc                   	int3   
   14001864e:	cc                   	int3   
   14001864f:	cc                   	int3   
   140018650:	cc                   	int3   
   140018651:	cc                   	int3   
   140018652:	cc                   	int3   
   140018653:	cc                   	int3   
   140018654:	cc                   	int3   
   140018655:	cc                   	int3   
   140018656:	cc                   	int3   
   140018657:	cc                   	int3   
   140018658:	cc                   	int3   
   140018659:	cc                   	int3   
   14001865a:	cc                   	int3   
   14001865b:	cc                   	int3   
   14001865c:	cc                   	int3   
   14001865d:	cc                   	int3   
   14001865e:	cc                   	int3   
   14001865f:	cc                   	int3   
   140018660:	cc                   	int3   
   140018661:	cc                   	int3   
   140018662:	cc                   	int3   
   140018663:	cc                   	int3   
   140018664:	cc                   	int3   
   140018665:	cc                   	int3   
   140018666:	cc                   	int3   
   140018667:	cc                   	int3   
   140018668:	cc                   	int3   
   140018669:	cc                   	int3   
   14001866a:	cc                   	int3   
   14001866b:	cc                   	int3   
   14001866c:	cc                   	int3   
   14001866d:	cc                   	int3   
   14001866e:	cc                   	int3   
   14001866f:	cc                   	int3   
   140018670:	cc                   	int3   
   140018671:	cc                   	int3   
   140018672:	cc                   	int3   
   140018673:	cc                   	int3   
   140018674:	cc                   	int3   
   140018675:	cc                   	int3   
   140018676:	cc                   	int3   
   140018677:	cc                   	int3   
   140018678:	cc                   	int3   
   140018679:	cc                   	int3   
   14001867a:	cc                   	int3   
   14001867b:	cc                   	int3   
   14001867c:	cc                   	int3   
   14001867d:	cc                   	int3   
   14001867e:	cc                   	int3   
   14001867f:	cc                   	int3   
   140018680:	cc                   	int3   
   140018681:	cc                   	int3   
   140018682:	cc                   	int3   
   140018683:	cc                   	int3   
   140018684:	cc                   	int3   
   140018685:	cc                   	int3   
   140018686:	cc                   	int3   
   140018687:	cc                   	int3   
   140018688:	cc                   	int3   
   140018689:	cc                   	int3   
   14001868a:	cc                   	int3   
   14001868b:	cc                   	int3   
   14001868c:	cc                   	int3   
   14001868d:	cc                   	int3   
   14001868e:	cc                   	int3   
   14001868f:	cc                   	int3   
   140018690:	cc                   	int3   
   140018691:	cc                   	int3   
   140018692:	cc                   	int3   
   140018693:	cc                   	int3   
   140018694:	cc                   	int3   
   140018695:	cc                   	int3   
   140018696:	cc                   	int3   
   140018697:	cc                   	int3   
   140018698:	cc                   	int3   
   140018699:	cc                   	int3   
   14001869a:	cc                   	int3   
   14001869b:	cc                   	int3   
   14001869c:	cc                   	int3   
   14001869d:	cc                   	int3   
   14001869e:	cc                   	int3   
   14001869f:	cc                   	int3   
   1400186a0:	cc                   	int3   
   1400186a1:	cc                   	int3   
   1400186a2:	cc                   	int3   
   1400186a3:	cc                   	int3   
   1400186a4:	cc                   	int3   
   1400186a5:	cc                   	int3   
   1400186a6:	cc                   	int3   
   1400186a7:	cc                   	int3   
   1400186a8:	cc                   	int3   
   1400186a9:	cc                   	int3   
   1400186aa:	cc                   	int3   
   1400186ab:	cc                   	int3   
   1400186ac:	cc                   	int3   
   1400186ad:	cc                   	int3   
   1400186ae:	cc                   	int3   
   1400186af:	cc                   	int3   
   1400186b0:	cc                   	int3   
   1400186b1:	cc                   	int3   
   1400186b2:	cc                   	int3   
   1400186b3:	cc                   	int3   
   1400186b4:	cc                   	int3   
   1400186b5:	cc                   	int3   
   1400186b6:	cc                   	int3   
   1400186b7:	cc                   	int3   
   1400186b8:	cc                   	int3   
   1400186b9:	cc                   	int3   
   1400186ba:	cc                   	int3   
   1400186bb:	cc                   	int3   
   1400186bc:	cc                   	int3   
   1400186bd:	cc                   	int3   
   1400186be:	cc                   	int3   
   1400186bf:	cc                   	int3   
   1400186c0:	cc                   	int3   
   1400186c1:	cc                   	int3   
   1400186c2:	cc                   	int3   
   1400186c3:	cc                   	int3   
   1400186c4:	cc                   	int3   
   1400186c5:	cc                   	int3   
   1400186c6:	cc                   	int3   
   1400186c7:	cc                   	int3   
   1400186c8:	cc                   	int3   
   1400186c9:	cc                   	int3   
   1400186ca:	cc                   	int3   
   1400186cb:	cc                   	int3   
   1400186cc:	cc                   	int3   
   1400186cd:	cc                   	int3   
   1400186ce:	cc                   	int3   
   1400186cf:	cc                   	int3   
   1400186d0:	cc                   	int3   
   1400186d1:	cc                   	int3   
   1400186d2:	cc                   	int3   
   1400186d3:	cc                   	int3   
   1400186d4:	cc                   	int3   
   1400186d5:	cc                   	int3   
   1400186d6:	cc                   	int3   
   1400186d7:	cc                   	int3   
   1400186d8:	cc                   	int3   
   1400186d9:	cc                   	int3   
   1400186da:	cc                   	int3   
   1400186db:	cc                   	int3   
   1400186dc:	cc                   	int3   
   1400186dd:	cc                   	int3   
   1400186de:	cc                   	int3   
   1400186df:	cc                   	int3   
   1400186e0:	cc                   	int3   
   1400186e1:	cc                   	int3   
   1400186e2:	cc                   	int3   
   1400186e3:	cc                   	int3   
   1400186e4:	cc                   	int3   
   1400186e5:	cc                   	int3   
   1400186e6:	cc                   	int3   
   1400186e7:	cc                   	int3   
   1400186e8:	cc                   	int3   
   1400186e9:	cc                   	int3   
   1400186ea:	cc                   	int3   
   1400186eb:	cc                   	int3   
   1400186ec:	cc                   	int3   
   1400186ed:	cc                   	int3   
   1400186ee:	cc                   	int3   
   1400186ef:	cc                   	int3   
   1400186f0:	cc                   	int3   
   1400186f1:	cc                   	int3   
   1400186f2:	cc                   	int3   
   1400186f3:	cc                   	int3   
   1400186f4:	cc                   	int3   
   1400186f5:	cc                   	int3   
   1400186f6:	cc                   	int3   
   1400186f7:	cc                   	int3   
   1400186f8:	cc                   	int3   
   1400186f9:	cc                   	int3   
   1400186fa:	cc                   	int3   
   1400186fb:	cc                   	int3   
   1400186fc:	cc                   	int3   
   1400186fd:	cc                   	int3   
   1400186fe:	cc                   	int3   
   1400186ff:	cc                   	int3   
   140018700:	cc                   	int3   
   140018701:	cc                   	int3   
   140018702:	cc                   	int3   
   140018703:	cc                   	int3   
   140018704:	cc                   	int3   
   140018705:	cc                   	int3   
   140018706:	cc                   	int3   
   140018707:	cc                   	int3   
   140018708:	cc                   	int3   
   140018709:	cc                   	int3   
   14001870a:	cc                   	int3   
   14001870b:	cc                   	int3   
   14001870c:	cc                   	int3   
   14001870d:	cc                   	int3   
   14001870e:	cc                   	int3   
   14001870f:	cc                   	int3   
   140018710:	cc                   	int3   
   140018711:	cc                   	int3   
   140018712:	cc                   	int3   
   140018713:	cc                   	int3   
   140018714:	cc                   	int3   
   140018715:	cc                   	int3   
   140018716:	cc                   	int3   
   140018717:	cc                   	int3   
   140018718:	cc                   	int3   
   140018719:	cc                   	int3   
   14001871a:	cc                   	int3   
   14001871b:	cc                   	int3   
   14001871c:	cc                   	int3   
   14001871d:	cc                   	int3   
   14001871e:	cc                   	int3   
   14001871f:	cc                   	int3   
   140018720:	cc                   	int3   
   140018721:	cc                   	int3   
   140018722:	cc                   	int3   
   140018723:	cc                   	int3   
   140018724:	cc                   	int3   
   140018725:	cc                   	int3   
   140018726:	cc                   	int3   
   140018727:	cc                   	int3   
   140018728:	cc                   	int3   
   140018729:	cc                   	int3   
   14001872a:	cc                   	int3   
   14001872b:	cc                   	int3   
   14001872c:	cc                   	int3   
   14001872d:	cc                   	int3   
   14001872e:	cc                   	int3   
   14001872f:	cc                   	int3   
   140018730:	cc                   	int3   
   140018731:	cc                   	int3   
   140018732:	cc                   	int3   
   140018733:	cc                   	int3   
   140018734:	cc                   	int3   
   140018735:	cc                   	int3   
   140018736:	cc                   	int3   
   140018737:	cc                   	int3   
   140018738:	cc                   	int3   
   140018739:	cc                   	int3   
   14001873a:	cc                   	int3   
   14001873b:	cc                   	int3   
   14001873c:	cc                   	int3   
   14001873d:	cc                   	int3   
   14001873e:	cc                   	int3   
   14001873f:	cc                   	int3   
   140018740:	cc                   	int3   
   140018741:	cc                   	int3   
   140018742:	cc                   	int3   
   140018743:	cc                   	int3   
   140018744:	cc                   	int3   
   140018745:	cc                   	int3   
   140018746:	cc                   	int3   
   140018747:	cc                   	int3   
   140018748:	cc                   	int3   
   140018749:	cc                   	int3   
   14001874a:	cc                   	int3   
   14001874b:	cc                   	int3   
   14001874c:	cc                   	int3   
   14001874d:	cc                   	int3   
   14001874e:	cc                   	int3   
   14001874f:	cc                   	int3   
   140018750:	cc                   	int3   
   140018751:	cc                   	int3   
   140018752:	cc                   	int3   
   140018753:	cc                   	int3   
   140018754:	cc                   	int3   
   140018755:	cc                   	int3   
   140018756:	cc                   	int3   
   140018757:	cc                   	int3   
   140018758:	cc                   	int3   
   140018759:	cc                   	int3   
   14001875a:	cc                   	int3   
   14001875b:	cc                   	int3   
   14001875c:	cc                   	int3   
   14001875d:	cc                   	int3   
   14001875e:	cc                   	int3   
   14001875f:	cc                   	int3   
   140018760:	cc                   	int3   
   140018761:	cc                   	int3   
   140018762:	cc                   	int3   
   140018763:	cc                   	int3   
   140018764:	cc                   	int3   
   140018765:	cc                   	int3   
   140018766:	cc                   	int3   
   140018767:	cc                   	int3   
   140018768:	cc                   	int3   
   140018769:	cc                   	int3   
   14001876a:	cc                   	int3   
   14001876b:	cc                   	int3   
   14001876c:	cc                   	int3   
   14001876d:	cc                   	int3   
   14001876e:	cc                   	int3   
   14001876f:	cc                   	int3   
   140018770:	cc                   	int3   
   140018771:	cc                   	int3   
   140018772:	cc                   	int3   
   140018773:	cc                   	int3   
   140018774:	cc                   	int3   
   140018775:	cc                   	int3   
   140018776:	cc                   	int3   
   140018777:	cc                   	int3   
   140018778:	cc                   	int3   
   140018779:	cc                   	int3   
   14001877a:	cc                   	int3   
   14001877b:	cc                   	int3   
   14001877c:	cc                   	int3   
   14001877d:	cc                   	int3   
   14001877e:	cc                   	int3   
   14001877f:	cc                   	int3   
   140018780:	cc                   	int3   
   140018781:	cc                   	int3   
   140018782:	cc                   	int3   
   140018783:	cc                   	int3   
   140018784:	cc                   	int3   
   140018785:	cc                   	int3   
   140018786:	cc                   	int3   
   140018787:	cc                   	int3   
   140018788:	cc                   	int3   
   140018789:	cc                   	int3   
   14001878a:	cc                   	int3   
   14001878b:	cc                   	int3   
   14001878c:	cc                   	int3   
   14001878d:	cc                   	int3   
   14001878e:	cc                   	int3   
   14001878f:	cc                   	int3   
   140018790:	cc                   	int3   
   140018791:	cc                   	int3   
   140018792:	cc                   	int3   
   140018793:	cc                   	int3   
   140018794:	cc                   	int3   
   140018795:	cc                   	int3   
   140018796:	cc                   	int3   
   140018797:	cc                   	int3   
   140018798:	cc                   	int3   
   140018799:	cc                   	int3   
   14001879a:	cc                   	int3   
   14001879b:	cc                   	int3   
   14001879c:	cc                   	int3   
   14001879d:	cc                   	int3   
   14001879e:	cc                   	int3   
   14001879f:	cc                   	int3   
   1400187a0:	cc                   	int3   
   1400187a1:	cc                   	int3   
   1400187a2:	cc                   	int3   
   1400187a3:	cc                   	int3   
   1400187a4:	cc                   	int3   
   1400187a5:	cc                   	int3   
   1400187a6:	cc                   	int3   
   1400187a7:	cc                   	int3   
   1400187a8:	cc                   	int3   
   1400187a9:	cc                   	int3   
   1400187aa:	cc                   	int3   
   1400187ab:	cc                   	int3   
   1400187ac:	cc                   	int3   
   1400187ad:	cc                   	int3   
   1400187ae:	cc                   	int3   
   1400187af:	cc                   	int3   
   1400187b0:	cc                   	int3   
   1400187b1:	cc                   	int3   
   1400187b2:	cc                   	int3   
   1400187b3:	cc                   	int3   
   1400187b4:	cc                   	int3   
   1400187b5:	cc                   	int3   
   1400187b6:	cc                   	int3   
   1400187b7:	cc                   	int3   
   1400187b8:	cc                   	int3   
   1400187b9:	cc                   	int3   
   1400187ba:	cc                   	int3   
   1400187bb:	cc                   	int3   
   1400187bc:	cc                   	int3   
   1400187bd:	cc                   	int3   
   1400187be:	cc                   	int3   
   1400187bf:	cc                   	int3   
   1400187c0:	cc                   	int3   
   1400187c1:	cc                   	int3   
   1400187c2:	cc                   	int3   
   1400187c3:	cc                   	int3   
   1400187c4:	cc                   	int3   
   1400187c5:	cc                   	int3   
   1400187c6:	cc                   	int3   
   1400187c7:	cc                   	int3   
   1400187c8:	cc                   	int3   
   1400187c9:	cc                   	int3   
   1400187ca:	cc                   	int3   
   1400187cb:	cc                   	int3   
   1400187cc:	cc                   	int3   
   1400187cd:	cc                   	int3   
   1400187ce:	cc                   	int3   
   1400187cf:	cc                   	int3   
   1400187d0:	cc                   	int3   
   1400187d1:	cc                   	int3   
   1400187d2:	cc                   	int3   
   1400187d3:	cc                   	int3   
   1400187d4:	cc                   	int3   
   1400187d5:	cc                   	int3   
   1400187d6:	cc                   	int3   
   1400187d7:	cc                   	int3   
   1400187d8:	cc                   	int3   
   1400187d9:	cc                   	int3   
   1400187da:	cc                   	int3   
   1400187db:	cc                   	int3   
   1400187dc:	cc                   	int3   
   1400187dd:	cc                   	int3   
   1400187de:	cc                   	int3   
   1400187df:	cc                   	int3   
   1400187e0:	cc                   	int3   
   1400187e1:	cc                   	int3   
   1400187e2:	cc                   	int3   
   1400187e3:	cc                   	int3   
   1400187e4:	cc                   	int3   
   1400187e5:	cc                   	int3   
   1400187e6:	cc                   	int3   
   1400187e7:	cc                   	int3   
   1400187e8:	cc                   	int3   
   1400187e9:	cc                   	int3   
   1400187ea:	cc                   	int3   
   1400187eb:	cc                   	int3   
   1400187ec:	cc                   	int3   
   1400187ed:	cc                   	int3   
   1400187ee:	cc                   	int3   
   1400187ef:	cc                   	int3   
   1400187f0:	cc                   	int3   
   1400187f1:	cc                   	int3   
   1400187f2:	cc                   	int3   
   1400187f3:	cc                   	int3   
   1400187f4:	cc                   	int3   
   1400187f5:	cc                   	int3   
   1400187f6:	cc                   	int3   
   1400187f7:	cc                   	int3   
   1400187f8:	cc                   	int3   
   1400187f9:	cc                   	int3   
   1400187fa:	cc                   	int3   
   1400187fb:	cc                   	int3   
   1400187fc:	cc                   	int3   
   1400187fd:	cc                   	int3   
   1400187fe:	cc                   	int3   
   1400187ff:	cc                   	int3   
   140018800:	cc                   	int3   
   140018801:	cc                   	int3   
   140018802:	cc                   	int3   
   140018803:	cc                   	int3   
   140018804:	cc                   	int3   
   140018805:	cc                   	int3   
   140018806:	cc                   	int3   
   140018807:	cc                   	int3   
   140018808:	cc                   	int3   
   140018809:	cc                   	int3   
   14001880a:	cc                   	int3   
   14001880b:	cc                   	int3   
   14001880c:	cc                   	int3   
   14001880d:	cc                   	int3   
   14001880e:	cc                   	int3   
   14001880f:	cc                   	int3   
   140018810:	cc                   	int3   
   140018811:	cc                   	int3   
   140018812:	cc                   	int3   
   140018813:	cc                   	int3   
   140018814:	cc                   	int3   
   140018815:	cc                   	int3   
   140018816:	cc                   	int3   
   140018817:	cc                   	int3   
   140018818:	cc                   	int3   
   140018819:	cc                   	int3   
   14001881a:	cc                   	int3   
   14001881b:	cc                   	int3   
   14001881c:	cc                   	int3   
   14001881d:	cc                   	int3   
   14001881e:	cc                   	int3   
   14001881f:	cc                   	int3   
   140018820:	cc                   	int3   
   140018821:	cc                   	int3   
   140018822:	cc                   	int3   
   140018823:	cc                   	int3   
   140018824:	cc                   	int3   
   140018825:	cc                   	int3   
   140018826:	cc                   	int3   
   140018827:	cc                   	int3   
   140018828:	cc                   	int3   
   140018829:	cc                   	int3   
   14001882a:	cc                   	int3   
   14001882b:	cc                   	int3   
   14001882c:	cc                   	int3   
   14001882d:	cc                   	int3   
   14001882e:	cc                   	int3   
   14001882f:	cc                   	int3   
   140018830:	cc                   	int3   
   140018831:	cc                   	int3   
   140018832:	cc                   	int3   
   140018833:	cc                   	int3   
   140018834:	cc                   	int3   
   140018835:	cc                   	int3   
   140018836:	cc                   	int3   
   140018837:	cc                   	int3   
   140018838:	cc                   	int3   
   140018839:	cc                   	int3   
   14001883a:	cc                   	int3   
   14001883b:	cc                   	int3   
   14001883c:	cc                   	int3   
   14001883d:	cc                   	int3   
   14001883e:	cc                   	int3   
   14001883f:	cc                   	int3   
   140018840:	cc                   	int3   
   140018841:	cc                   	int3   
   140018842:	cc                   	int3   
   140018843:	cc                   	int3   
   140018844:	cc                   	int3   
   140018845:	cc                   	int3   
   140018846:	cc                   	int3   
   140018847:	cc                   	int3   
   140018848:	cc                   	int3   
   140018849:	cc                   	int3   
   14001884a:	cc                   	int3   
   14001884b:	cc                   	int3   
   14001884c:	cc                   	int3   
   14001884d:	cc                   	int3   
   14001884e:	cc                   	int3   
   14001884f:	cc                   	int3   
   140018850:	cc                   	int3   
   140018851:	cc                   	int3   
   140018852:	cc                   	int3   
   140018853:	cc                   	int3   
   140018854:	cc                   	int3   
   140018855:	cc                   	int3   
   140018856:	cc                   	int3   
   140018857:	cc                   	int3   
   140018858:	cc                   	int3   
   140018859:	cc                   	int3   
   14001885a:	cc                   	int3   
   14001885b:	cc                   	int3   
   14001885c:	cc                   	int3   
   14001885d:	cc                   	int3   
   14001885e:	cc                   	int3   
   14001885f:	cc                   	int3   
   140018860:	cc                   	int3   
   140018861:	cc                   	int3   
   140018862:	cc                   	int3   
   140018863:	cc                   	int3   
   140018864:	cc                   	int3   
   140018865:	cc                   	int3   
   140018866:	cc                   	int3   
   140018867:	cc                   	int3   
   140018868:	cc                   	int3   
   140018869:	cc                   	int3   
   14001886a:	cc                   	int3   
   14001886b:	cc                   	int3   
   14001886c:	cc                   	int3   
   14001886d:	cc                   	int3   
   14001886e:	cc                   	int3   
   14001886f:	cc                   	int3   
   140018870:	cc                   	int3   
   140018871:	cc                   	int3   
   140018872:	cc                   	int3   
   140018873:	cc                   	int3   
   140018874:	cc                   	int3   
   140018875:	cc                   	int3   
   140018876:	cc                   	int3   
   140018877:	cc                   	int3   
   140018878:	cc                   	int3   
   140018879:	cc                   	int3   
   14001887a:	cc                   	int3   
   14001887b:	cc                   	int3   
   14001887c:	cc                   	int3   
   14001887d:	cc                   	int3   
   14001887e:	cc                   	int3   
   14001887f:	cc                   	int3   
   140018880:	cc                   	int3   
   140018881:	cc                   	int3   
   140018882:	cc                   	int3   
   140018883:	cc                   	int3   
   140018884:	cc                   	int3   
   140018885:	cc                   	int3   
   140018886:	cc                   	int3   
   140018887:	cc                   	int3   
   140018888:	cc                   	int3   
   140018889:	cc                   	int3   
   14001888a:	cc                   	int3   
   14001888b:	cc                   	int3   
   14001888c:	cc                   	int3   
   14001888d:	cc                   	int3   
   14001888e:	cc                   	int3   
   14001888f:	cc                   	int3   
   140018890:	cc                   	int3   
   140018891:	cc                   	int3   
   140018892:	cc                   	int3   
   140018893:	cc                   	int3   
   140018894:	cc                   	int3   
   140018895:	cc                   	int3   
   140018896:	cc                   	int3   
   140018897:	cc                   	int3   
   140018898:	cc                   	int3   
   140018899:	cc                   	int3   
   14001889a:	cc                   	int3   
   14001889b:	cc                   	int3   
   14001889c:	cc                   	int3   
   14001889d:	cc                   	int3   
   14001889e:	cc                   	int3   
   14001889f:	cc                   	int3   
   1400188a0:	cc                   	int3   
   1400188a1:	cc                   	int3   
   1400188a2:	cc                   	int3   
   1400188a3:	cc                   	int3   
   1400188a4:	cc                   	int3   
   1400188a5:	cc                   	int3   
   1400188a6:	cc                   	int3   
   1400188a7:	cc                   	int3   
   1400188a8:	cc                   	int3   
   1400188a9:	cc                   	int3   
   1400188aa:	cc                   	int3   
   1400188ab:	cc                   	int3   
   1400188ac:	cc                   	int3   
   1400188ad:	cc                   	int3   
   1400188ae:	cc                   	int3   
   1400188af:	cc                   	int3   
   1400188b0:	cc                   	int3   
   1400188b1:	cc                   	int3   
   1400188b2:	cc                   	int3   
   1400188b3:	cc                   	int3   
   1400188b4:	cc                   	int3   
   1400188b5:	cc                   	int3   
   1400188b6:	cc                   	int3   
   1400188b7:	cc                   	int3   
   1400188b8:	cc                   	int3   
   1400188b9:	cc                   	int3   
   1400188ba:	cc                   	int3   
   1400188bb:	cc                   	int3   
   1400188bc:	cc                   	int3   
   1400188bd:	cc                   	int3   
   1400188be:	cc                   	int3   
   1400188bf:	cc                   	int3   
   1400188c0:	cc                   	int3   
   1400188c1:	cc                   	int3   
   1400188c2:	cc                   	int3   
   1400188c3:	cc                   	int3   
   1400188c4:	cc                   	int3   
   1400188c5:	cc                   	int3   
   1400188c6:	cc                   	int3   
   1400188c7:	cc                   	int3   
   1400188c8:	cc                   	int3   
   1400188c9:	cc                   	int3   
   1400188ca:	cc                   	int3   
   1400188cb:	cc                   	int3   
   1400188cc:	cc                   	int3   
   1400188cd:	cc                   	int3   
   1400188ce:	cc                   	int3   
   1400188cf:	cc                   	int3   
   1400188d0:	cc                   	int3   
   1400188d1:	cc                   	int3   
   1400188d2:	cc                   	int3   
   1400188d3:	cc                   	int3   
   1400188d4:	cc                   	int3   
   1400188d5:	cc                   	int3   
   1400188d6:	cc                   	int3   
   1400188d7:	cc                   	int3   
   1400188d8:	cc                   	int3   
   1400188d9:	cc                   	int3   
   1400188da:	cc                   	int3   
   1400188db:	cc                   	int3   
   1400188dc:	cc                   	int3   
   1400188dd:	cc                   	int3   
   1400188de:	cc                   	int3   
   1400188df:	cc                   	int3   
   1400188e0:	cc                   	int3   
   1400188e1:	cc                   	int3   
   1400188e2:	cc                   	int3   
   1400188e3:	cc                   	int3   
   1400188e4:	cc                   	int3   
   1400188e5:	cc                   	int3   
   1400188e6:	cc                   	int3   
   1400188e7:	cc                   	int3   
   1400188e8:	cc                   	int3   
   1400188e9:	cc                   	int3   
   1400188ea:	cc                   	int3   
   1400188eb:	cc                   	int3   
   1400188ec:	cc                   	int3   
   1400188ed:	cc                   	int3   
   1400188ee:	cc                   	int3   
   1400188ef:	cc                   	int3   
   1400188f0:	cc                   	int3   
   1400188f1:	cc                   	int3   
   1400188f2:	cc                   	int3   
   1400188f3:	cc                   	int3   
   1400188f4:	cc                   	int3   
   1400188f5:	cc                   	int3   
   1400188f6:	cc                   	int3   
   1400188f7:	cc                   	int3   
   1400188f8:	cc                   	int3   
   1400188f9:	cc                   	int3   
   1400188fa:	cc                   	int3   
   1400188fb:	cc                   	int3   
   1400188fc:	cc                   	int3   
   1400188fd:	cc                   	int3   
   1400188fe:	cc                   	int3   
   1400188ff:	cc                   	int3   
   140018900:	cc                   	int3   
   140018901:	cc                   	int3   
   140018902:	cc                   	int3   
   140018903:	cc                   	int3   
   140018904:	cc                   	int3   
   140018905:	cc                   	int3   
   140018906:	cc                   	int3   
   140018907:	cc                   	int3   
   140018908:	cc                   	int3   
   140018909:	cc                   	int3   
   14001890a:	cc                   	int3   
   14001890b:	cc                   	int3   
   14001890c:	cc                   	int3   
   14001890d:	cc                   	int3   
   14001890e:	cc                   	int3   
   14001890f:	cc                   	int3   
   140018910:	cc                   	int3   
   140018911:	cc                   	int3   
   140018912:	cc                   	int3   
   140018913:	cc                   	int3   
   140018914:	cc                   	int3   
   140018915:	cc                   	int3   
   140018916:	cc                   	int3   
   140018917:	cc                   	int3   
   140018918:	cc                   	int3   
   140018919:	cc                   	int3   
   14001891a:	cc                   	int3   
   14001891b:	cc                   	int3   
   14001891c:	cc                   	int3   
   14001891d:	cc                   	int3   
   14001891e:	cc                   	int3   
   14001891f:	cc                   	int3   
   140018920:	cc                   	int3   
   140018921:	cc                   	int3   
   140018922:	cc                   	int3   
   140018923:	cc                   	int3   
   140018924:	cc                   	int3   
   140018925:	cc                   	int3   
   140018926:	cc                   	int3   
   140018927:	cc                   	int3   
   140018928:	cc                   	int3   
   140018929:	cc                   	int3   
   14001892a:	cc                   	int3   
   14001892b:	cc                   	int3   
   14001892c:	cc                   	int3   
   14001892d:	cc                   	int3   
   14001892e:	cc                   	int3   
   14001892f:	cc                   	int3   
   140018930:	cc                   	int3   
   140018931:	cc                   	int3   
   140018932:	cc                   	int3   
   140018933:	cc                   	int3   
   140018934:	cc                   	int3   
   140018935:	cc                   	int3   
   140018936:	cc                   	int3   
   140018937:	cc                   	int3   
   140018938:	cc                   	int3   
   140018939:	cc                   	int3   
   14001893a:	cc                   	int3   
   14001893b:	cc                   	int3   
   14001893c:	cc                   	int3   
   14001893d:	cc                   	int3   
   14001893e:	cc                   	int3   
   14001893f:	cc                   	int3   
   140018940:	cc                   	int3   
   140018941:	cc                   	int3   
   140018942:	cc                   	int3   
   140018943:	cc                   	int3   
   140018944:	cc                   	int3   
   140018945:	cc                   	int3   
   140018946:	cc                   	int3   
   140018947:	cc                   	int3   
   140018948:	cc                   	int3   
   140018949:	cc                   	int3   
   14001894a:	cc                   	int3   
   14001894b:	cc                   	int3   
   14001894c:	cc                   	int3   
   14001894d:	cc                   	int3   
   14001894e:	cc                   	int3   
   14001894f:	cc                   	int3   
   140018950:	cc                   	int3   
   140018951:	cc                   	int3   
   140018952:	cc                   	int3   
   140018953:	cc                   	int3   
   140018954:	cc                   	int3   
   140018955:	cc                   	int3   
   140018956:	cc                   	int3   
   140018957:	cc                   	int3   
   140018958:	cc                   	int3   
   140018959:	cc                   	int3   
   14001895a:	cc                   	int3   
   14001895b:	cc                   	int3   
   14001895c:	cc                   	int3   
   14001895d:	cc                   	int3   
   14001895e:	cc                   	int3   
